

Microchip Technology PIC18 LITE Macro Assembler V2.00 build -1524193055 
                                                                                               Sun Jan 13 10:25:44 2019

Microchip Technology Omniscient Code Generator v2.00 (Free mode) build 20180527130849
     1  0000                     
     2                           ; Version 2.00
     3                           ; Generated 27/05/2018 GMT
     4                           
     5                           ; 
     6                           ; Copyright © 2018, Microchip Technology Inc. and its subsidiaries ("Microchip")
     7                           ; All rights reserved.
     8                           ; 
     9                           ; This software is developed by Microchip Technology Inc. and its subsidiaries ("Microch
                                 ip").
    10                           ; 
    11                           ; Redistribution and use in source and binary forms, with or without modification, are
    12                           ; permitted provided that the following conditions are met:
    13                           ; 
    14                           ;     1. Redistributions of source code must retain the above copyright notice, this lis
                                 t of
    15                           ;        conditions and the following disclaimer.
    16                           ; 
    17                           ;     2. Redistributions in binary form must reproduce the above copyright notice, this 
                                 list
    18                           ;        of conditions and the following disclaimer in the documentation and/or other
    19                           ;        materials provided with the distribution.
    20                           ; 
    21                           ;     3. Microchip's name may not be used to endorse or promote products derived from th
                                 is
    22                           ;        software without specific prior written permission.
    23                           ; 
    24                           ; THIS SOFTWARE IS PROVIDED BY MICROCHIP "AS IS" AND ANY EXPRESS OR IMPLIED WARRANTIES,

    25                           ; INCLUDING, BUT NOT LIMITED TO, THE IMPLIED WARRANTIES OF MERCHANTABILITY AND FITNESS F
                                 OR
    26                           ; PURPOSE ARE DISCLAIMED.  IN NO EVENT SHALL MICROCHIP BE LIABLE FOR ANY DIRECT, INDIREC
                                 T,
    27                           ; INCIDENTAL, SPECIAL, EXEMPLARY, OR CONSEQUENTIAL DAMAGES (INCLUDING BUT NOT LIMITED TO
                                 
    28                           ; PROCUREMENT OF SUBSTITUTE GOODS OR SERVICES; LOSS OF USE, DATA OR PROFITS; OR BUSINESS
                                 
    29                           ; INTERRUPTION) HOWSOEVER CAUSED AND ON ANY THEORY OF LIABILITY, WHETHER IN CONTRACT, ST
                                 RICT
    30                           ; LIABILITY, OR TORT (INCLUDING NEGLIGENCE OR OTHERWISE) ARISING IN ANY WAY OUT OF THE U
                                 SE OF
    31                           ; THIS SOFTWARE, EVEN IF ADVISED OF THE POSSIBILITY OF SUCH DAMAGE.
    32                           ; 
    33                           
    34                           
    35                           ; 
    36                           ; Code-generator required, PIC18F4520 Definitions
    37                           ; 
    38  0000                     fsr0 equ 0FE9h
    39  0000                     fsr0h equ 0FEAh
    40  0000                     fsr0l equ 0FE9h
    41  0000                     fsr1 equ 0FE1h
    42  0000                     fsr1h equ 0FE2h
    43  0000                     fsr1l equ 0FE1h
    44  0000                     fsr2 equ 0FD9h
    45  0000                     fsr2h equ 0FDAh
    46  0000                     fsr2l equ 0FD9h
    47  0000                     indf0 equ 0FEFh
    48  0000                     indf1 equ 0FE7h
    49  0000                     indf2 equ 0FDFh
    50  0000                     intcon equ 0FF2h
    51  0000                     nvmcon equ 00h
    52  0000                     pcl equ 0FF9h
    53  0000                     pclath equ 0FFAh
    54  0000                     pclatu equ 0FFBh
    55  0000                     plusw0 equ 0FEBh
    56  0000                     plusw1 equ 0FE3h
    57  0000                     plusw2 equ 0FDBh
    58  0000                     postdec0 equ 0FEDh
    59  0000                     postdec1 equ 0FE5h
    60  0000                     postdec2 equ 0FDDh
    61  0000                     postinc0 equ 0FEEh
    62  0000                     postinc1 equ 0FE6h
    63  0000                     postinc2 equ 0FDEh
    64  0000                     preinc0 equ 0FECh
    65  0000                     preinc1 equ 0FE4h
    66  0000                     preinc2 equ 0FDCh
    67  0000                     prod equ 0FF3h
    68  0000                     prodh equ 0FF4h
    69  0000                     prodl equ 0FF3h
    70  0000                     status equ 0FD8h
    71  0000                     tablat equ 0FF5h
    72  0000                     tblptr equ 0FF6h
    73  0000                     tblptrh equ 0FF7h
    74  0000                     tblptrl equ 0FF6h
    75  0000                     tblptru equ 0FF8h
    76  0000                     tosl equ 0FFDh
    77  0000                     wreg equ 0FE8h
    78  0000                     
     2                           opt pagewidth 120
     3  0000                     byte0	macro	val
     4                           	(getbyte(val,0))
     5                           endm
     6  0000                     byte1	macro	val
     7                           	(getbyte(val,1))
     8                           endm
     9  0000                     byte2	macro	val
    10                           	(getbyte(val,2))
    11                           endm
    12  0000                     byte3	macro	val
    13                           	(getbyte(val,3))
    14                           endm
    15  0000                     byte4	macro	val
    16                           	(getbyte(val,4))
    17                           endm
    18  0000                     byte5	macro	val
    19                           	(getbyte(val,5))
    20                           endm
    21  0000                     byte6	macro	val
    22                           	(getbyte(val,6))
    23                           endm
    24  0000                     byte7	macro	val
    25                           	(getbyte(val,7))
    26                           endm
    27  0000                     getword	macro	val,pos
    28                           	(((val) >> (8 * pos)) and 0xffff)
    29                           endm
    30  0000                     word0	macro	val
    31                           	(getword(val,0))
    32                           endm
    33  0000                     word1	macro	val
    34                           	(getword(val,2))
    35                           endm
    36  0000                     word2	macro	val
    37                           	(getword(val,4))
    38                           endm
    39  0000                     word3	macro	val
    40                           	(getword(val,6))
    41                           endm
    42  0000                     gettword	macro	val,pos
    43                           	(((val) >> (8 * pos)) and 0xffffff)
    44                           endm
    45  0000                     tword0	macro	val
    46                           	(gettword(val,0))
    47                           endm
    48  0000                     tword1	macro	val
    49                           	(gettword(val,3))
    50                           endm
    51  0000                     tword2	macro	val
    52                           	(gettword(val,6))
    53                           endm
    54  0000                     getdword	macro	val,pos
    55                           	(((val) >> (8 * pos)) and 0xffffffff)
    56                           endm
    57  0000                     dword0	macro	val
    58                           	(getdword(val,0))
    59                           endm
    60  0000                     dword1	macro	val
    61                           	(getdword(val,4))
    62                           endm
    63  0000                     clrc   macro
    64                           	bcf	status,0
    65                           endm
    66  0000                     setc   macro
    67                           	bsf	status,0
    68                           endm
    69  0000                     clrz   macro
    70                           	bcf	status,2
    71                           endm
    72  0000                     setz   macro
    73                           	bsf	status,2
    74                           endm
    75  0000                     skipnz macro
    76                           	btfsc	status,2
    77                           endm
    78  0000                     skipz  macro
    79                           	btfss	status,2
    80                           endm
    81  0000                     skipnc macro
    82                           	btfsc	status,0
    83                           endm
    84  0000                     skipc  macro
    85                           	btfss	status,0
    86                           endm
    87  0000                     pushw macro
    88                           	movwf postinc1
    89                           endm
    90  0000                     pushf macro arg1
    91                           	movff arg1, postinc1
    92                           endm
    93  0000                     popw macro
    94                           	movf postdec1,f
    95                           	movf indf1,w
    96                           endm
    97  0000                     popf macro arg1
    98                           	movf postdec1,f
    99                           	movff indf1,arg1
   100                           endm
   101  0000                     popfc macro arg1
   102                           	movff plusw1,arg1
   103                           	decfsz fsr1,f
   104                           endm
   105  0000                     	global	__ramtop
   106                           	global	__accesstop
   107                           # 54 "C:\Program Files (x86)\Microchip\xc8\v2.00\pic\include\pic18f4520.h"
   108                           PORTA equ 0F80h ;# 
   109  0000                     # 273 "C:\Program Files (x86)\Microchip\xc8\v2.00\pic\include\pic18f4520.h"
   110                           PORTB equ 0F81h ;# 
   111  0000                     # 452 "C:\Program Files (x86)\Microchip\xc8\v2.00\pic\include\pic18f4520.h"
   112                           PORTC equ 0F82h ;# 
   113  0000                     # 634 "C:\Program Files (x86)\Microchip\xc8\v2.00\pic\include\pic18f4520.h"
   114                           PORTD equ 0F83h ;# 
   115  0000                     # 776 "C:\Program Files (x86)\Microchip\xc8\v2.00\pic\include\pic18f4520.h"
   116                           PORTE equ 0F84h ;# 
   117  0000                     # 979 "C:\Program Files (x86)\Microchip\xc8\v2.00\pic\include\pic18f4520.h"
   118                           LATA equ 0F89h ;# 
   119  0000                     # 1091 "C:\Program Files (x86)\Microchip\xc8\v2.00\pic\include\pic18f4520.h"
   120                           LATB equ 0F8Ah ;# 
   121  0000                     # 1203 "C:\Program Files (x86)\Microchip\xc8\v2.00\pic\include\pic18f4520.h"
   122                           LATC equ 0F8Bh ;# 
   123  0000                     # 1315 "C:\Program Files (x86)\Microchip\xc8\v2.00\pic\include\pic18f4520.h"
   124                           LATD equ 0F8Ch ;# 
   125  0000                     # 1427 "C:\Program Files (x86)\Microchip\xc8\v2.00\pic\include\pic18f4520.h"
   126                           LATE equ 0F8Dh ;# 
   127  0000                     # 1479 "C:\Program Files (x86)\Microchip\xc8\v2.00\pic\include\pic18f4520.h"
   128                           TRISA equ 0F92h ;# 
   129  0000                     # 1484 "C:\Program Files (x86)\Microchip\xc8\v2.00\pic\include\pic18f4520.h"
   130                           DDRA equ 0F92h ;# 
   131  0000                     # 1701 "C:\Program Files (x86)\Microchip\xc8\v2.00\pic\include\pic18f4520.h"
   132                           TRISB equ 0F93h ;# 
   133  0000                     # 1706 "C:\Program Files (x86)\Microchip\xc8\v2.00\pic\include\pic18f4520.h"
   134                           DDRB equ 0F93h ;# 
   135  0000                     # 1923 "C:\Program Files (x86)\Microchip\xc8\v2.00\pic\include\pic18f4520.h"
   136                           TRISC equ 0F94h ;# 
   137  0000                     # 1928 "C:\Program Files (x86)\Microchip\xc8\v2.00\pic\include\pic18f4520.h"
   138                           DDRC equ 0F94h ;# 
   139  0000                     # 2145 "C:\Program Files (x86)\Microchip\xc8\v2.00\pic\include\pic18f4520.h"
   140                           TRISD equ 0F95h ;# 
   141  0000                     # 2150 "C:\Program Files (x86)\Microchip\xc8\v2.00\pic\include\pic18f4520.h"
   142                           DDRD equ 0F95h ;# 
   143  0000                     # 2367 "C:\Program Files (x86)\Microchip\xc8\v2.00\pic\include\pic18f4520.h"
   144                           TRISE equ 0F96h ;# 
   145  0000                     # 2372 "C:\Program Files (x86)\Microchip\xc8\v2.00\pic\include\pic18f4520.h"
   146                           DDRE equ 0F96h ;# 
   147  0000                     # 2531 "C:\Program Files (x86)\Microchip\xc8\v2.00\pic\include\pic18f4520.h"
   148                           OSCTUNE equ 0F9Bh ;# 
   149  0000                     # 2596 "C:\Program Files (x86)\Microchip\xc8\v2.00\pic\include\pic18f4520.h"
   150                           PIE1 equ 0F9Dh ;# 
   151  0000                     # 2673 "C:\Program Files (x86)\Microchip\xc8\v2.00\pic\include\pic18f4520.h"
   152                           PIR1 equ 0F9Eh ;# 
   153  0000                     # 2750 "C:\Program Files (x86)\Microchip\xc8\v2.00\pic\include\pic18f4520.h"
   154                           IPR1 equ 0F9Fh ;# 
   155  0000                     # 2827 "C:\Program Files (x86)\Microchip\xc8\v2.00\pic\include\pic18f4520.h"
   156                           PIE2 equ 0FA0h ;# 
   157  0000                     # 2893 "C:\Program Files (x86)\Microchip\xc8\v2.00\pic\include\pic18f4520.h"
   158                           PIR2 equ 0FA1h ;# 
   159  0000                     # 2959 "C:\Program Files (x86)\Microchip\xc8\v2.00\pic\include\pic18f4520.h"
   160                           IPR2 equ 0FA2h ;# 
   161  0000                     # 3025 "C:\Program Files (x86)\Microchip\xc8\v2.00\pic\include\pic18f4520.h"
   162                           EECON1 equ 0FA6h ;# 
   163  0000                     # 3091 "C:\Program Files (x86)\Microchip\xc8\v2.00\pic\include\pic18f4520.h"
   164                           EECON2 equ 0FA7h ;# 
   165  0000                     # 3098 "C:\Program Files (x86)\Microchip\xc8\v2.00\pic\include\pic18f4520.h"
   166                           EEDATA equ 0FA8h ;# 
   167  0000                     # 3105 "C:\Program Files (x86)\Microchip\xc8\v2.00\pic\include\pic18f4520.h"
   168                           EEADR equ 0FA9h ;# 
   169  0000                     # 3112 "C:\Program Files (x86)\Microchip\xc8\v2.00\pic\include\pic18f4520.h"
   170                           RCSTA equ 0FABh ;# 
   171  0000                     # 3117 "C:\Program Files (x86)\Microchip\xc8\v2.00\pic\include\pic18f4520.h"
   172                           RCSTA1 equ 0FABh ;# 
   173  0000                     # 3322 "C:\Program Files (x86)\Microchip\xc8\v2.00\pic\include\pic18f4520.h"
   174                           TXSTA equ 0FACh ;# 
   175  0000                     # 3327 "C:\Program Files (x86)\Microchip\xc8\v2.00\pic\include\pic18f4520.h"
   176                           TXSTA1 equ 0FACh ;# 
   177  0000                     # 3578 "C:\Program Files (x86)\Microchip\xc8\v2.00\pic\include\pic18f4520.h"
   178                           TXREG equ 0FADh ;# 
   179  0000                     # 3583 "C:\Program Files (x86)\Microchip\xc8\v2.00\pic\include\pic18f4520.h"
   180                           TXREG1 equ 0FADh ;# 
   181  0000                     # 3590 "C:\Program Files (x86)\Microchip\xc8\v2.00\pic\include\pic18f4520.h"
   182                           RCREG equ 0FAEh ;# 
   183  0000                     # 3595 "C:\Program Files (x86)\Microchip\xc8\v2.00\pic\include\pic18f4520.h"
   184                           RCREG1 equ 0FAEh ;# 
   185  0000                     # 3602 "C:\Program Files (x86)\Microchip\xc8\v2.00\pic\include\pic18f4520.h"
   186                           SPBRG equ 0FAFh ;# 
   187  0000                     # 3607 "C:\Program Files (x86)\Microchip\xc8\v2.00\pic\include\pic18f4520.h"
   188                           SPBRG1 equ 0FAFh ;# 
   189  0000                     # 3614 "C:\Program Files (x86)\Microchip\xc8\v2.00\pic\include\pic18f4520.h"
   190                           SPBRGH equ 0FB0h ;# 
   191  0000                     # 3621 "C:\Program Files (x86)\Microchip\xc8\v2.00\pic\include\pic18f4520.h"
   192                           T3CON equ 0FB1h ;# 
   193  0000                     # 3733 "C:\Program Files (x86)\Microchip\xc8\v2.00\pic\include\pic18f4520.h"
   194                           TMR3 equ 0FB2h ;# 
   195  0000                     # 3740 "C:\Program Files (x86)\Microchip\xc8\v2.00\pic\include\pic18f4520.h"
   196                           TMR3L equ 0FB2h ;# 
   197  0000                     # 3747 "C:\Program Files (x86)\Microchip\xc8\v2.00\pic\include\pic18f4520.h"
   198                           TMR3H equ 0FB3h ;# 
   199  0000                     # 3754 "C:\Program Files (x86)\Microchip\xc8\v2.00\pic\include\pic18f4520.h"
   200                           CMCON equ 0FB4h ;# 
   201  0000                     # 3844 "C:\Program Files (x86)\Microchip\xc8\v2.00\pic\include\pic18f4520.h"
   202                           CVRCON equ 0FB5h ;# 
   203  0000                     # 3923 "C:\Program Files (x86)\Microchip\xc8\v2.00\pic\include\pic18f4520.h"
   204                           ECCP1AS equ 0FB6h ;# 
   205  0000                     # 3928 "C:\Program Files (x86)\Microchip\xc8\v2.00\pic\include\pic18f4520.h"
   206                           ECCPAS equ 0FB6h ;# 
   207  0000                     # 4085 "C:\Program Files (x86)\Microchip\xc8\v2.00\pic\include\pic18f4520.h"
   208                           PWM1CON equ 0FB7h ;# 
   209  0000                     # 4090 "C:\Program Files (x86)\Microchip\xc8\v2.00\pic\include\pic18f4520.h"
   210                           ECCP1DEL equ 0FB7h ;# 
   211  0000                     # 4223 "C:\Program Files (x86)\Microchip\xc8\v2.00\pic\include\pic18f4520.h"
   212                           BAUDCON equ 0FB8h ;# 
   213  0000                     # 4228 "C:\Program Files (x86)\Microchip\xc8\v2.00\pic\include\pic18f4520.h"
   214                           BAUDCTL equ 0FB8h ;# 
   215  0000                     # 4403 "C:\Program Files (x86)\Microchip\xc8\v2.00\pic\include\pic18f4520.h"
   216                           CCP2CON equ 0FBAh ;# 
   217  0000                     # 4482 "C:\Program Files (x86)\Microchip\xc8\v2.00\pic\include\pic18f4520.h"
   218                           CCPR2 equ 0FBBh ;# 
   219  0000                     # 4489 "C:\Program Files (x86)\Microchip\xc8\v2.00\pic\include\pic18f4520.h"
   220                           CCPR2L equ 0FBBh ;# 
   221  0000                     # 4496 "C:\Program Files (x86)\Microchip\xc8\v2.00\pic\include\pic18f4520.h"
   222                           CCPR2H equ 0FBCh ;# 
   223  0000                     # 4503 "C:\Program Files (x86)\Microchip\xc8\v2.00\pic\include\pic18f4520.h"
   224                           CCP1CON equ 0FBDh ;# 
   225  0000                     # 4600 "C:\Program Files (x86)\Microchip\xc8\v2.00\pic\include\pic18f4520.h"
   226                           CCPR1 equ 0FBEh ;# 
   227  0000                     # 4607 "C:\Program Files (x86)\Microchip\xc8\v2.00\pic\include\pic18f4520.h"
   228                           CCPR1L equ 0FBEh ;# 
   229  0000                     # 4614 "C:\Program Files (x86)\Microchip\xc8\v2.00\pic\include\pic18f4520.h"
   230                           CCPR1H equ 0FBFh ;# 
   231  0000                     # 4621 "C:\Program Files (x86)\Microchip\xc8\v2.00\pic\include\pic18f4520.h"
   232                           ADCON2 equ 0FC0h ;# 
   233  0000                     # 4692 "C:\Program Files (x86)\Microchip\xc8\v2.00\pic\include\pic18f4520.h"
   234                           ADCON1 equ 0FC1h ;# 
   235  0000                     # 4777 "C:\Program Files (x86)\Microchip\xc8\v2.00\pic\include\pic18f4520.h"
   236                           ADCON0 equ 0FC2h ;# 
   237  0000                     # 4896 "C:\Program Files (x86)\Microchip\xc8\v2.00\pic\include\pic18f4520.h"
   238                           ADRES equ 0FC3h ;# 
   239  0000                     # 4903 "C:\Program Files (x86)\Microchip\xc8\v2.00\pic\include\pic18f4520.h"
   240                           ADRESL equ 0FC3h ;# 
   241  0000                     # 4910 "C:\Program Files (x86)\Microchip\xc8\v2.00\pic\include\pic18f4520.h"
   242                           ADRESH equ 0FC4h ;# 
   243  0000                     # 4917 "C:\Program Files (x86)\Microchip\xc8\v2.00\pic\include\pic18f4520.h"
   244                           SSPCON2 equ 0FC5h ;# 
   245  0000                     # 5012 "C:\Program Files (x86)\Microchip\xc8\v2.00\pic\include\pic18f4520.h"
   246                           SSPCON1 equ 0FC6h ;# 
   247  0000                     # 5082 "C:\Program Files (x86)\Microchip\xc8\v2.00\pic\include\pic18f4520.h"
   248                           SSPSTAT equ 0FC7h ;# 
   249  0000                     # 5303 "C:\Program Files (x86)\Microchip\xc8\v2.00\pic\include\pic18f4520.h"
   250                           SSPADD equ 0FC8h ;# 
   251  0000                     # 5310 "C:\Program Files (x86)\Microchip\xc8\v2.00\pic\include\pic18f4520.h"
   252                           SSPBUF equ 0FC9h ;# 
   253  0000                     # 5317 "C:\Program Files (x86)\Microchip\xc8\v2.00\pic\include\pic18f4520.h"
   254                           T2CON equ 0FCAh ;# 
   255  0000                     # 5415 "C:\Program Files (x86)\Microchip\xc8\v2.00\pic\include\pic18f4520.h"
   256                           PR2 equ 0FCBh ;# 
   257  0000                     # 5420 "C:\Program Files (x86)\Microchip\xc8\v2.00\pic\include\pic18f4520.h"
   258                           MEMCON equ 0FCBh ;# 
   259  0000                     # 5525 "C:\Program Files (x86)\Microchip\xc8\v2.00\pic\include\pic18f4520.h"
   260                           TMR2 equ 0FCCh ;# 
   261  0000                     # 5532 "C:\Program Files (x86)\Microchip\xc8\v2.00\pic\include\pic18f4520.h"
   262                           T1CON equ 0FCDh ;# 
   263  0000                     # 5635 "C:\Program Files (x86)\Microchip\xc8\v2.00\pic\include\pic18f4520.h"
   264                           TMR1 equ 0FCEh ;# 
   265  0000                     # 5642 "C:\Program Files (x86)\Microchip\xc8\v2.00\pic\include\pic18f4520.h"
   266                           TMR1L equ 0FCEh ;# 
   267  0000                     # 5649 "C:\Program Files (x86)\Microchip\xc8\v2.00\pic\include\pic18f4520.h"
   268                           TMR1H equ 0FCFh ;# 
   269  0000                     # 5656 "C:\Program Files (x86)\Microchip\xc8\v2.00\pic\include\pic18f4520.h"
   270                           RCON equ 0FD0h ;# 
   271  0000                     # 5789 "C:\Program Files (x86)\Microchip\xc8\v2.00\pic\include\pic18f4520.h"
   272                           WDTCON equ 0FD1h ;# 
   273  0000                     # 5817 "C:\Program Files (x86)\Microchip\xc8\v2.00\pic\include\pic18f4520.h"
   274                           HLVDCON equ 0FD2h ;# 
   275  0000                     # 5822 "C:\Program Files (x86)\Microchip\xc8\v2.00\pic\include\pic18f4520.h"
   276                           LVDCON equ 0FD2h ;# 
   277  0000                     # 6087 "C:\Program Files (x86)\Microchip\xc8\v2.00\pic\include\pic18f4520.h"
   278                           OSCCON equ 0FD3h ;# 
   279  0000                     # 6170 "C:\Program Files (x86)\Microchip\xc8\v2.00\pic\include\pic18f4520.h"
   280                           T0CON equ 0FD5h ;# 
   281  0000                     # 6253 "C:\Program Files (x86)\Microchip\xc8\v2.00\pic\include\pic18f4520.h"
   282                           TMR0 equ 0FD6h ;# 
   283  0000                     # 6260 "C:\Program Files (x86)\Microchip\xc8\v2.00\pic\include\pic18f4520.h"
   284                           TMR0L equ 0FD6h ;# 
   285  0000                     # 6267 "C:\Program Files (x86)\Microchip\xc8\v2.00\pic\include\pic18f4520.h"
   286                           TMR0H equ 0FD7h ;# 
   287  0000                     # 6274 "C:\Program Files (x86)\Microchip\xc8\v2.00\pic\include\pic18f4520.h"
   288                           STATUS equ 0FD8h ;# 
   289  0000                     # 6345 "C:\Program Files (x86)\Microchip\xc8\v2.00\pic\include\pic18f4520.h"
   290                           FSR2 equ 0FD9h ;# 
   291  0000                     # 6352 "C:\Program Files (x86)\Microchip\xc8\v2.00\pic\include\pic18f4520.h"
   292                           FSR2L equ 0FD9h ;# 
   293  0000                     # 6359 "C:\Program Files (x86)\Microchip\xc8\v2.00\pic\include\pic18f4520.h"
   294                           FSR2H equ 0FDAh ;# 
   295  0000                     # 6366 "C:\Program Files (x86)\Microchip\xc8\v2.00\pic\include\pic18f4520.h"
   296                           PLUSW2 equ 0FDBh ;# 
   297  0000                     # 6373 "C:\Program Files (x86)\Microchip\xc8\v2.00\pic\include\pic18f4520.h"
   298                           PREINC2 equ 0FDCh ;# 
   299  0000                     # 6380 "C:\Program Files (x86)\Microchip\xc8\v2.00\pic\include\pic18f4520.h"
   300                           POSTDEC2 equ 0FDDh ;# 
   301  0000                     # 6387 "C:\Program Files (x86)\Microchip\xc8\v2.00\pic\include\pic18f4520.h"
   302                           POSTINC2 equ 0FDEh ;# 
   303  0000                     # 6394 "C:\Program Files (x86)\Microchip\xc8\v2.00\pic\include\pic18f4520.h"
   304                           INDF2 equ 0FDFh ;# 
   305  0000                     # 6401 "C:\Program Files (x86)\Microchip\xc8\v2.00\pic\include\pic18f4520.h"
   306                           BSR equ 0FE0h ;# 
   307  0000                     # 6408 "C:\Program Files (x86)\Microchip\xc8\v2.00\pic\include\pic18f4520.h"
   308                           FSR1 equ 0FE1h ;# 
   309  0000                     # 6415 "C:\Program Files (x86)\Microchip\xc8\v2.00\pic\include\pic18f4520.h"
   310                           FSR1L equ 0FE1h ;# 
   311  0000                     # 6422 "C:\Program Files (x86)\Microchip\xc8\v2.00\pic\include\pic18f4520.h"
   312                           FSR1H equ 0FE2h ;# 
   313  0000                     # 6429 "C:\Program Files (x86)\Microchip\xc8\v2.00\pic\include\pic18f4520.h"
   314                           PLUSW1 equ 0FE3h ;# 
   315  0000                     # 6436 "C:\Program Files (x86)\Microchip\xc8\v2.00\pic\include\pic18f4520.h"
   316                           PREINC1 equ 0FE4h ;# 
   317  0000                     # 6443 "C:\Program Files (x86)\Microchip\xc8\v2.00\pic\include\pic18f4520.h"
   318                           POSTDEC1 equ 0FE5h ;# 
   319  0000                     # 6450 "C:\Program Files (x86)\Microchip\xc8\v2.00\pic\include\pic18f4520.h"
   320                           POSTINC1 equ 0FE6h ;# 
   321  0000                     # 6457 "C:\Program Files (x86)\Microchip\xc8\v2.00\pic\include\pic18f4520.h"
   322                           INDF1 equ 0FE7h ;# 
   323  0000                     # 6464 "C:\Program Files (x86)\Microchip\xc8\v2.00\pic\include\pic18f4520.h"
   324                           WREG equ 0FE8h ;# 
   325  0000                     # 6476 "C:\Program Files (x86)\Microchip\xc8\v2.00\pic\include\pic18f4520.h"
   326                           FSR0 equ 0FE9h ;# 
   327  0000                     # 6483 "C:\Program Files (x86)\Microchip\xc8\v2.00\pic\include\pic18f4520.h"
   328                           FSR0L equ 0FE9h ;# 
   329  0000                     # 6490 "C:\Program Files (x86)\Microchip\xc8\v2.00\pic\include\pic18f4520.h"
   330                           FSR0H equ 0FEAh ;# 
   331  0000                     # 6497 "C:\Program Files (x86)\Microchip\xc8\v2.00\pic\include\pic18f4520.h"
   332                           PLUSW0 equ 0FEBh ;# 
   333  0000                     # 6504 "C:\Program Files (x86)\Microchip\xc8\v2.00\pic\include\pic18f4520.h"
   334                           PREINC0 equ 0FECh ;# 
   335  0000                     # 6511 "C:\Program Files (x86)\Microchip\xc8\v2.00\pic\include\pic18f4520.h"
   336                           POSTDEC0 equ 0FEDh ;# 
   337  0000                     # 6518 "C:\Program Files (x86)\Microchip\xc8\v2.00\pic\include\pic18f4520.h"
   338                           POSTINC0 equ 0FEEh ;# 
   339  0000                     # 6525 "C:\Program Files (x86)\Microchip\xc8\v2.00\pic\include\pic18f4520.h"
   340                           INDF0 equ 0FEFh ;# 
   341  0000                     # 6532 "C:\Program Files (x86)\Microchip\xc8\v2.00\pic\include\pic18f4520.h"
   342                           INTCON3 equ 0FF0h ;# 
   343  0000                     # 6624 "C:\Program Files (x86)\Microchip\xc8\v2.00\pic\include\pic18f4520.h"
   344                           INTCON2 equ 0FF1h ;# 
   345  0000                     # 6694 "C:\Program Files (x86)\Microchip\xc8\v2.00\pic\include\pic18f4520.h"
   346                           INTCON equ 0FF2h ;# 
   347  0000                     # 6811 "C:\Program Files (x86)\Microchip\xc8\v2.00\pic\include\pic18f4520.h"
   348                           PROD equ 0FF3h ;# 
   349  0000                     # 6818 "C:\Program Files (x86)\Microchip\xc8\v2.00\pic\include\pic18f4520.h"
   350                           PRODL equ 0FF3h ;# 
   351  0000                     # 6825 "C:\Program Files (x86)\Microchip\xc8\v2.00\pic\include\pic18f4520.h"
   352                           PRODH equ 0FF4h ;# 
   353  0000                     # 6832 "C:\Program Files (x86)\Microchip\xc8\v2.00\pic\include\pic18f4520.h"
   354                           TABLAT equ 0FF5h ;# 
   355  0000                     # 6841 "C:\Program Files (x86)\Microchip\xc8\v2.00\pic\include\pic18f4520.h"
   356                           TBLPTR equ 0FF6h ;# 
   357  0000                     # 6848 "C:\Program Files (x86)\Microchip\xc8\v2.00\pic\include\pic18f4520.h"
   358                           TBLPTRL equ 0FF6h ;# 
   359  0000                     # 6855 "C:\Program Files (x86)\Microchip\xc8\v2.00\pic\include\pic18f4520.h"
   360                           TBLPTRH equ 0FF7h ;# 
   361  0000                     # 6862 "C:\Program Files (x86)\Microchip\xc8\v2.00\pic\include\pic18f4520.h"
   362                           TBLPTRU equ 0FF8h ;# 
   363  0000                     # 6871 "C:\Program Files (x86)\Microchip\xc8\v2.00\pic\include\pic18f4520.h"
   364                           PCLAT equ 0FF9h ;# 
   365  0000                     # 6878 "C:\Program Files (x86)\Microchip\xc8\v2.00\pic\include\pic18f4520.h"
   366                           PC equ 0FF9h ;# 
   367  0000                     # 6885 "C:\Program Files (x86)\Microchip\xc8\v2.00\pic\include\pic18f4520.h"
   368                           PCL equ 0FF9h ;# 
   369  0000                     # 6892 "C:\Program Files (x86)\Microchip\xc8\v2.00\pic\include\pic18f4520.h"
   370                           PCLATH equ 0FFAh ;# 
   371  0000                     # 6899 "C:\Program Files (x86)\Microchip\xc8\v2.00\pic\include\pic18f4520.h"
   372                           PCLATU equ 0FFBh ;# 
   373  0000                     # 6906 "C:\Program Files (x86)\Microchip\xc8\v2.00\pic\include\pic18f4520.h"
   374                           STKPTR equ 0FFCh ;# 
   375  0000                     # 6980 "C:\Program Files (x86)\Microchip\xc8\v2.00\pic\include\pic18f4520.h"
   376                           TOS equ 0FFDh ;# 
   377  0000                     # 6987 "C:\Program Files (x86)\Microchip\xc8\v2.00\pic\include\pic18f4520.h"
   378                           TOSL equ 0FFDh ;# 
   379  0000                     # 6994 "C:\Program Files (x86)\Microchip\xc8\v2.00\pic\include\pic18f4520.h"
   380                           TOSH equ 0FFEh ;# 
   381  0000                     # 7001 "C:\Program Files (x86)\Microchip\xc8\v2.00\pic\include\pic18f4520.h"
   382                           TOSU equ 0FFFh ;# 
   383  0000                     # 54 "C:\Program Files (x86)\Microchip\xc8\v2.00\pic\include\pic18f4520.h"
   384                           PORTA equ 0F80h ;# 
   385  0000                     # 273 "C:\Program Files (x86)\Microchip\xc8\v2.00\pic\include\pic18f4520.h"
   386                           PORTB equ 0F81h ;# 
   387  0000                     # 452 "C:\Program Files (x86)\Microchip\xc8\v2.00\pic\include\pic18f4520.h"
   388                           PORTC equ 0F82h ;# 
   389  0000                     # 634 "C:\Program Files (x86)\Microchip\xc8\v2.00\pic\include\pic18f4520.h"
   390                           PORTD equ 0F83h ;# 
   391  0000                     # 776 "C:\Program Files (x86)\Microchip\xc8\v2.00\pic\include\pic18f4520.h"
   392                           PORTE equ 0F84h ;# 
   393  0000                     # 979 "C:\Program Files (x86)\Microchip\xc8\v2.00\pic\include\pic18f4520.h"
   394                           LATA equ 0F89h ;# 
   395  0000                     # 1091 "C:\Program Files (x86)\Microchip\xc8\v2.00\pic\include\pic18f4520.h"
   396                           LATB equ 0F8Ah ;# 
   397  0000                     # 1203 "C:\Program Files (x86)\Microchip\xc8\v2.00\pic\include\pic18f4520.h"
   398                           LATC equ 0F8Bh ;# 
   399  0000                     # 1315 "C:\Program Files (x86)\Microchip\xc8\v2.00\pic\include\pic18f4520.h"
   400                           LATD equ 0F8Ch ;# 
   401  0000                     # 1427 "C:\Program Files (x86)\Microchip\xc8\v2.00\pic\include\pic18f4520.h"
   402                           LATE equ 0F8Dh ;# 
   403  0000                     # 1479 "C:\Program Files (x86)\Microchip\xc8\v2.00\pic\include\pic18f4520.h"
   404                           TRISA equ 0F92h ;# 
   405  0000                     # 1484 "C:\Program Files (x86)\Microchip\xc8\v2.00\pic\include\pic18f4520.h"
   406                           DDRA equ 0F92h ;# 
   407  0000                     # 1701 "C:\Program Files (x86)\Microchip\xc8\v2.00\pic\include\pic18f4520.h"
   408                           TRISB equ 0F93h ;# 
   409  0000                     # 1706 "C:\Program Files (x86)\Microchip\xc8\v2.00\pic\include\pic18f4520.h"
   410                           DDRB equ 0F93h ;# 
   411  0000                     # 1923 "C:\Program Files (x86)\Microchip\xc8\v2.00\pic\include\pic18f4520.h"
   412                           TRISC equ 0F94h ;# 
   413  0000                     # 1928 "C:\Program Files (x86)\Microchip\xc8\v2.00\pic\include\pic18f4520.h"
   414                           DDRC equ 0F94h ;# 
   415  0000                     # 2145 "C:\Program Files (x86)\Microchip\xc8\v2.00\pic\include\pic18f4520.h"
   416                           TRISD equ 0F95h ;# 
   417  0000                     # 2150 "C:\Program Files (x86)\Microchip\xc8\v2.00\pic\include\pic18f4520.h"
   418                           DDRD equ 0F95h ;# 
   419  0000                     # 2367 "C:\Program Files (x86)\Microchip\xc8\v2.00\pic\include\pic18f4520.h"
   420                           TRISE equ 0F96h ;# 
   421  0000                     # 2372 "C:\Program Files (x86)\Microchip\xc8\v2.00\pic\include\pic18f4520.h"
   422                           DDRE equ 0F96h ;# 
   423  0000                     # 2531 "C:\Program Files (x86)\Microchip\xc8\v2.00\pic\include\pic18f4520.h"
   424                           OSCTUNE equ 0F9Bh ;# 
   425  0000                     # 2596 "C:\Program Files (x86)\Microchip\xc8\v2.00\pic\include\pic18f4520.h"
   426                           PIE1 equ 0F9Dh ;# 
   427  0000                     # 2673 "C:\Program Files (x86)\Microchip\xc8\v2.00\pic\include\pic18f4520.h"
   428                           PIR1 equ 0F9Eh ;# 
   429  0000                     # 2750 "C:\Program Files (x86)\Microchip\xc8\v2.00\pic\include\pic18f4520.h"
   430                           IPR1 equ 0F9Fh ;# 
   431  0000                     # 2827 "C:\Program Files (x86)\Microchip\xc8\v2.00\pic\include\pic18f4520.h"
   432                           PIE2 equ 0FA0h ;# 
   433  0000                     # 2893 "C:\Program Files (x86)\Microchip\xc8\v2.00\pic\include\pic18f4520.h"
   434                           PIR2 equ 0FA1h ;# 
   435  0000                     # 2959 "C:\Program Files (x86)\Microchip\xc8\v2.00\pic\include\pic18f4520.h"
   436                           IPR2 equ 0FA2h ;# 
   437  0000                     # 3025 "C:\Program Files (x86)\Microchip\xc8\v2.00\pic\include\pic18f4520.h"
   438                           EECON1 equ 0FA6h ;# 
   439  0000                     # 3091 "C:\Program Files (x86)\Microchip\xc8\v2.00\pic\include\pic18f4520.h"
   440                           EECON2 equ 0FA7h ;# 
   441  0000                     # 3098 "C:\Program Files (x86)\Microchip\xc8\v2.00\pic\include\pic18f4520.h"
   442                           EEDATA equ 0FA8h ;# 
   443  0000                     # 3105 "C:\Program Files (x86)\Microchip\xc8\v2.00\pic\include\pic18f4520.h"
   444                           EEADR equ 0FA9h ;# 
   445  0000                     # 3112 "C:\Program Files (x86)\Microchip\xc8\v2.00\pic\include\pic18f4520.h"
   446                           RCSTA equ 0FABh ;# 
   447  0000                     # 3117 "C:\Program Files (x86)\Microchip\xc8\v2.00\pic\include\pic18f4520.h"
   448                           RCSTA1 equ 0FABh ;# 
   449  0000                     # 3322 "C:\Program Files (x86)\Microchip\xc8\v2.00\pic\include\pic18f4520.h"
   450                           TXSTA equ 0FACh ;# 
   451  0000                     # 3327 "C:\Program Files (x86)\Microchip\xc8\v2.00\pic\include\pic18f4520.h"
   452                           TXSTA1 equ 0FACh ;# 
   453  0000                     # 3578 "C:\Program Files (x86)\Microchip\xc8\v2.00\pic\include\pic18f4520.h"
   454                           TXREG equ 0FADh ;# 
   455  0000                     # 3583 "C:\Program Files (x86)\Microchip\xc8\v2.00\pic\include\pic18f4520.h"
   456                           TXREG1 equ 0FADh ;# 
   457  0000                     # 3590 "C:\Program Files (x86)\Microchip\xc8\v2.00\pic\include\pic18f4520.h"
   458                           RCREG equ 0FAEh ;# 
   459  0000                     # 3595 "C:\Program Files (x86)\Microchip\xc8\v2.00\pic\include\pic18f4520.h"
   460                           RCREG1 equ 0FAEh ;# 
   461  0000                     # 3602 "C:\Program Files (x86)\Microchip\xc8\v2.00\pic\include\pic18f4520.h"
   462                           SPBRG equ 0FAFh ;# 
   463  0000                     # 3607 "C:\Program Files (x86)\Microchip\xc8\v2.00\pic\include\pic18f4520.h"
   464                           SPBRG1 equ 0FAFh ;# 
   465  0000                     # 3614 "C:\Program Files (x86)\Microchip\xc8\v2.00\pic\include\pic18f4520.h"
   466                           SPBRGH equ 0FB0h ;# 
   467  0000                     # 3621 "C:\Program Files (x86)\Microchip\xc8\v2.00\pic\include\pic18f4520.h"
   468                           T3CON equ 0FB1h ;# 
   469  0000                     # 3733 "C:\Program Files (x86)\Microchip\xc8\v2.00\pic\include\pic18f4520.h"
   470                           TMR3 equ 0FB2h ;# 
   471  0000                     # 3740 "C:\Program Files (x86)\Microchip\xc8\v2.00\pic\include\pic18f4520.h"
   472                           TMR3L equ 0FB2h ;# 
   473  0000                     # 3747 "C:\Program Files (x86)\Microchip\xc8\v2.00\pic\include\pic18f4520.h"
   474                           TMR3H equ 0FB3h ;# 
   475  0000                     # 3754 "C:\Program Files (x86)\Microchip\xc8\v2.00\pic\include\pic18f4520.h"
   476                           CMCON equ 0FB4h ;# 
   477  0000                     # 3844 "C:\Program Files (x86)\Microchip\xc8\v2.00\pic\include\pic18f4520.h"
   478                           CVRCON equ 0FB5h ;# 
   479  0000                     # 3923 "C:\Program Files (x86)\Microchip\xc8\v2.00\pic\include\pic18f4520.h"
   480                           ECCP1AS equ 0FB6h ;# 
   481  0000                     # 3928 "C:\Program Files (x86)\Microchip\xc8\v2.00\pic\include\pic18f4520.h"
   482                           ECCPAS equ 0FB6h ;# 
   483  0000                     # 4085 "C:\Program Files (x86)\Microchip\xc8\v2.00\pic\include\pic18f4520.h"
   484                           PWM1CON equ 0FB7h ;# 
   485  0000                     # 4090 "C:\Program Files (x86)\Microchip\xc8\v2.00\pic\include\pic18f4520.h"
   486                           ECCP1DEL equ 0FB7h ;# 
   487  0000                     # 4223 "C:\Program Files (x86)\Microchip\xc8\v2.00\pic\include\pic18f4520.h"
   488                           BAUDCON equ 0FB8h ;# 
   489  0000                     # 4228 "C:\Program Files (x86)\Microchip\xc8\v2.00\pic\include\pic18f4520.h"
   490                           BAUDCTL equ 0FB8h ;# 
   491  0000                     # 4403 "C:\Program Files (x86)\Microchip\xc8\v2.00\pic\include\pic18f4520.h"
   492                           CCP2CON equ 0FBAh ;# 
   493  0000                     # 4482 "C:\Program Files (x86)\Microchip\xc8\v2.00\pic\include\pic18f4520.h"
   494                           CCPR2 equ 0FBBh ;# 
   495  0000                     # 4489 "C:\Program Files (x86)\Microchip\xc8\v2.00\pic\include\pic18f4520.h"
   496                           CCPR2L equ 0FBBh ;# 
   497  0000                     # 4496 "C:\Program Files (x86)\Microchip\xc8\v2.00\pic\include\pic18f4520.h"
   498                           CCPR2H equ 0FBCh ;# 
   499  0000                     # 4503 "C:\Program Files (x86)\Microchip\xc8\v2.00\pic\include\pic18f4520.h"
   500                           CCP1CON equ 0FBDh ;# 
   501  0000                     # 4600 "C:\Program Files (x86)\Microchip\xc8\v2.00\pic\include\pic18f4520.h"
   502                           CCPR1 equ 0FBEh ;# 
   503  0000                     # 4607 "C:\Program Files (x86)\Microchip\xc8\v2.00\pic\include\pic18f4520.h"
   504                           CCPR1L equ 0FBEh ;# 
   505  0000                     # 4614 "C:\Program Files (x86)\Microchip\xc8\v2.00\pic\include\pic18f4520.h"
   506                           CCPR1H equ 0FBFh ;# 
   507  0000                     # 4621 "C:\Program Files (x86)\Microchip\xc8\v2.00\pic\include\pic18f4520.h"
   508                           ADCON2 equ 0FC0h ;# 
   509  0000                     # 4692 "C:\Program Files (x86)\Microchip\xc8\v2.00\pic\include\pic18f4520.h"
   510                           ADCON1 equ 0FC1h ;# 
   511  0000                     # 4777 "C:\Program Files (x86)\Microchip\xc8\v2.00\pic\include\pic18f4520.h"
   512                           ADCON0 equ 0FC2h ;# 
   513  0000                     # 4896 "C:\Program Files (x86)\Microchip\xc8\v2.00\pic\include\pic18f4520.h"
   514                           ADRES equ 0FC3h ;# 
   515  0000                     # 4903 "C:\Program Files (x86)\Microchip\xc8\v2.00\pic\include\pic18f4520.h"
   516                           ADRESL equ 0FC3h ;# 
   517  0000                     # 4910 "C:\Program Files (x86)\Microchip\xc8\v2.00\pic\include\pic18f4520.h"
   518                           ADRESH equ 0FC4h ;# 
   519  0000                     # 4917 "C:\Program Files (x86)\Microchip\xc8\v2.00\pic\include\pic18f4520.h"
   520                           SSPCON2 equ 0FC5h ;# 
   521  0000                     # 5012 "C:\Program Files (x86)\Microchip\xc8\v2.00\pic\include\pic18f4520.h"
   522                           SSPCON1 equ 0FC6h ;# 
   523  0000                     # 5082 "C:\Program Files (x86)\Microchip\xc8\v2.00\pic\include\pic18f4520.h"
   524                           SSPSTAT equ 0FC7h ;# 
   525  0000                     # 5303 "C:\Program Files (x86)\Microchip\xc8\v2.00\pic\include\pic18f4520.h"
   526                           SSPADD equ 0FC8h ;# 
   527  0000                     # 5310 "C:\Program Files (x86)\Microchip\xc8\v2.00\pic\include\pic18f4520.h"
   528                           SSPBUF equ 0FC9h ;# 
   529  0000                     # 5317 "C:\Program Files (x86)\Microchip\xc8\v2.00\pic\include\pic18f4520.h"
   530                           T2CON equ 0FCAh ;# 
   531  0000                     # 5415 "C:\Program Files (x86)\Microchip\xc8\v2.00\pic\include\pic18f4520.h"
   532                           PR2 equ 0FCBh ;# 
   533  0000                     # 5420 "C:\Program Files (x86)\Microchip\xc8\v2.00\pic\include\pic18f4520.h"
   534                           MEMCON equ 0FCBh ;# 
   535  0000                     # 5525 "C:\Program Files (x86)\Microchip\xc8\v2.00\pic\include\pic18f4520.h"
   536                           TMR2 equ 0FCCh ;# 
   537  0000                     # 5532 "C:\Program Files (x86)\Microchip\xc8\v2.00\pic\include\pic18f4520.h"
   538                           T1CON equ 0FCDh ;# 
   539  0000                     # 5635 "C:\Program Files (x86)\Microchip\xc8\v2.00\pic\include\pic18f4520.h"
   540                           TMR1 equ 0FCEh ;# 
   541  0000                     # 5642 "C:\Program Files (x86)\Microchip\xc8\v2.00\pic\include\pic18f4520.h"
   542                           TMR1L equ 0FCEh ;# 
   543  0000                     # 5649 "C:\Program Files (x86)\Microchip\xc8\v2.00\pic\include\pic18f4520.h"
   544                           TMR1H equ 0FCFh ;# 
   545  0000                     # 5656 "C:\Program Files (x86)\Microchip\xc8\v2.00\pic\include\pic18f4520.h"
   546                           RCON equ 0FD0h ;# 
   547  0000                     # 5789 "C:\Program Files (x86)\Microchip\xc8\v2.00\pic\include\pic18f4520.h"
   548                           WDTCON equ 0FD1h ;# 
   549  0000                     # 5817 "C:\Program Files (x86)\Microchip\xc8\v2.00\pic\include\pic18f4520.h"
   550                           HLVDCON equ 0FD2h ;# 
   551  0000                     # 5822 "C:\Program Files (x86)\Microchip\xc8\v2.00\pic\include\pic18f4520.h"
   552                           LVDCON equ 0FD2h ;# 
   553  0000                     # 6087 "C:\Program Files (x86)\Microchip\xc8\v2.00\pic\include\pic18f4520.h"
   554                           OSCCON equ 0FD3h ;# 
   555  0000                     # 6170 "C:\Program Files (x86)\Microchip\xc8\v2.00\pic\include\pic18f4520.h"
   556                           T0CON equ 0FD5h ;# 
   557  0000                     # 6253 "C:\Program Files (x86)\Microchip\xc8\v2.00\pic\include\pic18f4520.h"
   558                           TMR0 equ 0FD6h ;# 
   559  0000                     # 6260 "C:\Program Files (x86)\Microchip\xc8\v2.00\pic\include\pic18f4520.h"
   560                           TMR0L equ 0FD6h ;# 
   561  0000                     # 6267 "C:\Program Files (x86)\Microchip\xc8\v2.00\pic\include\pic18f4520.h"
   562                           TMR0H equ 0FD7h ;# 
   563  0000                     # 6274 "C:\Program Files (x86)\Microchip\xc8\v2.00\pic\include\pic18f4520.h"
   564                           STATUS equ 0FD8h ;# 
   565  0000                     # 6345 "C:\Program Files (x86)\Microchip\xc8\v2.00\pic\include\pic18f4520.h"
   566                           FSR2 equ 0FD9h ;# 
   567  0000                     # 6352 "C:\Program Files (x86)\Microchip\xc8\v2.00\pic\include\pic18f4520.h"
   568                           FSR2L equ 0FD9h ;# 
   569  0000                     # 6359 "C:\Program Files (x86)\Microchip\xc8\v2.00\pic\include\pic18f4520.h"
   570                           FSR2H equ 0FDAh ;# 
   571  0000                     # 6366 "C:\Program Files (x86)\Microchip\xc8\v2.00\pic\include\pic18f4520.h"
   572                           PLUSW2 equ 0FDBh ;# 
   573  0000                     # 6373 "C:\Program Files (x86)\Microchip\xc8\v2.00\pic\include\pic18f4520.h"
   574                           PREINC2 equ 0FDCh ;# 
   575  0000                     # 6380 "C:\Program Files (x86)\Microchip\xc8\v2.00\pic\include\pic18f4520.h"
   576                           POSTDEC2 equ 0FDDh ;# 
   577  0000                     # 6387 "C:\Program Files (x86)\Microchip\xc8\v2.00\pic\include\pic18f4520.h"
   578                           POSTINC2 equ 0FDEh ;# 
   579  0000                     # 6394 "C:\Program Files (x86)\Microchip\xc8\v2.00\pic\include\pic18f4520.h"
   580                           INDF2 equ 0FDFh ;# 
   581  0000                     # 6401 "C:\Program Files (x86)\Microchip\xc8\v2.00\pic\include\pic18f4520.h"
   582                           BSR equ 0FE0h ;# 
   583  0000                     # 6408 "C:\Program Files (x86)\Microchip\xc8\v2.00\pic\include\pic18f4520.h"
   584                           FSR1 equ 0FE1h ;# 
   585  0000                     # 6415 "C:\Program Files (x86)\Microchip\xc8\v2.00\pic\include\pic18f4520.h"
   586                           FSR1L equ 0FE1h ;# 
   587  0000                     # 6422 "C:\Program Files (x86)\Microchip\xc8\v2.00\pic\include\pic18f4520.h"
   588                           FSR1H equ 0FE2h ;# 
   589  0000                     # 6429 "C:\Program Files (x86)\Microchip\xc8\v2.00\pic\include\pic18f4520.h"
   590                           PLUSW1 equ 0FE3h ;# 
   591  0000                     # 6436 "C:\Program Files (x86)\Microchip\xc8\v2.00\pic\include\pic18f4520.h"
   592                           PREINC1 equ 0FE4h ;# 
   593  0000                     # 6443 "C:\Program Files (x86)\Microchip\xc8\v2.00\pic\include\pic18f4520.h"
   594                           POSTDEC1 equ 0FE5h ;# 
   595  0000                     # 6450 "C:\Program Files (x86)\Microchip\xc8\v2.00\pic\include\pic18f4520.h"
   596                           POSTINC1 equ 0FE6h ;# 
   597  0000                     # 6457 "C:\Program Files (x86)\Microchip\xc8\v2.00\pic\include\pic18f4520.h"
   598                           INDF1 equ 0FE7h ;# 
   599  0000                     # 6464 "C:\Program Files (x86)\Microchip\xc8\v2.00\pic\include\pic18f4520.h"
   600                           WREG equ 0FE8h ;# 
   601  0000                     # 6476 "C:\Program Files (x86)\Microchip\xc8\v2.00\pic\include\pic18f4520.h"
   602                           FSR0 equ 0FE9h ;# 
   603  0000                     # 6483 "C:\Program Files (x86)\Microchip\xc8\v2.00\pic\include\pic18f4520.h"
   604                           FSR0L equ 0FE9h ;# 
   605  0000                     # 6490 "C:\Program Files (x86)\Microchip\xc8\v2.00\pic\include\pic18f4520.h"
   606                           FSR0H equ 0FEAh ;# 
   607  0000                     # 6497 "C:\Program Files (x86)\Microchip\xc8\v2.00\pic\include\pic18f4520.h"
   608                           PLUSW0 equ 0FEBh ;# 
   609  0000                     # 6504 "C:\Program Files (x86)\Microchip\xc8\v2.00\pic\include\pic18f4520.h"
   610                           PREINC0 equ 0FECh ;# 
   611  0000                     # 6511 "C:\Program Files (x86)\Microchip\xc8\v2.00\pic\include\pic18f4520.h"
   612                           POSTDEC0 equ 0FEDh ;# 
   613  0000                     # 6518 "C:\Program Files (x86)\Microchip\xc8\v2.00\pic\include\pic18f4520.h"
   614                           POSTINC0 equ 0FEEh ;# 
   615  0000                     # 6525 "C:\Program Files (x86)\Microchip\xc8\v2.00\pic\include\pic18f4520.h"
   616                           INDF0 equ 0FEFh ;# 
   617  0000                     # 6532 "C:\Program Files (x86)\Microchip\xc8\v2.00\pic\include\pic18f4520.h"
   618                           INTCON3 equ 0FF0h ;# 
   619  0000                     # 6624 "C:\Program Files (x86)\Microchip\xc8\v2.00\pic\include\pic18f4520.h"
   620                           INTCON2 equ 0FF1h ;# 
   621  0000                     # 6694 "C:\Program Files (x86)\Microchip\xc8\v2.00\pic\include\pic18f4520.h"
   622                           INTCON equ 0FF2h ;# 
   623  0000                     # 6811 "C:\Program Files (x86)\Microchip\xc8\v2.00\pic\include\pic18f4520.h"
   624                           PROD equ 0FF3h ;# 
   625  0000                     # 6818 "C:\Program Files (x86)\Microchip\xc8\v2.00\pic\include\pic18f4520.h"
   626                           PRODL equ 0FF3h ;# 
   627  0000                     # 6825 "C:\Program Files (x86)\Microchip\xc8\v2.00\pic\include\pic18f4520.h"
   628                           PRODH equ 0FF4h ;# 
   629  0000                     # 6832 "C:\Program Files (x86)\Microchip\xc8\v2.00\pic\include\pic18f4520.h"
   630                           TABLAT equ 0FF5h ;# 
   631  0000                     # 6841 "C:\Program Files (x86)\Microchip\xc8\v2.00\pic\include\pic18f4520.h"
   632                           TBLPTR equ 0FF6h ;# 
   633  0000                     # 6848 "C:\Program Files (x86)\Microchip\xc8\v2.00\pic\include\pic18f4520.h"
   634                           TBLPTRL equ 0FF6h ;# 
   635  0000                     # 6855 "C:\Program Files (x86)\Microchip\xc8\v2.00\pic\include\pic18f4520.h"
   636                           TBLPTRH equ 0FF7h ;# 
   637  0000                     # 6862 "C:\Program Files (x86)\Microchip\xc8\v2.00\pic\include\pic18f4520.h"
   638                           TBLPTRU equ 0FF8h ;# 
   639  0000                     # 6871 "C:\Program Files (x86)\Microchip\xc8\v2.00\pic\include\pic18f4520.h"
   640                           PCLAT equ 0FF9h ;# 
   641  0000                     # 6878 "C:\Program Files (x86)\Microchip\xc8\v2.00\pic\include\pic18f4520.h"
   642                           PC equ 0FF9h ;# 
   643  0000                     # 6885 "C:\Program Files (x86)\Microchip\xc8\v2.00\pic\include\pic18f4520.h"
   644                           PCL equ 0FF9h ;# 
   645  0000                     # 6892 "C:\Program Files (x86)\Microchip\xc8\v2.00\pic\include\pic18f4520.h"
   646                           PCLATH equ 0FFAh ;# 
   647  0000                     # 6899 "C:\Program Files (x86)\Microchip\xc8\v2.00\pic\include\pic18f4520.h"
   648                           PCLATU equ 0FFBh ;# 
   649  0000                     # 6906 "C:\Program Files (x86)\Microchip\xc8\v2.00\pic\include\pic18f4520.h"
   650                           STKPTR equ 0FFCh ;# 
   651  0000                     # 6980 "C:\Program Files (x86)\Microchip\xc8\v2.00\pic\include\pic18f4520.h"
   652                           TOS equ 0FFDh ;# 
   653  0000                     # 6987 "C:\Program Files (x86)\Microchip\xc8\v2.00\pic\include\pic18f4520.h"
   654                           TOSL equ 0FFDh ;# 
   655  0000                     # 6994 "C:\Program Files (x86)\Microchip\xc8\v2.00\pic\include\pic18f4520.h"
   656                           TOSH equ 0FFEh ;# 
   657  0000                     # 7001 "C:\Program Files (x86)\Microchip\xc8\v2.00\pic\include\pic18f4520.h"
   658                           TOSU equ 0FFFh ;# 
   659  0000                     # 54 "C:\Program Files (x86)\Microchip\xc8\v2.00\pic\include\pic18f4520.h"
   660                           PORTA equ 0F80h ;# 
   661  0000                     # 273 "C:\Program Files (x86)\Microchip\xc8\v2.00\pic\include\pic18f4520.h"
   662                           PORTB equ 0F81h ;# 
   663  0000                     # 452 "C:\Program Files (x86)\Microchip\xc8\v2.00\pic\include\pic18f4520.h"
   664                           PORTC equ 0F82h ;# 
   665  0000                     # 634 "C:\Program Files (x86)\Microchip\xc8\v2.00\pic\include\pic18f4520.h"
   666                           PORTD equ 0F83h ;# 
   667  0000                     # 776 "C:\Program Files (x86)\Microchip\xc8\v2.00\pic\include\pic18f4520.h"
   668                           PORTE equ 0F84h ;# 
   669  0000                     # 979 "C:\Program Files (x86)\Microchip\xc8\v2.00\pic\include\pic18f4520.h"
   670                           LATA equ 0F89h ;# 
   671  0000                     # 1091 "C:\Program Files (x86)\Microchip\xc8\v2.00\pic\include\pic18f4520.h"
   672                           LATB equ 0F8Ah ;# 
   673  0000                     # 1203 "C:\Program Files (x86)\Microchip\xc8\v2.00\pic\include\pic18f4520.h"
   674                           LATC equ 0F8Bh ;# 
   675  0000                     # 1315 "C:\Program Files (x86)\Microchip\xc8\v2.00\pic\include\pic18f4520.h"
   676                           LATD equ 0F8Ch ;# 
   677  0000                     # 1427 "C:\Program Files (x86)\Microchip\xc8\v2.00\pic\include\pic18f4520.h"
   678                           LATE equ 0F8Dh ;# 
   679  0000                     # 1479 "C:\Program Files (x86)\Microchip\xc8\v2.00\pic\include\pic18f4520.h"
   680                           TRISA equ 0F92h ;# 
   681  0000                     # 1484 "C:\Program Files (x86)\Microchip\xc8\v2.00\pic\include\pic18f4520.h"
   682                           DDRA equ 0F92h ;# 
   683  0000                     # 1701 "C:\Program Files (x86)\Microchip\xc8\v2.00\pic\include\pic18f4520.h"
   684                           TRISB equ 0F93h ;# 
   685  0000                     # 1706 "C:\Program Files (x86)\Microchip\xc8\v2.00\pic\include\pic18f4520.h"
   686                           DDRB equ 0F93h ;# 
   687  0000                     # 1923 "C:\Program Files (x86)\Microchip\xc8\v2.00\pic\include\pic18f4520.h"
   688                           TRISC equ 0F94h ;# 
   689  0000                     # 1928 "C:\Program Files (x86)\Microchip\xc8\v2.00\pic\include\pic18f4520.h"
   690                           DDRC equ 0F94h ;# 
   691  0000                     # 2145 "C:\Program Files (x86)\Microchip\xc8\v2.00\pic\include\pic18f4520.h"
   692                           TRISD equ 0F95h ;# 
   693  0000                     # 2150 "C:\Program Files (x86)\Microchip\xc8\v2.00\pic\include\pic18f4520.h"
   694                           DDRD equ 0F95h ;# 
   695  0000                     # 2367 "C:\Program Files (x86)\Microchip\xc8\v2.00\pic\include\pic18f4520.h"
   696                           TRISE equ 0F96h ;# 
   697  0000                     # 2372 "C:\Program Files (x86)\Microchip\xc8\v2.00\pic\include\pic18f4520.h"
   698                           DDRE equ 0F96h ;# 
   699  0000                     # 2531 "C:\Program Files (x86)\Microchip\xc8\v2.00\pic\include\pic18f4520.h"
   700                           OSCTUNE equ 0F9Bh ;# 
   701  0000                     # 2596 "C:\Program Files (x86)\Microchip\xc8\v2.00\pic\include\pic18f4520.h"
   702                           PIE1 equ 0F9Dh ;# 
   703  0000                     # 2673 "C:\Program Files (x86)\Microchip\xc8\v2.00\pic\include\pic18f4520.h"
   704                           PIR1 equ 0F9Eh ;# 
   705  0000                     # 2750 "C:\Program Files (x86)\Microchip\xc8\v2.00\pic\include\pic18f4520.h"
   706                           IPR1 equ 0F9Fh ;# 
   707  0000                     # 2827 "C:\Program Files (x86)\Microchip\xc8\v2.00\pic\include\pic18f4520.h"
   708                           PIE2 equ 0FA0h ;# 
   709  0000                     # 2893 "C:\Program Files (x86)\Microchip\xc8\v2.00\pic\include\pic18f4520.h"
   710                           PIR2 equ 0FA1h ;# 
   711  0000                     # 2959 "C:\Program Files (x86)\Microchip\xc8\v2.00\pic\include\pic18f4520.h"
   712                           IPR2 equ 0FA2h ;# 
   713  0000                     # 3025 "C:\Program Files (x86)\Microchip\xc8\v2.00\pic\include\pic18f4520.h"
   714                           EECON1 equ 0FA6h ;# 
   715  0000                     # 3091 "C:\Program Files (x86)\Microchip\xc8\v2.00\pic\include\pic18f4520.h"
   716                           EECON2 equ 0FA7h ;# 
   717  0000                     # 3098 "C:\Program Files (x86)\Microchip\xc8\v2.00\pic\include\pic18f4520.h"
   718                           EEDATA equ 0FA8h ;# 
   719  0000                     # 3105 "C:\Program Files (x86)\Microchip\xc8\v2.00\pic\include\pic18f4520.h"
   720                           EEADR equ 0FA9h ;# 
   721  0000                     # 3112 "C:\Program Files (x86)\Microchip\xc8\v2.00\pic\include\pic18f4520.h"
   722                           RCSTA equ 0FABh ;# 
   723  0000                     # 3117 "C:\Program Files (x86)\Microchip\xc8\v2.00\pic\include\pic18f4520.h"
   724                           RCSTA1 equ 0FABh ;# 
   725  0000                     # 3322 "C:\Program Files (x86)\Microchip\xc8\v2.00\pic\include\pic18f4520.h"
   726                           TXSTA equ 0FACh ;# 
   727  0000                     # 3327 "C:\Program Files (x86)\Microchip\xc8\v2.00\pic\include\pic18f4520.h"
   728                           TXSTA1 equ 0FACh ;# 
   729  0000                     # 3578 "C:\Program Files (x86)\Microchip\xc8\v2.00\pic\include\pic18f4520.h"
   730                           TXREG equ 0FADh ;# 
   731  0000                     # 3583 "C:\Program Files (x86)\Microchip\xc8\v2.00\pic\include\pic18f4520.h"
   732                           TXREG1 equ 0FADh ;# 
   733  0000                     # 3590 "C:\Program Files (x86)\Microchip\xc8\v2.00\pic\include\pic18f4520.h"
   734                           RCREG equ 0FAEh ;# 
   735  0000                     # 3595 "C:\Program Files (x86)\Microchip\xc8\v2.00\pic\include\pic18f4520.h"
   736                           RCREG1 equ 0FAEh ;# 
   737  0000                     # 3602 "C:\Program Files (x86)\Microchip\xc8\v2.00\pic\include\pic18f4520.h"
   738                           SPBRG equ 0FAFh ;# 
   739  0000                     # 3607 "C:\Program Files (x86)\Microchip\xc8\v2.00\pic\include\pic18f4520.h"
   740                           SPBRG1 equ 0FAFh ;# 
   741  0000                     # 3614 "C:\Program Files (x86)\Microchip\xc8\v2.00\pic\include\pic18f4520.h"
   742                           SPBRGH equ 0FB0h ;# 
   743  0000                     # 3621 "C:\Program Files (x86)\Microchip\xc8\v2.00\pic\include\pic18f4520.h"
   744                           T3CON equ 0FB1h ;# 
   745  0000                     # 3733 "C:\Program Files (x86)\Microchip\xc8\v2.00\pic\include\pic18f4520.h"
   746                           TMR3 equ 0FB2h ;# 
   747  0000                     # 3740 "C:\Program Files (x86)\Microchip\xc8\v2.00\pic\include\pic18f4520.h"
   748                           TMR3L equ 0FB2h ;# 
   749  0000                     # 3747 "C:\Program Files (x86)\Microchip\xc8\v2.00\pic\include\pic18f4520.h"
   750                           TMR3H equ 0FB3h ;# 
   751  0000                     # 3754 "C:\Program Files (x86)\Microchip\xc8\v2.00\pic\include\pic18f4520.h"
   752                           CMCON equ 0FB4h ;# 
   753  0000                     # 3844 "C:\Program Files (x86)\Microchip\xc8\v2.00\pic\include\pic18f4520.h"
   754                           CVRCON equ 0FB5h ;# 
   755  0000                     # 3923 "C:\Program Files (x86)\Microchip\xc8\v2.00\pic\include\pic18f4520.h"
   756                           ECCP1AS equ 0FB6h ;# 
   757  0000                     # 3928 "C:\Program Files (x86)\Microchip\xc8\v2.00\pic\include\pic18f4520.h"
   758                           ECCPAS equ 0FB6h ;# 
   759  0000                     # 4085 "C:\Program Files (x86)\Microchip\xc8\v2.00\pic\include\pic18f4520.h"
   760                           PWM1CON equ 0FB7h ;# 
   761  0000                     # 4090 "C:\Program Files (x86)\Microchip\xc8\v2.00\pic\include\pic18f4520.h"
   762                           ECCP1DEL equ 0FB7h ;# 
   763  0000                     # 4223 "C:\Program Files (x86)\Microchip\xc8\v2.00\pic\include\pic18f4520.h"
   764                           BAUDCON equ 0FB8h ;# 
   765  0000                     # 4228 "C:\Program Files (x86)\Microchip\xc8\v2.00\pic\include\pic18f4520.h"
   766                           BAUDCTL equ 0FB8h ;# 
   767  0000                     # 4403 "C:\Program Files (x86)\Microchip\xc8\v2.00\pic\include\pic18f4520.h"
   768                           CCP2CON equ 0FBAh ;# 
   769  0000                     # 4482 "C:\Program Files (x86)\Microchip\xc8\v2.00\pic\include\pic18f4520.h"
   770                           CCPR2 equ 0FBBh ;# 
   771  0000                     # 4489 "C:\Program Files (x86)\Microchip\xc8\v2.00\pic\include\pic18f4520.h"
   772                           CCPR2L equ 0FBBh ;# 
   773  0000                     # 4496 "C:\Program Files (x86)\Microchip\xc8\v2.00\pic\include\pic18f4520.h"
   774                           CCPR2H equ 0FBCh ;# 
   775  0000                     # 4503 "C:\Program Files (x86)\Microchip\xc8\v2.00\pic\include\pic18f4520.h"
   776                           CCP1CON equ 0FBDh ;# 
   777  0000                     # 4600 "C:\Program Files (x86)\Microchip\xc8\v2.00\pic\include\pic18f4520.h"
   778                           CCPR1 equ 0FBEh ;# 
   779  0000                     # 4607 "C:\Program Files (x86)\Microchip\xc8\v2.00\pic\include\pic18f4520.h"
   780                           CCPR1L equ 0FBEh ;# 
   781  0000                     # 4614 "C:\Program Files (x86)\Microchip\xc8\v2.00\pic\include\pic18f4520.h"
   782                           CCPR1H equ 0FBFh ;# 
   783  0000                     # 4621 "C:\Program Files (x86)\Microchip\xc8\v2.00\pic\include\pic18f4520.h"
   784                           ADCON2 equ 0FC0h ;# 
   785  0000                     # 4692 "C:\Program Files (x86)\Microchip\xc8\v2.00\pic\include\pic18f4520.h"
   786                           ADCON1 equ 0FC1h ;# 
   787  0000                     # 4777 "C:\Program Files (x86)\Microchip\xc8\v2.00\pic\include\pic18f4520.h"
   788                           ADCON0 equ 0FC2h ;# 
   789  0000                     # 4896 "C:\Program Files (x86)\Microchip\xc8\v2.00\pic\include\pic18f4520.h"
   790                           ADRES equ 0FC3h ;# 
   791  0000                     # 4903 "C:\Program Files (x86)\Microchip\xc8\v2.00\pic\include\pic18f4520.h"
   792                           ADRESL equ 0FC3h ;# 
   793  0000                     # 4910 "C:\Program Files (x86)\Microchip\xc8\v2.00\pic\include\pic18f4520.h"
   794                           ADRESH equ 0FC4h ;# 
   795  0000                     # 4917 "C:\Program Files (x86)\Microchip\xc8\v2.00\pic\include\pic18f4520.h"
   796                           SSPCON2 equ 0FC5h ;# 
   797  0000                     # 5012 "C:\Program Files (x86)\Microchip\xc8\v2.00\pic\include\pic18f4520.h"
   798                           SSPCON1 equ 0FC6h ;# 
   799  0000                     # 5082 "C:\Program Files (x86)\Microchip\xc8\v2.00\pic\include\pic18f4520.h"
   800                           SSPSTAT equ 0FC7h ;# 
   801  0000                     # 5303 "C:\Program Files (x86)\Microchip\xc8\v2.00\pic\include\pic18f4520.h"
   802                           SSPADD equ 0FC8h ;# 
   803  0000                     # 5310 "C:\Program Files (x86)\Microchip\xc8\v2.00\pic\include\pic18f4520.h"
   804                           SSPBUF equ 0FC9h ;# 
   805  0000                     # 5317 "C:\Program Files (x86)\Microchip\xc8\v2.00\pic\include\pic18f4520.h"
   806                           T2CON equ 0FCAh ;# 
   807  0000                     # 5415 "C:\Program Files (x86)\Microchip\xc8\v2.00\pic\include\pic18f4520.h"
   808                           PR2 equ 0FCBh ;# 
   809  0000                     # 5420 "C:\Program Files (x86)\Microchip\xc8\v2.00\pic\include\pic18f4520.h"
   810                           MEMCON equ 0FCBh ;# 
   811  0000                     # 5525 "C:\Program Files (x86)\Microchip\xc8\v2.00\pic\include\pic18f4520.h"
   812                           TMR2 equ 0FCCh ;# 
   813  0000                     # 5532 "C:\Program Files (x86)\Microchip\xc8\v2.00\pic\include\pic18f4520.h"
   814                           T1CON equ 0FCDh ;# 
   815  0000                     # 5635 "C:\Program Files (x86)\Microchip\xc8\v2.00\pic\include\pic18f4520.h"
   816                           TMR1 equ 0FCEh ;# 
   817  0000                     # 5642 "C:\Program Files (x86)\Microchip\xc8\v2.00\pic\include\pic18f4520.h"
   818                           TMR1L equ 0FCEh ;# 
   819  0000                     # 5649 "C:\Program Files (x86)\Microchip\xc8\v2.00\pic\include\pic18f4520.h"
   820                           TMR1H equ 0FCFh ;# 
   821  0000                     # 5656 "C:\Program Files (x86)\Microchip\xc8\v2.00\pic\include\pic18f4520.h"
   822                           RCON equ 0FD0h ;# 
   823  0000                     # 5789 "C:\Program Files (x86)\Microchip\xc8\v2.00\pic\include\pic18f4520.h"
   824                           WDTCON equ 0FD1h ;# 
   825  0000                     # 5817 "C:\Program Files (x86)\Microchip\xc8\v2.00\pic\include\pic18f4520.h"
   826                           HLVDCON equ 0FD2h ;# 
   827  0000                     # 5822 "C:\Program Files (x86)\Microchip\xc8\v2.00\pic\include\pic18f4520.h"
   828                           LVDCON equ 0FD2h ;# 
   829  0000                     # 6087 "C:\Program Files (x86)\Microchip\xc8\v2.00\pic\include\pic18f4520.h"
   830                           OSCCON equ 0FD3h ;# 
   831  0000                     # 6170 "C:\Program Files (x86)\Microchip\xc8\v2.00\pic\include\pic18f4520.h"
   832                           T0CON equ 0FD5h ;# 
   833  0000                     # 6253 "C:\Program Files (x86)\Microchip\xc8\v2.00\pic\include\pic18f4520.h"
   834                           TMR0 equ 0FD6h ;# 
   835  0000                     # 6260 "C:\Program Files (x86)\Microchip\xc8\v2.00\pic\include\pic18f4520.h"
   836                           TMR0L equ 0FD6h ;# 
   837  0000                     # 6267 "C:\Program Files (x86)\Microchip\xc8\v2.00\pic\include\pic18f4520.h"
   838                           TMR0H equ 0FD7h ;# 
   839  0000                     # 6274 "C:\Program Files (x86)\Microchip\xc8\v2.00\pic\include\pic18f4520.h"
   840                           STATUS equ 0FD8h ;# 
   841  0000                     # 6345 "C:\Program Files (x86)\Microchip\xc8\v2.00\pic\include\pic18f4520.h"
   842                           FSR2 equ 0FD9h ;# 
   843  0000                     # 6352 "C:\Program Files (x86)\Microchip\xc8\v2.00\pic\include\pic18f4520.h"
   844                           FSR2L equ 0FD9h ;# 
   845  0000                     # 6359 "C:\Program Files (x86)\Microchip\xc8\v2.00\pic\include\pic18f4520.h"
   846                           FSR2H equ 0FDAh ;# 
   847  0000                     # 6366 "C:\Program Files (x86)\Microchip\xc8\v2.00\pic\include\pic18f4520.h"
   848                           PLUSW2 equ 0FDBh ;# 
   849  0000                     # 6373 "C:\Program Files (x86)\Microchip\xc8\v2.00\pic\include\pic18f4520.h"
   850                           PREINC2 equ 0FDCh ;# 
   851  0000                     # 6380 "C:\Program Files (x86)\Microchip\xc8\v2.00\pic\include\pic18f4520.h"
   852                           POSTDEC2 equ 0FDDh ;# 
   853  0000                     # 6387 "C:\Program Files (x86)\Microchip\xc8\v2.00\pic\include\pic18f4520.h"
   854                           POSTINC2 equ 0FDEh ;# 
   855  0000                     # 6394 "C:\Program Files (x86)\Microchip\xc8\v2.00\pic\include\pic18f4520.h"
   856                           INDF2 equ 0FDFh ;# 
   857  0000                     # 6401 "C:\Program Files (x86)\Microchip\xc8\v2.00\pic\include\pic18f4520.h"
   858                           BSR equ 0FE0h ;# 
   859  0000                     # 6408 "C:\Program Files (x86)\Microchip\xc8\v2.00\pic\include\pic18f4520.h"
   860                           FSR1 equ 0FE1h ;# 
   861  0000                     # 6415 "C:\Program Files (x86)\Microchip\xc8\v2.00\pic\include\pic18f4520.h"
   862                           FSR1L equ 0FE1h ;# 
   863  0000                     # 6422 "C:\Program Files (x86)\Microchip\xc8\v2.00\pic\include\pic18f4520.h"
   864                           FSR1H equ 0FE2h ;# 
   865  0000                     # 6429 "C:\Program Files (x86)\Microchip\xc8\v2.00\pic\include\pic18f4520.h"
   866                           PLUSW1 equ 0FE3h ;# 
   867  0000                     # 6436 "C:\Program Files (x86)\Microchip\xc8\v2.00\pic\include\pic18f4520.h"
   868                           PREINC1 equ 0FE4h ;# 
   869  0000                     # 6443 "C:\Program Files (x86)\Microchip\xc8\v2.00\pic\include\pic18f4520.h"
   870                           POSTDEC1 equ 0FE5h ;# 
   871  0000                     # 6450 "C:\Program Files (x86)\Microchip\xc8\v2.00\pic\include\pic18f4520.h"
   872                           POSTINC1 equ 0FE6h ;# 
   873  0000                     # 6457 "C:\Program Files (x86)\Microchip\xc8\v2.00\pic\include\pic18f4520.h"
   874                           INDF1 equ 0FE7h ;# 
   875  0000                     # 6464 "C:\Program Files (x86)\Microchip\xc8\v2.00\pic\include\pic18f4520.h"
   876                           WREG equ 0FE8h ;# 
   877  0000                     # 6476 "C:\Program Files (x86)\Microchip\xc8\v2.00\pic\include\pic18f4520.h"
   878                           FSR0 equ 0FE9h ;# 
   879  0000                     # 6483 "C:\Program Files (x86)\Microchip\xc8\v2.00\pic\include\pic18f4520.h"
   880                           FSR0L equ 0FE9h ;# 
   881  0000                     # 6490 "C:\Program Files (x86)\Microchip\xc8\v2.00\pic\include\pic18f4520.h"
   882                           FSR0H equ 0FEAh ;# 
   883  0000                     # 6497 "C:\Program Files (x86)\Microchip\xc8\v2.00\pic\include\pic18f4520.h"
   884                           PLUSW0 equ 0FEBh ;# 
   885  0000                     # 6504 "C:\Program Files (x86)\Microchip\xc8\v2.00\pic\include\pic18f4520.h"
   886                           PREINC0 equ 0FECh ;# 
   887  0000                     # 6511 "C:\Program Files (x86)\Microchip\xc8\v2.00\pic\include\pic18f4520.h"
   888                           POSTDEC0 equ 0FEDh ;# 
   889  0000                     # 6518 "C:\Program Files (x86)\Microchip\xc8\v2.00\pic\include\pic18f4520.h"
   890                           POSTINC0 equ 0FEEh ;# 
   891  0000                     # 6525 "C:\Program Files (x86)\Microchip\xc8\v2.00\pic\include\pic18f4520.h"
   892                           INDF0 equ 0FEFh ;# 
   893  0000                     # 6532 "C:\Program Files (x86)\Microchip\xc8\v2.00\pic\include\pic18f4520.h"
   894                           INTCON3 equ 0FF0h ;# 
   895  0000                     # 6624 "C:\Program Files (x86)\Microchip\xc8\v2.00\pic\include\pic18f4520.h"
   896                           INTCON2 equ 0FF1h ;# 
   897  0000                     # 6694 "C:\Program Files (x86)\Microchip\xc8\v2.00\pic\include\pic18f4520.h"
   898                           INTCON equ 0FF2h ;# 
   899  0000                     # 6811 "C:\Program Files (x86)\Microchip\xc8\v2.00\pic\include\pic18f4520.h"
   900                           PROD equ 0FF3h ;# 
   901  0000                     # 6818 "C:\Program Files (x86)\Microchip\xc8\v2.00\pic\include\pic18f4520.h"
   902                           PRODL equ 0FF3h ;# 
   903  0000                     # 6825 "C:\Program Files (x86)\Microchip\xc8\v2.00\pic\include\pic18f4520.h"
   904                           PRODH equ 0FF4h ;# 
   905  0000                     # 6832 "C:\Program Files (x86)\Microchip\xc8\v2.00\pic\include\pic18f4520.h"
   906                           TABLAT equ 0FF5h ;# 
   907  0000                     # 6841 "C:\Program Files (x86)\Microchip\xc8\v2.00\pic\include\pic18f4520.h"
   908                           TBLPTR equ 0FF6h ;# 
   909  0000                     # 6848 "C:\Program Files (x86)\Microchip\xc8\v2.00\pic\include\pic18f4520.h"
   910                           TBLPTRL equ 0FF6h ;# 
   911  0000                     # 6855 "C:\Program Files (x86)\Microchip\xc8\v2.00\pic\include\pic18f4520.h"
   912                           TBLPTRH equ 0FF7h ;# 
   913  0000                     # 6862 "C:\Program Files (x86)\Microchip\xc8\v2.00\pic\include\pic18f4520.h"
   914                           TBLPTRU equ 0FF8h ;# 
   915  0000                     # 6871 "C:\Program Files (x86)\Microchip\xc8\v2.00\pic\include\pic18f4520.h"
   916                           PCLAT equ 0FF9h ;# 
   917  0000                     # 6878 "C:\Program Files (x86)\Microchip\xc8\v2.00\pic\include\pic18f4520.h"
   918                           PC equ 0FF9h ;# 
   919  0000                     # 6885 "C:\Program Files (x86)\Microchip\xc8\v2.00\pic\include\pic18f4520.h"
   920                           PCL equ 0FF9h ;# 
   921  0000                     # 6892 "C:\Program Files (x86)\Microchip\xc8\v2.00\pic\include\pic18f4520.h"
   922                           PCLATH equ 0FFAh ;# 
   923  0000                     # 6899 "C:\Program Files (x86)\Microchip\xc8\v2.00\pic\include\pic18f4520.h"
   924                           PCLATU equ 0FFBh ;# 
   925  0000                     # 6906 "C:\Program Files (x86)\Microchip\xc8\v2.00\pic\include\pic18f4520.h"
   926                           STKPTR equ 0FFCh ;# 
   927  0000                     # 6980 "C:\Program Files (x86)\Microchip\xc8\v2.00\pic\include\pic18f4520.h"
   928                           TOS equ 0FFDh ;# 
   929  0000                     # 6987 "C:\Program Files (x86)\Microchip\xc8\v2.00\pic\include\pic18f4520.h"
   930                           TOSL equ 0FFDh ;# 
   931  0000                     # 6994 "C:\Program Files (x86)\Microchip\xc8\v2.00\pic\include\pic18f4520.h"
   932                           TOSH equ 0FFEh ;# 
   933  0000                     # 7001 "C:\Program Files (x86)\Microchip\xc8\v2.00\pic\include\pic18f4520.h"
   934                           TOSU equ 0FFFh ;# 
   935  0000                     	FNCALL	_main,_Get_Sample
   936                           	FNCALL	_main,_LCD_Clear
   937                           	FNCALL	_main,_LCD_Init
   938                           	FNCALL	_main,_LCD_String_xy
   939                           	FNCALL	_main,_MSdelay
   940                           	FNCALL	_main,_SetTo_Broadcast
   941                           	FNCALL	_main,_USART_Init
   942                           	FNCALL	_main,_Write_Remote_AT_Command
   943                           	FNCALL	_main,_memset
   944                           	FNCALL	_main,_sprintf
   945                           	FNCALL	_sprintf,_vfprintf
   946                           	FNCALL	_vfprintf,_vfpfcnvrt
   947                           	FNCALL	_vfpfcnvrt,_dtoa
   948                           	FNCALL	_vfpfcnvrt,_fputc
   949                           	FNCALL	_dtoa,___aodiv
   950                           	FNCALL	_dtoa,___aomod
   951                           	FNCALL	_dtoa,_abs
   952                           	FNCALL	_dtoa,_pad
   953                           	FNCALL	_pad,_fputc
   954                           	FNCALL	_pad,_fputs
   955                           	FNCALL	_pad,_strlen
   956                           	FNCALL	_fputs,_fputc
   957                           	FNCALL	_fputc,_putch
   958                           	FNCALL	_Write_Remote_AT_Command,_Remote_AT_Command
   959                           	FNCALL	_Remote_AT_Command,_USART_SendString
   960                           	FNCALL	_Remote_AT_Command,_USART_TxChar
   961                           	FNCALL	_USART_Init,___fladd
   962                           	FNCALL	_USART_Init,___fldiv
   963                           	FNCALL	_USART_Init,___fltol
   964                           	FNCALL	_USART_Init,___xxtofl
   965                           	FNCALL	_SetTo_Broadcast,_MSdelay
   966                           	FNCALL	_SetTo_Broadcast,_Write_AT_Command
   967                           	FNCALL	_Write_AT_Command,_AT_Command
   968                           	FNCALL	_AT_Command,_USART_SendString
   969                           	FNCALL	_AT_Command,_USART_TxChar
   970                           	FNCALL	_USART_SendString,_USART_TxChar
   971                           	FNCALL	_LCD_String_xy,_LCD_Command
   972                           	FNCALL	_LCD_String_xy,_LCD_String
   973                           	FNCALL	_LCD_String,_LCD_Char
   974                           	FNCALL	_LCD_Char,_MSdelay
   975                           	FNCALL	_LCD_Init,_LCD_Command
   976                           	FNCALL	_LCD_Init,_MSdelay
   977                           	FNCALL	_LCD_Clear,_LCD_Command
   978                           	FNCALL	_LCD_Clear,_MSdelay
   979                           	FNCALL	_LCD_Command,_MSdelay
   980                           	FNCALL	_Get_Sample,_Is_Data_Received
   981                           	FNCALL	_Get_Sample,_MSdelay
   982                           	FNCALL	_Get_Sample,_memset
   983                           	FNCALL	_Get_Sample,_sample
   984                           	FNCALL	_sample,_Is_Checksum_Correct
   985                           	FNCALL	_sample,_Is_Data_Received
   986                           	FNROOT	_main
   987                           	FNCALL	intlevel1,_LO_ISR
   988                           	global	intlevel1
   989                           	FNROOT	intlevel1
   990                           	global	_Command_Value
   991                           	global	_nout
   992                           	global	_width
   993                           	global	_prec
   994                           	global	_flags
   995                           	global	_LastByteOfFrame
   996                           	global	_BufferPointer
   997                           	global	_AnalogData
   998                           	global	_DigitalData
   999                           	global	__IsContainsAnalog
  1000                           	global	__IsContainsDigital
  1001                           	global	_dbuf
  1002                           	global	_ReceiveBuffer
  1003                           	global	_LATDbits
  1004                           _LATDbits	set	0xF8C
  1005  0000                     	global	_LATCbits
  1006                           _LATCbits	set	0xF8B
  1007  0000                     	global	_TRISDbits
  1008                           _TRISDbits	set	0xF95
  1009  0000                     	global	_TRISCbits
  1010                           _TRISCbits	set	0xF94
  1011  0000                     	global	_LATD
  1012                           _LATD	set	0xF8C
  1013  0000                     	global	_TRISA
  1014                           _TRISA	set	0xF92
  1015  0000                     	global	_TRISD
  1016                           _TRISD	set	0xF95
  1017  0000                     	global	_TRISC7
  1018                           _TRISC7	set	0x7CA7
  1019  0000                     	global	_TRISC6
  1020                           _TRISC6	set	0x7CA6
  1021  0000                     	global	_RC1
  1022                           _RC1	set	0x7C11
  1023  0000                     	global	_RC0
  1024                           _RC0	set	0x7C10
  1025  0000                     	global	_LATA1
  1026                           _LATA1	set	0x7C49
  1027  0000                     	global	_LATA0
  1028                           _LATA0	set	0x7C48
  1029  0000                     	global	_TXREG
  1030                           _TXREG	set	0xFAD
  1031  0000                     	global	_RCSTA
  1032                           _RCSTA	set	0xFAB
  1033  0000                     	global	_TXSTA
  1034                           _TXSTA	set	0xFAC
  1035  0000                     	global	_SPBRG
  1036                           _SPBRG	set	0xFAF
  1037  0000                     	global	_PIE1bits
  1038                           _PIE1bits	set	0xF9D
  1039  0000                     	global	_OSCCON
  1040                           _OSCCON	set	0xFD3
  1041  0000                     	global	_RCSTAbits
  1042                           _RCSTAbits	set	0xFAB
  1043  0000                     	global	_RCREG
  1044                           _RCREG	set	0xFAE
  1045  0000                     	global	_T2CONbits
  1046                           _T2CONbits	set	0xFCA
  1047  0000                     	global	_CCPR1L
  1048                           _CCPR1L	set	0xFBE
  1049  0000                     	global	_CCP1CONbits
  1050                           _CCP1CONbits	set	0xFBD
  1051  0000                     	global	_PR2
  1052                           _PR2	set	0xFCB
  1053  0000                     	global	_TXIF
  1054                           _TXIF	set	0x7CF4
  1055  0000                     	global	_CREN
  1056                           _CREN	set	0x7D5C
  1057  0000                     	global	_RCIF
  1058                           _RCIF	set	0x7CF5
  1059  0000                     	global	_INTCONbits
  1060                           _INTCONbits	set	0xFF2
  1061  0000                     psect	smallconst,class=SMALLCONST,space=0,reloc=2,noexec
  1062                           global __psmallconst
  1063                           __psmallconst:
  1064  000600                     	db	0
  1065  000600  00                 	
  1066                           STR_6:
  1067  000601                     	db	66	;'B'
  1068  000601  42                 	db	114	;'r'
  1069  000602  72                 	db	111	;'o'
  1070  000603  6F                 	db	97	;'a'
  1071  000604  61                 	db	100	;'d'
  1072  000605  64                 	db	99	;'c'
  1073  000606  63                 	db	97	;'a'
  1074  000607  61                 	db	115	;'s'
  1075  000608  73                 	db	116	;'t'
  1076  000609  74                 	db	32
  1077  00060A  20                 	db	109	;'m'
  1078  00060B  6D                 	db	111	;'o'
  1079  00060C  6F                 	db	100	;'d'
  1080  00060D  64                 	db	101	;'e'
  1081  00060E  65                 	db	32
  1082  00060F  20                 	db	32
  1083  000610  20                 	db	0
  1084  000611  00                 	
  1085                           STR_7:
  1086  000612                     	db	82	;'R'
  1087  000612  52                 	db	101	;'e'
  1088  000613  65                 	db	113	;'q'
  1089  000614  71                 	db	117	;'u'
  1090  000615  75                 	db	101	;'e'
  1091  000616  65                 	db	115	;'s'
  1092  000617  73                 	db	116	;'t'
  1093  000618  74                 	db	32
  1094  000619  20                 	db	83	;'S'
  1095  00061A  53                 	db	97	;'a'
  1096  00061B  61                 	db	109	;'m'
  1097  00061C  6D                 	db	112	;'p'
  1098  00061D  70                 	db	108	;'l'
  1099  00061E  6C                 	db	101	;'e'
  1100  00061F  65                 	db	115	;'s'
  1101  000620  73                 	db	32
  1102  000621  20                 	db	0
  1103  000622  00                 	
  1104                           STR_5:
  1105  000623                     	db	83	;'S'
  1106  000623  53                 	db	101	;'e'
  1107  000624  65                 	db	116	;'t'
  1108  000625  74                 	db	116	;'t'
  1109  000626  74                 	db	105	;'i'
  1110  000627  69                 	db	110	;'n'
  1111  000628  6E                 	db	103	;'g'
  1112  000629  67                 	db	32
  1113  00062A  20                 	db	88	;'X'
  1114  00062B  58                 	db	45
  1115  00062C  2D                 	db	66	;'B'
  1116  00062D  42                 	db	101	;'e'
  1117  00062E  65                 	db	101	;'e'
  1118  00062F  65                 	db	32
  1119  000630  20                 	db	116	;'t'
  1120  000631  74                 	db	111	;'o'
  1121  000632  6F                 	db	0
  1122  000633  00                 	
  1123                           STR_9:
  1124  000634                     	db	83	;'S'
  1125  000634  53                 	db	119	;'w'
  1126  000635  77                 	db	105	;'i'
  1127  000636  69                 	db	116	;'t'
  1128  000637  74                 	db	99	;'c'
  1129  000638  63                 	db	104	;'h'
  1130  000639  68                 	db	32
  1131  00063A  20                 	db	61	;'='
  1132  00063B  3D                 	db	32
  1133  00063C  20                 	db	37
  1134  00063D  25                 	db	100	;'d'
  1135  00063E  64                 	db	32
  1136  00063F  20                 	db	32
  1137  000640  20                 	db	32
  1138  000641  20                 	db	0
  1139  000642  00                 	
  1140                           STR_3:
  1141  000643                     	db	88	;'X'
  1142  000643  58                 	db	45
  1143  000644  2D                 	db	66	;'B'
  1144  000645  42                 	db	101	;'e'
  1145  000646  65                 	db	101	;'e'
  1146  000647  65                 	db	32
  1147  000648  20                 	db	78	;'N'
  1148  000649  4E                 	db	101	;'e'
  1149  00064A  65                 	db	116	;'t'
  1150  00064B  74                 	db	119	;'w'
  1151  00064C  77                 	db	111	;'o'
  1152  00064D  6F                 	db	114	;'r'
  1153  00064E  72                 	db	107	;'k'
  1154  00064F  6B                 	db	32
  1155  000650  20                 	db	0
  1156  000651  00                 	
  1157                           STR_4:
  1158  000652                     	db	68	;'D'
  1159  000652  44                 	db	101	;'e'
  1160  000653  65                 	db	109	;'m'
  1161  000654  6D                 	db	111	;'o'
  1162  000655  6F                 	db	46
  1163  000656  2E                 	db	46
  1164  000657  2E                 	db	33
  1165  000658  21                 	db	33
  1166  000659  21                 	db	0
  1167  00065A  00                 	
  1168                           STR_1:
  1169  00065B                     	db	68	;'D'
  1170  00065B  44                 	db	72	;'H'
  1171  00065C  48                 	db	0
  1172  00065D  00                 	
  1173                           STR_2:
  1174  00065E                     	db	68	;'D'
  1175  00065E  44                 	db	76	;'L'
  1176  00065F  4C                 	db	0
  1177  000660  00                 	
  1178                           STR_8:
  1179  000661                     	db	73	;'I'
  1180  000661  49                 	db	82	;'R'
  1181  000662  52                 	db	0
  1182  000663  00                 ; #config settings
  1183                           global __CFG_OSC$INTIO67
  1184                           __CFG_OSC$INTIO67 equ 0x0
  1185  0000                     global __CFG_FCMEN$OFF
  1186                           __CFG_FCMEN$OFF equ 0x0
  1187  0000                     global __CFG_IESO$OFF
  1188                           __CFG_IESO$OFF equ 0x0
  1189  0000                     global __CFG_PWRT$OFF
  1190                           __CFG_PWRT$OFF equ 0x0
  1191  0000                     global __CFG_BOREN$SBORDIS
  1192                           __CFG_BOREN$SBORDIS equ 0x0
  1193  0000                     global __CFG_BORV$3
  1194                           __CFG_BORV$3 equ 0x0
  1195  0000                     global __CFG_WDT$OFF
  1196                           __CFG_WDT$OFF equ 0x0
  1197  0000                     global __CFG_WDTPS$32768
  1198                           __CFG_WDTPS$32768 equ 0x0
  1199  0000                     global __CFG_CCP2MX$PORTC
  1200                           __CFG_CCP2MX$PORTC equ 0x0
  1201  0000                     global __CFG_PBADEN$OFF
  1202                           __CFG_PBADEN$OFF equ 0x0
  1203  0000                     global __CFG_LPT1OSC$OFF
  1204                           __CFG_LPT1OSC$OFF equ 0x0
  1205  0000                     global __CFG_MCLRE$ON
  1206                           __CFG_MCLRE$ON equ 0x0
  1207  0000                     global __CFG_STVREN$ON
  1208                           __CFG_STVREN$ON equ 0x0
  1209  0000                     global __CFG_LVP$OFF
  1210                           __CFG_LVP$OFF equ 0x0
  1211  0000                     global __CFG_XINST$OFF
  1212                           __CFG_XINST$OFF equ 0x0
  1213  0000                     global __CFG_CP0$OFF
  1214                           __CFG_CP0$OFF equ 0x0
  1215  0000                     global __CFG_CP1$OFF
  1216                           __CFG_CP1$OFF equ 0x0
  1217  0000                     global __CFG_CP2$OFF
  1218                           __CFG_CP2$OFF equ 0x0
  1219  0000                     global __CFG_CP3$OFF
  1220                           __CFG_CP3$OFF equ 0x0
  1221  0000                     global __CFG_CPB$OFF
  1222                           __CFG_CPB$OFF equ 0x0
  1223  0000                     global __CFG_CPD$OFF
  1224                           __CFG_CPD$OFF equ 0x0
  1225  0000                     global __CFG_WRT0$OFF
  1226                           __CFG_WRT0$OFF equ 0x0
  1227  0000                     global __CFG_WRT1$OFF
  1228                           __CFG_WRT1$OFF equ 0x0
  1229  0000                     global __CFG_WRT2$OFF
  1230                           __CFG_WRT2$OFF equ 0x0
  1231  0000                     global __CFG_WRT3$OFF
  1232                           __CFG_WRT3$OFF equ 0x0
  1233  0000                     global __CFG_WRTC$OFF
  1234                           __CFG_WRTC$OFF equ 0x0
  1235  0000                     global __CFG_WRTB$OFF
  1236                           __CFG_WRTB$OFF equ 0x0
  1237  0000                     global __CFG_WRTD$OFF
  1238                           __CFG_WRTD$OFF equ 0x0
  1239  0000                     global __CFG_EBTR0$OFF
  1240                           __CFG_EBTR0$OFF equ 0x0
  1241  0000                     global __CFG_EBTR1$OFF
  1242                           __CFG_EBTR1$OFF equ 0x0
  1243  0000                     global __CFG_EBTR2$OFF
  1244                           __CFG_EBTR2$OFF equ 0x0
  1245  0000                     global __CFG_EBTR3$OFF
  1246                           __CFG_EBTR3$OFF equ 0x0
  1247  0000                     global __CFG_EBTRB$OFF
  1248                           __CFG_EBTRB$OFF equ 0x0
  1249  0000                     	file	"C:\Users\user\AppData\Local\Temp\s76f4."
  1250                           	line	#
  1251                           psect	cinit,class=CODE,delta=1,reloc=2
  1252                           global __pcinit
  1253                           __pcinit:
  1254  0031BC                     global start_initialization
  1255                           start_initialization:
  1256  0031BC                     
  1257                           global __initialization
  1258                           __initialization:
  1259  0031BC                     psect	bssCOMRAM,class=COMRAM,space=1,noexec
  1260                           global __pbssCOMRAM
  1261                           __pbssCOMRAM:
  1262  000064                     	global	_Command_Value
  1263                           _Command_Value:
  1264  000064                            ds      4
  1265  000064                     _nout:
  1266  000068                            ds      2
  1267  000068                     _width:
  1268  00006A                            ds      2
  1269  00006A                     _prec:
  1270  00006C                            ds      2
  1271  00006C                     _flags:
  1272  00006E                            ds      2
  1273  00006E                     	global	_LastByteOfFrame
  1274                           _LastByteOfFrame:
  1275  000070                            ds      2
  1276  000070                     	global	_BufferPointer
  1277                           _BufferPointer:
  1278  000072                            ds      2
  1279  000072                     psect	bssBANK0,class=BANK0,space=1,noexec,lowdata
  1280                           global __pbssBANK0
  1281                           __pbssBANK0:
  1282  000080                     	global	_AnalogData
  1283                           _AnalogData:
  1284  000080                            ds      16
  1285  000080                     	global	_DigitalData
  1286                           _DigitalData:
  1287  000090                            ds      16
  1288  000090                     	global	__IsContainsAnalog
  1289                           __IsContainsAnalog:
  1290  0000A0                            ds      1
  1291  0000A0                     	global	__IsContainsDigital
  1292                           __IsContainsDigital:
  1293  0000A1                            ds      1
  1294  0000A1                     _dbuf:
  1295  0000A2                            ds      32
  1296  0000A2                     psect	bssBANK1,class=BANK1,space=1,noexec,lowdata
  1297                           global __pbssBANK1
  1298                           __pbssBANK1:
  1299  000100                     	global	_ReceiveBuffer
  1300                           _ReceiveBuffer:
  1301  000100                            ds      100
  1302  000100                     	file	"C:\Users\user\AppData\Local\Temp\s76f4."
  1303                           	line	#
  1304                           psect	cinit
  1305                           ; Clear objects allocated to BANK1 (100 bytes)
  1306                           	global __pbssBANK1
  1307                           lfsr	0,__pbssBANK1
  1308  0031BC  EE01  F000         movlw	100
  1309  0031C0  0E64               clear_0:
  1310  0031C2                     clrf	postinc0,c
  1311  0031C2  6AEE               decf	wreg
  1312  0031C4  06E8               bnz	clear_0
  1313  0031C6  E1FD               ; Clear objects allocated to BANK0 (66 bytes)
  1314                           	global __pbssBANK0
  1315                           lfsr	0,__pbssBANK0
  1316  0031C8  EE00  F080         movlw	66
  1317  0031CC  0E42               clear_1:
  1318  0031CE                     clrf	postinc0,c
  1319  0031CE  6AEE               decf	wreg
  1320  0031D0  06E8               bnz	clear_1
  1321  0031D2  E1FD               ; Clear objects allocated to COMRAM (16 bytes)
  1322                           	global __pbssCOMRAM
  1323                           lfsr	0,__pbssCOMRAM
  1324  0031D4  EE00  F064         movlw	16
  1325  0031D8  0E10               clear_2:
  1326  0031DA                     clrf	postinc0,c
  1327  0031DA  6AEE               decf	wreg
  1328  0031DC  06E8               bnz	clear_2
  1329  0031DE  E1FD               psect cinit,class=CODE,delta=1
  1330                           global end_of_initialization,__end_of__initialization
  1331                           
  1332                           ;End of C runtime variable initialization code
  1333                           
  1334                           end_of_initialization:
  1335  0031E0                     __end_of__initialization:
  1336  0031E0                     	bcf int$flags,0,c ;clear compiler interrupt flag (level 1)
  1337  0031E0  9074               	bcf int$flags,1,c ;clear compiler interrupt flag (level 2)
  1338  0031E2  9274               	GLOBAL	__Lmediumconst
  1339                           	movlw	low highword(__Lmediumconst)
  1340  0031E4  0E00               	movwf	tblptru
  1341  0031E6  6EF8               movlb 0
  1342  0031E8  0100               goto _main	;jump to C main() function
  1343  0031EA  EFE5  F009         psect	cstackBANK0,class=BANK0,space=1,noexec
  1344                           global __pcstackBANK0
  1345                           __pcstackBANK0:
  1346  0000C2                     	global	sprintf@ret
  1347                           sprintf@ret:	; 2 bytes @ 0x0
  1348  0000C2                     	ds   2
  1349  0000C2                     	global	sprintf@ap
  1350                           sprintf@ap:	; 2 bytes @ 0x2
  1351  0000C4                     	ds   2
  1352  0000C4                     	global	sprintf@f
  1353                           sprintf@f:	; 6 bytes @ 0x4
  1354  0000C6                     	ds   6
  1355  0000C6                     	global	main@_buffer
  1356                           main@_buffer:	; 25 bytes @ 0xA
  1357  0000CC                     	ds   25
  1358  0000CC                     	global	main@Remote_Address_DH
  1359                           main@Remote_Address_DH:	; 4 bytes @ 0x23
  1360  0000E5                     	ds   4
  1361  0000E5                     	global	main@Remote_Address_DL
  1362                           main@Remote_Address_DL:	; 4 bytes @ 0x27
  1363  0000E9                     	ds   4
  1364  0000E9                     psect	cstackCOMRAM,class=COMRAM,space=1,noexec
  1365                           global __pcstackCOMRAM
  1366                           __pcstackCOMRAM:
  1367  000001                     ?_LCD_Command:	; 1 bytes @ 0x0
  1368  000001                     ?_USART_TxChar:	; 1 bytes @ 0x0
  1369  000001                     ?_putch:	; 1 bytes @ 0x0
  1370  000001                     ?_LCD_Init:	; 1 bytes @ 0x0
  1371  000001                     ?_LCD_Clear:	; 1 bytes @ 0x0
  1372  000001                     ?_LCD_Char:	; 1 bytes @ 0x0
  1373  000001                     ?_Is_Data_Received:	; 1 bytes @ 0x0
  1374  000001                     ?_Is_Checksum_Correct:	; 1 bytes @ 0x0
  1375  000001                     ?_sample:	; 1 bytes @ 0x0
  1376  000001                     ?_Get_Sample:	; 1 bytes @ 0x0
  1377  000001                     ?_LO_ISR:	; 1 bytes @ 0x0
  1378  000001                     ??_LO_ISR:	; 1 bytes @ 0x0
  1379  000001                     ?_SetTo_Broadcast:	; 1 bytes @ 0x0
  1380  000001                     ?_main:	; 2 bytes @ 0x0
  1381  000001                     putch@c:	; 1 bytes @ 0x0
  1382  000001                     	ds   5
  1383  000001                     	global	LO_ISR@received_char
  1384                           LO_ISR@received_char:	; 1 bytes @ 0x5
  1385  000006                     	ds   1
  1386  000006                     ?_MSdelay:	; 1 bytes @ 0x6
  1387  000007                     ??_USART_TxChar:	; 1 bytes @ 0x6
  1388  000007                     ??_putch:	; 1 bytes @ 0x6
  1389  000007                     ??_Is_Data_Received:	; 1 bytes @ 0x6
  1390  000007                     ??_Is_Checksum_Correct:	; 1 bytes @ 0x6
  1391  000007                     ?_memset:	; 2 bytes @ 0x6
  1392  000007                     ?_fputc:	; 2 bytes @ 0x6
  1393  000007                     	global	?_strlen
  1394                           ?_strlen:	; 2 bytes @ 0x6
  1395  000007                     	global	?___xxtofl
  1396                           ?___xxtofl:	; 4 bytes @ 0x6
  1397  000007                     	global	?___aodiv
  1398                           ?___aodiv:	; 8 bytes @ 0x6
  1399  000007                     	global	?___aomod
  1400                           ?___aomod:	; 8 bytes @ 0x6
  1401  000007                     	global	Is_Data_Received@i
  1402                           Is_Data_Received@i:	; 1 bytes @ 0x6
  1403  000007                     	global	USART_TxChar@data
  1404                           USART_TxChar@data:	; 1 bytes @ 0x6
  1405  000007                     	global	MSdelay@val
  1406                           MSdelay@val:	; 2 bytes @ 0x6
  1407  000007                     	global	memset@dest
  1408                           memset@dest:	; 2 bytes @ 0x6
  1409  000007                     	global	fputc@c
  1410                           fputc@c:	; 2 bytes @ 0x6
  1411  000007                     	global	strlen@s
  1412                           strlen@s:	; 2 bytes @ 0x6
  1413  000007                     	global	___xxtofl@val
  1414                           ___xxtofl@val:	; 4 bytes @ 0x6
  1415  000007                     	global	___aodiv@dividend
  1416                           ___aodiv@dividend:	; 8 bytes @ 0x6
  1417  000007                     	global	___aomod@dividend
  1418                           ___aomod@dividend:	; 8 bytes @ 0x6
  1419  000007                     	ds   1
  1420  000007                     ?_USART_SendString:	; 1 bytes @ 0x7
  1421  000008                     	global	USART_SendString@str
  1422                           USART_SendString@str:	; 2 bytes @ 0x7
  1423  000008                     	ds   1
  1424  000008                     ??_MSdelay:	; 1 bytes @ 0x8
  1425  000009                     ??_strlen:	; 1 bytes @ 0x8
  1426  000009                     	global	Is_Checksum_Correct@i
  1427                           Is_Checksum_Correct@i:	; 1 bytes @ 0x8
  1428  000009                     	global	MSdelay@i
  1429                           MSdelay@i:	; 2 bytes @ 0x8
  1430  000009                     	global	memset@c
  1431                           memset@c:	; 2 bytes @ 0x8
  1432  000009                     	global	fputc@fp
  1433                           fputc@fp:	; 2 bytes @ 0x8
  1434  000009                     	ds   1
  1435  000009                     ??_USART_SendString:	; 1 bytes @ 0x9
  1436  00000A                     ?_Remote_AT_Command:	; 1 bytes @ 0x9
  1437  00000A                     ?_AT_Command:	; 1 bytes @ 0x9
  1438  00000A                     	global	Is_Checksum_Correct@checksum
  1439                           Is_Checksum_Correct@checksum:	; 2 bytes @ 0x9
  1440  00000A                     	global	AT_Command@ATCommand
  1441                           AT_Command@ATCommand:	; 2 bytes @ 0x9
  1442  00000A                     	global	Remote_AT_Command@Long_Address_MSB
  1443                           Remote_AT_Command@Long_Address_MSB:	; 4 bytes @ 0x9
  1444  00000A                     	ds   1
  1445  00000A                     ??_fputc:	; 1 bytes @ 0xA
  1446  00000B                     ??___xxtofl:	; 1 bytes @ 0xA
  1447  00000B                     	global	MSdelay@j
  1448                           MSdelay@j:	; 2 bytes @ 0xA
  1449  00000B                     	global	memset@n
  1450                           memset@n:	; 2 bytes @ 0xA
  1451  00000B                     	global	strlen@a
  1452                           strlen@a:	; 2 bytes @ 0xA
  1453  00000B                     	ds   1
  1454  00000B                     ??_sample:	; 1 bytes @ 0xB
  1455  00000C                     	global	AT_Command@action
  1456                           AT_Command@action:	; 1 bytes @ 0xB
  1457  00000C                     	ds   1
  1458  00000C                     ??_LCD_Command:	; 1 bytes @ 0xC
  1459  00000D                     ??_memset:	; 1 bytes @ 0xC
  1460  00000D                     ??_LCD_Char:	; 1 bytes @ 0xC
  1461  00000D                     ??_AT_Command:	; 1 bytes @ 0xC
  1462  00000D                     	global	LCD_Command@Command
  1463                           LCD_Command@Command:	; 1 bytes @ 0xC
  1464  00000D                     	global	LCD_Char@Data
  1465                           LCD_Char@Data:	; 1 bytes @ 0xC
  1466  00000D                     	ds   1
  1467  00000D                     ??_LCD_Init:	; 1 bytes @ 0xD
  1468  00000E                     ??_LCD_Clear:	; 1 bytes @ 0xD
  1469  00000E                     ?_LCD_String:	; 1 bytes @ 0xD
  1470  00000E                     	global	LCD_String@str
  1471                           LCD_String@str:	; 2 bytes @ 0xD
  1472  00000E                     	global	Remote_AT_Command@Long_Address_LSB
  1473                           Remote_AT_Command@Long_Address_LSB:	; 4 bytes @ 0xD
  1474  00000E                     	ds   1
  1475  00000E                     	global	___xxtofl@sign
  1476                           ___xxtofl@sign:	; 1 bytes @ 0xE
  1477  00000F                     	global	___aodiv@divisor
  1478                           ___aodiv@divisor:	; 8 bytes @ 0xE
  1479  00000F                     	global	___aomod@divisor
  1480                           ___aomod@divisor:	; 8 bytes @ 0xE
  1481  00000F                     	ds   1
  1482  00000F                     ??_LCD_String:	; 1 bytes @ 0xF
  1483  000010                     ?_LCD_String_xy:	; 1 bytes @ 0xF
  1484  000010                     ?_fputs:	; 2 bytes @ 0xF
  1485  000010                     	global	LCD_String_xy@pos
  1486                           LCD_String_xy@pos:	; 1 bytes @ 0xF
  1487  000010                     	global	___xxtofl@exp
  1488                           ___xxtofl@exp:	; 1 bytes @ 0xF
  1489  000010                     	global	fputs@s
  1490                           fputs@s:	; 2 bytes @ 0xF
  1491  000010                     	ds   1
  1492  000010                     	global	LCD_String_xy@msg
  1493                           LCD_String_xy@msg:	; 2 bytes @ 0x10
  1494  000011                     	global	AT_Command@Checksum
  1495                           AT_Command@Checksum:	; 2 bytes @ 0x10
  1496  000011                     	global	memset@k
  1497                           memset@k:	; 2 bytes @ 0x10
  1498  000011                     	global	___xxtofl@arg
  1499                           ___xxtofl@arg:	; 4 bytes @ 0x10
  1500  000011                     	ds   1
  1501  000011                     	global	Remote_AT_Command@Short_Address
  1502                           Remote_AT_Command@Short_Address:	; 2 bytes @ 0x11
  1503  000012                     	global	fputs@fp
  1504                           fputs@fp:	; 2 bytes @ 0x11
  1505  000012                     	ds   1
  1506  000012                     ??_LCD_String_xy:	; 1 bytes @ 0x12
  1507  000013                     	global	LCD_String_xy@row
  1508                           LCD_String_xy@row:	; 1 bytes @ 0x12
  1509  000013                     	global	AT_Command@Length
  1510                           AT_Command@Length:	; 2 bytes @ 0x12
  1511  000013                     	global	memset@s
  1512                           memset@s:	; 2 bytes @ 0x12
  1513  000013                     	ds   1
  1514  000013                     ??_fputs:	; 1 bytes @ 0x13
  1515  000014                     	global	LCD_String_xy@location
  1516                           LCD_String_xy@location:	; 1 bytes @ 0x13
  1517  000014                     	global	fputs@c
  1518                           fputs@c:	; 1 bytes @ 0x13
  1519  000014                     	global	sample@Length
  1520                           sample@Length:	; 2 bytes @ 0x13
  1521  000014                     	global	Remote_AT_Command@ATCommand
  1522                           Remote_AT_Command@ATCommand:	; 2 bytes @ 0x13
  1523  000014                     	ds   1
  1524  000014                     ?_Write_AT_Command:	; 1 bytes @ 0x14
  1525  000015                     	global	?___fldiv
  1526                           ?___fldiv:	; 4 bytes @ 0x14
  1527  000015                     	global	Write_AT_Command@ATCommand
  1528                           Write_AT_Command@ATCommand:	; 2 bytes @ 0x14
  1529  000015                     	global	fputs@i
  1530                           fputs@i:	; 2 bytes @ 0x14
  1531  000015                     	global	___fldiv@b
  1532                           ___fldiv@b:	; 4 bytes @ 0x14
  1533  000015                     	ds   1
  1534  000015                     	global	sample@Frame_Type
  1535                           sample@Frame_Type:	; 1 bytes @ 0x15
  1536  000016                     	global	Remote_AT_Command@action
  1537                           Remote_AT_Command@action:	; 1 bytes @ 0x15
  1538  000016                     	ds   1
  1539  000016                     ??_Remote_AT_Command:	; 1 bytes @ 0x16
  1540  000017                     ??___aodiv:	; 1 bytes @ 0x16
  1541  000017                     ??___aomod:	; 1 bytes @ 0x16
  1542  000017                     	global	?_pad
  1543                           ?_pad:	; 2 bytes @ 0x16
  1544  000017                     	global	___aodiv@counter
  1545                           ___aodiv@counter:	; 1 bytes @ 0x16
  1546  000017                     	global	___aomod@counter
  1547                           ___aomod@counter:	; 1 bytes @ 0x16
  1548  000017                     	global	sample@Digital_Value
  1549                           sample@Digital_Value:	; 2 bytes @ 0x16
  1550  000017                     	global	pad@fp
  1551                           pad@fp:	; 2 bytes @ 0x16
  1552  000017                     	global	Write_AT_Command@_CommandValue
  1553                           Write_AT_Command@_CommandValue:	; 4 bytes @ 0x16
  1554  000017                     	ds   1
  1555  000017                     	global	___aodiv@sign
  1556                           ___aodiv@sign:	; 1 bytes @ 0x17
  1557  000018                     	global	___aomod@sign
  1558                           ___aomod@sign:	; 1 bytes @ 0x17
  1559  000018                     	ds   1
  1560  000018                     	global	?_abs
  1561                           ?_abs:	; 2 bytes @ 0x18
  1562  000019                     	global	sample@Is_Analog
  1563                           sample@Is_Analog:	; 1 bytes @ 0x18
  1564  000019                     	global	pad@buf
  1565                           pad@buf:	; 2 bytes @ 0x18
  1566  000019                     	global	abs@a
  1567                           abs@a:	; 2 bytes @ 0x18
  1568  000019                     	global	___fldiv@a
  1569                           ___fldiv@a:	; 4 bytes @ 0x18
  1570  000019                     	global	___aodiv@quotient
  1571                           ___aodiv@quotient:	; 8 bytes @ 0x18
  1572  000019                     	ds   1
  1573  000019                     	global	sample@Is_Digital
  1574                           sample@Is_Digital:	; 2 bytes @ 0x19
  1575  00001A                     	ds   1
  1576  00001A                     ??_abs:	; 1 bytes @ 0x1A
  1577  00001B                     ??_Write_AT_Command:	; 1 bytes @ 0x1A
  1578  00001B                     ??_SetTo_Broadcast:	; 1 bytes @ 0x1A
  1579  00001B                     	global	Remote_AT_Command@i_554
  1580                           Remote_AT_Command@i_554:	; 2 bytes @ 0x1A
  1581  00001B                     	global	pad@p
  1582                           pad@p:	; 2 bytes @ 0x1A
  1583  00001B                     	ds   1
  1584  00001B                     	global	sample@j
  1585                           sample@j:	; 1 bytes @ 0x1B
  1586  00001C                     	ds   1
  1587  00001C                     ??___fldiv:	; 1 bytes @ 0x1C
  1588  00001D                     ??_pad:	; 1 bytes @ 0x1C
  1589  00001D                     	global	sample@i_529
  1590                           sample@i_529:	; 1 bytes @ 0x1C
  1591  00001D                     	global	Remote_AT_Command@i
  1592                           Remote_AT_Command@i:	; 1 bytes @ 0x1C
  1593  00001D                     	ds   1
  1594  00001D                     	global	sample@i
  1595                           sample@i:	; 1 bytes @ 0x1D
  1596  00001E                     	global	Remote_AT_Command@i_551
  1597                           Remote_AT_Command@i_551:	; 1 bytes @ 0x1D
  1598  00001E                     	global	pad@i
  1599                           pad@i:	; 2 bytes @ 0x1D
  1600  00001E                     	ds   1
  1601  00001E                     ??_Get_Sample:	; 1 bytes @ 0x1E
  1602  00001F                     	global	Remote_AT_Command@i_552
  1603                           Remote_AT_Command@i_552:	; 1 bytes @ 0x1E
  1604  00001F                     	global	Get_Sample@count
  1605                           Get_Sample@count:	; 2 bytes @ 0x1E
  1606  00001F                     	ds   1
  1607  00001F                     	global	Remote_AT_Command@i_553
  1608                           Remote_AT_Command@i_553:	; 1 bytes @ 0x1F
  1609  000020                     	global	pad@w
  1610                           pad@w:	; 2 bytes @ 0x1F
  1611  000020                     	ds   1
  1612  000020                     	global	Remote_AT_Command@Length
  1613                           Remote_AT_Command@Length:	; 2 bytes @ 0x20
  1614  000021                     	global	___fldiv@rem
  1615                           ___fldiv@rem:	; 4 bytes @ 0x20
  1616  000021                     	ds   1
  1617  000021                     	global	?_dtoa
  1618                           ?_dtoa:	; 2 bytes @ 0x21
  1619  000022                     	global	dtoa@fp
  1620                           dtoa@fp:	; 2 bytes @ 0x21
  1621  000022                     	ds   1
  1622  000022                     	global	Remote_AT_Command@Checksum
  1623                           Remote_AT_Command@Checksum:	; 2 bytes @ 0x22
  1624  000023                     	ds   1
  1625  000023                     	global	dtoa@d
  1626                           dtoa@d:	; 8 bytes @ 0x23
  1627  000024                     	ds   1
  1628  000024                     ?_Write_Remote_AT_Command:	; 1 bytes @ 0x24
  1629  000025                     	global	___fldiv@sign
  1630                           ___fldiv@sign:	; 1 bytes @ 0x24
  1631  000025                     	global	Write_Remote_AT_Command@Long_Address_MSB
  1632                           Write_Remote_AT_Command@Long_Address_MSB:	; 4 bytes @ 0x24
  1633  000025                     	ds   1
  1634  000025                     	global	___fldiv@new_exp
  1635                           ___fldiv@new_exp:	; 2 bytes @ 0x25
  1636  000026                     	ds   2
  1637  000026                     	global	___fldiv@grs
  1638                           ___fldiv@grs:	; 4 bytes @ 0x27
  1639  000028                     	ds   1
  1640  000028                     	global	Write_Remote_AT_Command@Long_Address_LSB
  1641                           Write_Remote_AT_Command@Long_Address_LSB:	; 4 bytes @ 0x28
  1642  000029                     	ds   3
  1643  000029                     ??_dtoa:	; 1 bytes @ 0x2B
  1644  00002C                     	global	___fldiv@bexp
  1645                           ___fldiv@bexp:	; 1 bytes @ 0x2B
  1646  00002C                     	ds   1
  1647  00002C                     	global	___fldiv@aexp
  1648                           ___fldiv@aexp:	; 1 bytes @ 0x2C
  1649  00002D                     	global	Write_Remote_AT_Command@Short_Address
  1650                           Write_Remote_AT_Command@Short_Address:	; 2 bytes @ 0x2C
  1651  00002D                     	ds   1
  1652  00002D                     	global	?___fladd
  1653                           ?___fladd:	; 4 bytes @ 0x2D
  1654  00002E                     	global	___fladd@b
  1655                           ___fladd@b:	; 4 bytes @ 0x2D
  1656  00002E                     	ds   1
  1657  00002E                     	global	Write_Remote_AT_Command@ATCommand
  1658                           Write_Remote_AT_Command@ATCommand:	; 2 bytes @ 0x2E
  1659  00002F                     	ds   2
  1660  00002F                     	global	Write_Remote_AT_Command@_CommandValue
  1661                           Write_Remote_AT_Command@_CommandValue:	; 4 bytes @ 0x30
  1662  000031                     	ds   1
  1663  000031                     	global	___fladd@a
  1664                           ___fladd@a:	; 4 bytes @ 0x31
  1665  000032                     	ds   2
  1666  000032                     	global	_dtoa$708
  1667                           _dtoa$708:	; 2 bytes @ 0x33
  1668  000034                     	ds   1
  1669  000034                     ??_Write_Remote_AT_Command:	; 1 bytes @ 0x34
  1670  000035                     	ds   1
  1671  000035                     ??___fladd:	; 1 bytes @ 0x35
  1672  000036                     	global	dtoa@p
  1673                           dtoa@p:	; 2 bytes @ 0x35
  1674  000036                     	ds   2
  1675  000036                     	global	dtoa@w
  1676                           dtoa@w:	; 2 bytes @ 0x37
  1677  000038                     	ds   2
  1678  000038                     	global	dtoa@s
  1679                           dtoa@s:	; 2 bytes @ 0x39
  1680  00003A                     	ds   2
  1681  00003A                     	global	dtoa@n
  1682                           dtoa@n:	; 8 bytes @ 0x3B
  1683  00003C                     	ds   2
  1684  00003C                     	global	___fladd@signs
  1685                           ___fladd@signs:	; 1 bytes @ 0x3D
  1686  00003E                     	ds   1
  1687  00003E                     	global	___fladd@aexp
  1688                           ___fladd@aexp:	; 1 bytes @ 0x3E
  1689  00003F                     	ds   1
  1690  00003F                     	global	___fladd@bexp
  1691                           ___fladd@bexp:	; 1 bytes @ 0x3F
  1692  000040                     	ds   1
  1693  000040                     	global	___fladd@grs
  1694                           ___fladd@grs:	; 1 bytes @ 0x40
  1695  000041                     	ds   1
  1696  000041                     	global	?___fltol
  1697                           ?___fltol:	; 4 bytes @ 0x41
  1698  000042                     	global	___fltol@f1
  1699                           ___fltol@f1:	; 4 bytes @ 0x41
  1700  000042                     	ds   2
  1701  000042                     	global	dtoa@i
  1702                           dtoa@i:	; 2 bytes @ 0x43
  1703  000044                     	ds   2
  1704  000044                     ??___fltol:	; 1 bytes @ 0x45
  1705  000046                     	global	?_vfpfcnvrt
  1706                           ?_vfpfcnvrt:	; 2 bytes @ 0x45
  1707  000046                     	global	vfpfcnvrt@fp
  1708                           vfpfcnvrt@fp:	; 2 bytes @ 0x45
  1709  000046                     	ds   2
  1710  000046                     	global	vfpfcnvrt@fmt
  1711                           vfpfcnvrt@fmt:	; 2 bytes @ 0x47
  1712  000048                     	ds   2
  1713  000048                     	global	___fltol@sign1
  1714                           ___fltol@sign1:	; 1 bytes @ 0x49
  1715  00004A                     	global	vfpfcnvrt@ap
  1716                           vfpfcnvrt@ap:	; 2 bytes @ 0x49
  1717  00004A                     	ds   1
  1718  00004A                     	global	___fltol@exp1
  1719                           ___fltol@exp1:	; 1 bytes @ 0x4A
  1720  00004B                     	ds   1
  1721  00004B                     ?_USART_Init:	; 1 bytes @ 0x4B
  1722  00004C                     ??_vfpfcnvrt:	; 1 bytes @ 0x4B
  1723  00004C                     	global	USART_Init@baud_rate
  1724                           USART_Init@baud_rate:	; 4 bytes @ 0x4B
  1725  00004C                     	ds   2
  1726  00004C                     	global	vfpfcnvrt@ll
  1727                           vfpfcnvrt@ll:	; 8 bytes @ 0x4D
  1728  00004E                     	ds   2
  1729  00004E                     ??_USART_Init:	; 1 bytes @ 0x4F
  1730  000050                     	ds   6
  1731  000050                     	global	?_vfprintf
  1732                           ?_vfprintf:	; 2 bytes @ 0x55
  1733  000056                     	global	vfprintf@fp
  1734                           vfprintf@fp:	; 2 bytes @ 0x55
  1735  000056                     	ds   2
  1736  000056                     	global	vfprintf@fmt
  1737                           vfprintf@fmt:	; 2 bytes @ 0x57
  1738  000058                     	ds   2
  1739  000058                     	global	vfprintf@ap
  1740                           vfprintf@ap:	; 2 bytes @ 0x59
  1741  00005A                     	ds   2
  1742  00005A                     ??_vfprintf:	; 1 bytes @ 0x5B
  1743  00005C                     	global	vfprintf@cfmt
  1744                           vfprintf@cfmt:	; 2 bytes @ 0x5B
  1745  00005C                     	ds   2
  1746  00005C                     	global	?_sprintf
  1747                           ?_sprintf:	; 2 bytes @ 0x5D
  1748  00005E                     	global	sprintf@s
  1749                           sprintf@s:	; 2 bytes @ 0x5D
  1750  00005E                     	ds   2
  1751  00005E                     	global	sprintf@fmt
  1752                           sprintf@fmt:	; 2 bytes @ 0x5F
  1753  000060                     	ds   4
  1754  000060                     ??_sprintf:	; 1 bytes @ 0x63
  1755  000064                     ??_main:	; 1 bytes @ 0x63
  1756  000064                     ;!
  1757                           ;!Data Sizes:
  1758                           ;!    Strings     99
  1759                           ;!    Constant    0
  1760                           ;!    Data        0
  1761                           ;!    BSS         182
  1762                           ;!    Persistent  0
  1763                           ;!    Stack       0
  1764                           ;!
  1765                           ;!Auto Spaces:
  1766                           ;!    Space          Size  Autos    Used
  1767                           ;!    COMRAM          126     99     115
  1768                           ;!    BANK0           128     43     109
  1769                           ;!    BANK1           256      0     100
  1770                           ;!    BANK2           256      0       0
  1771                           ;!    BANK3           256      0       0
  1772                           ;!    BANK4           256      0       0
  1773                           ;!    BANK5           244      0       0
  1774                           
  1775                           ;!
  1776                           ;!Pointer List with Targets:
  1777                           ;!
  1778                           ;!    strlen@s	PTR const unsigned char  size(2) Largest target is 32
  1779                           ;!		 -> dbuf(BANK0[32]), 
  1780                           ;!
  1781                           ;!    strlen@a	PTR const unsigned char  size(2) Largest target is 32
  1782                           ;!		 -> dbuf(BANK0[32]), 
  1783                           ;!
  1784                           ;!    sprintf@fmt	PTR const unsigned char  size(2) Largest target is 15
  1785                           ;!		 -> STR_9(CODE[15]), 
  1786                           ;!
  1787                           ;!    sprintf@s	PTR unsigned char  size(2) Largest target is 25
  1788                           ;!		 -> main@_buffer(BANK0[25]), 
  1789                           ;!
  1790                           ;!    sprintf@ap	PTR void [1] size(2) Largest target is 2
  1791                           ;!		 -> ?_sprintf(COMRAM[2]), 
  1792                           ;!
  1793                           ;!    f.buffer	PTR unsigned char  size(2) Largest target is 25
  1794                           ;!		 -> main@_buffer(BANK0[25]), 
  1795                           ;!
  1796                           ;!    fputs@s	PTR const unsigned char  size(2) Largest target is 32
  1797                           ;!		 -> dbuf(BANK0[32]), 
  1798                           ;!
  1799                           ;!    fputs@fp	PTR struct _IO_FILE size(2) Largest target is 7
  1800                           ;!		 -> sprintf@f(BANK0[6]), 
  1801                           ;!
  1802                           ;!    S1176_IO_FILE$buffer	PTR unsigned char  size(2) Largest target is 25
  1803                           ;!		 -> main@_buffer(BANK0[25]), 
  1804                           ;!
  1805                           ;!    fputc@fp.buffer	PTR unsigned char  size(2) Largest target is 25
  1806                           ;!		 -> main@_buffer(BANK0[25]), 
  1807                           ;!
  1808                           ;!    fputc@fp	PTR struct _IO_FILE size(2) Largest target is 7
  1809                           ;!		 -> sprintf@f(BANK0[6]), 
  1810                           ;!
  1811                           ;!    memset@dest	PTR void  size(2) Largest target is 100
  1812                           ;!		 -> main@_buffer(BANK0[25]), ReceiveBuffer(BANK1[100]), 
  1813                           ;!
  1814                           ;!    memset@s	PTR unsigned char  size(2) Largest target is 100
  1815                           ;!		 -> main@_buffer(BANK0[25]), ReceiveBuffer(BANK1[100]), 
  1816                           ;!
  1817                           ;!    vfprintf@ap	PTR PTR void  size(2) Largest target is 2
  1818                           ;!		 -> sprintf@ap(BANK0[2]), 
  1819                           ;!
  1820                           ;!    vfprintf@fp	PTR struct _IO_FILE size(2) Largest target is 7
  1821                           ;!		 -> sprintf@f(BANK0[6]), 
  1822                           ;!
  1823                           ;!    vfprintf@fmt	PTR const unsigned char  size(2) Largest target is 15
  1824                           ;!		 -> STR_9(CODE[15]), 
  1825                           ;!
  1826                           ;!    vfprintf@cfmt	PTR unsigned char  size(2) Largest target is 15
  1827                           ;!		 -> STR_9(CODE[15]), 
  1828                           ;!
  1829                           ;!    vfpfcnvrt@fp	PTR struct _IO_FILE size(2) Largest target is 7
  1830                           ;!		 -> sprintf@f(BANK0[6]), 
  1831                           ;!
  1832                           ;!    vfpfcnvrt@ap	PTR PTR void  size(2) Largest target is 2
  1833                           ;!		 -> sprintf@ap(BANK0[2]), 
  1834                           ;!
  1835                           ;!    vfpfcnvrt@fmt	PTR PTR unsigned char  size(2) Largest target is 2
  1836                           ;!		 -> vfprintf@cfmt(COMRAM[2]), 
  1837                           ;!
  1838                           ;!    dtoa@fp	PTR struct _IO_FILE size(2) Largest target is 7
  1839                           ;!		 -> sprintf@f(BANK0[6]), 
  1840                           ;!
  1841                           ;!    pad@fp	PTR struct _IO_FILE size(2) Largest target is 7
  1842                           ;!		 -> sprintf@f(BANK0[6]), 
  1843                           ;!
  1844                           ;!    pad@buf	PTR unsigned char  size(2) Largest target is 32
  1845                           ;!		 -> dbuf(BANK0[32]), 
  1846                           ;!
  1847                           ;!    USART_SendString@str	PTR const unsigned char  size(2) Largest target is 3
  1848                           ;!		 -> STR_8(CODE[3]), STR_2(CODE[3]), STR_1(CODE[3]), 
  1849                           ;!
  1850                           ;!    Write_Remote_AT_Command@ATCommand	PTR unsigned char  size(2) Largest target is 3
  1851                           ;!		 -> STR_8(CODE[3]), 
  1852                           ;!
  1853                           ;!    Write_AT_Command@ATCommand	PTR unsigned char  size(2) Largest target is 3
  1854                           ;!		 -> STR_2(CODE[3]), STR_1(CODE[3]), 
  1855                           ;!
  1856                           ;!    AT_Command@ATCommand	PTR const unsigned char  size(2) Largest target is 3
  1857                           ;!		 -> STR_2(CODE[3]), STR_1(CODE[3]), 
  1858                           ;!
  1859                           ;!    Remote_AT_Command@ATCommand	PTR const unsigned char  size(2) Largest target is 3
  1860                           ;!		 -> STR_8(CODE[3]), 
  1861                           ;!
  1862                           ;!    sp__memset	PTR void  size(2) Largest target is 100
  1863                           ;!		 -> main@_buffer(BANK0[25]), ReceiveBuffer(BANK1[100]), 
  1864                           ;!
  1865                           ;!    LCD_String_xy@msg	PTR const unsigned char  size(2) Largest target is 25
  1866                           ;!		 -> main@_buffer(BANK0[25]), STR_7(CODE[17]), STR_6(CODE[17]), STR_5(CODE[17]), 
  1867                           ;!		 -> STR_4(CODE[9]), STR_3(CODE[15]), 
  1868                           ;!
  1869                           ;!    LCD_String@str	PTR const unsigned char  size(2) Largest target is 25
  1870                           ;!		 -> main@_buffer(BANK0[25]), STR_7(CODE[17]), STR_6(CODE[17]), STR_5(CODE[17]), 
  1871                           ;!		 -> STR_4(CODE[9]), STR_3(CODE[15]), 
  1872                           ;!
  1873                           
  1874                           
  1875                           ;!
  1876                           ;!Critical Paths under _main in COMRAM
  1877                           ;!
  1878                           ;!    _main->_sprintf
  1879                           ;!    _sprintf->_vfprintf
  1880                           ;!    _vfprintf->_vfpfcnvrt
  1881                           ;!    _vfpfcnvrt->_dtoa
  1882                           ;!    _dtoa->_pad
  1883                           ;!    _pad->_fputs
  1884                           ;!    _fputs->_fputc
  1885                           ;!    _abs->___aomod
  1886                           ;!    _Write_Remote_AT_Command->_Remote_AT_Command
  1887                           ;!    _Remote_AT_Command->_USART_SendString
  1888                           ;!    _USART_Init->___fltol
  1889                           ;!    ___fltol->___fladd
  1890                           ;!    ___fldiv->___xxtofl
  1891                           ;!    ___fladd->___fldiv
  1892                           ;!    _SetTo_Broadcast->_Write_AT_Command
  1893                           ;!    _Write_AT_Command->_AT_Command
  1894                           ;!    _AT_Command->_USART_SendString
  1895                           ;!    _USART_SendString->_USART_TxChar
  1896                           ;!    _LCD_String_xy->_LCD_String
  1897                           ;!    _LCD_String->_LCD_Char
  1898                           ;!    _LCD_Char->_MSdelay
  1899                           ;!    _LCD_Init->_LCD_Command
  1900                           ;!    _LCD_Clear->_LCD_Command
  1901                           ;!    _LCD_Command->_MSdelay
  1902                           ;!    _Get_Sample->_sample
  1903                           ;!    _sample->_Is_Checksum_Correct
  1904                           ;!
  1905                           ;!Critical Paths under _LO_ISR in COMRAM
  1906                           ;!
  1907                           ;!    None.
  1908                           ;!
  1909                           ;!Critical Paths under _main in BANK0
  1910                           ;!
  1911                           ;!    _main->_sprintf
  1912                           ;!
  1913                           ;!Critical Paths under _LO_ISR in BANK0
  1914                           ;!
  1915                           ;!    None.
  1916                           ;!
  1917                           ;!Critical Paths under _main in BANK1
  1918                           ;!
  1919                           ;!    None.
  1920                           ;!
  1921                           ;!Critical Paths under _LO_ISR in BANK1
  1922                           ;!
  1923                           ;!    None.
  1924                           ;!
  1925                           ;!Critical Paths under _main in BANK2
  1926                           ;!
  1927                           ;!    None.
  1928                           ;!
  1929                           ;!Critical Paths under _LO_ISR in BANK2
  1930                           ;!
  1931                           ;!    None.
  1932                           ;!
  1933                           ;!Critical Paths under _main in BANK3
  1934                           ;!
  1935                           ;!    None.
  1936                           ;!
  1937                           ;!Critical Paths under _LO_ISR in BANK3
  1938                           ;!
  1939                           ;!    None.
  1940                           ;!
  1941                           ;!Critical Paths under _main in BANK4
  1942                           ;!
  1943                           ;!    None.
  1944                           ;!
  1945                           ;!Critical Paths under _LO_ISR in BANK4
  1946                           ;!
  1947                           ;!    None.
  1948                           ;!
  1949                           ;!Critical Paths under _main in BANK5
  1950                           ;!
  1951                           ;!    None.
  1952                           ;!
  1953                           ;!Critical Paths under _LO_ISR in BANK5
  1954                           ;!
  1955                           ;!    None.
  1956                           
  1957 ;;
  1958 ;;Main: autosize = 0, tempsize = 0, incstack = 0, save=0
  1959 ;;
  1960                           
  1961                           ;!
  1962                           ;!Call Graph Tables:
  1963                           ;!
  1964                           ;! ---------------------------------------------------------------------------------
  1965                           ;! (Depth) Function   	        Calls       Base Space   Used Autos Params    Refs
  1966                           ;! ---------------------------------------------------------------------------------
  1967                           ;! (0) _main                                                37    37      0   30112
  1968                           ;!                                             10 BANK0     33    33      0
  1969                           ;!                         _Get_Sample
  1970                           ;!                          _LCD_Clear
  1971                           ;!                           _LCD_Init
  1972                           ;!                      _LCD_String_xy
  1973                           ;!                            _MSdelay
  1974                           ;!                    _SetTo_Broadcast
  1975                           ;!                         _USART_Init
  1976                           ;!            _Write_Remote_AT_Command
  1977                           ;!                             _memset
  1978                           ;!                            _sprintf
  1979                           ;! ---------------------------------------------------------------------------------
  1980                           ;! (1) _sprintf                                             16    10      6    8417
  1981                           ;!                                             93 COMRAM     6     0      6
  1982                           ;!                                              0 BANK0     10    10      0
  1983                           ;!                           _vfprintf
  1984                           ;! ---------------------------------------------------------------------------------
  1985                           ;! (2) _vfprintf                                             8     2      6    7931
  1986                           ;!                                             85 COMRAM     8     2      6
  1987                           ;!                          _vfpfcnvrt
  1988                           ;! ---------------------------------------------------------------------------------
  1989                           ;! (3) _vfpfcnvrt                                           42    36      6    7458
  1990                           ;!                                             69 COMRAM    16    10      6
  1991                           ;!                               _dtoa
  1992                           ;!                              _fputc
  1993                           ;! ---------------------------------------------------------------------------------
  1994                           ;! (4) _dtoa                                                36    26     10    5683
  1995                           ;!                                             33 COMRAM    36    26     10
  1996                           ;!                            ___aodiv
  1997                           ;!                            ___aomod
  1998                           ;!                                _abs
  1999                           ;!                                _pad
  2000                           ;! ---------------------------------------------------------------------------------
  2001                           ;! (5) _pad                                                 11     5      6    3417
  2002                           ;!                                             22 COMRAM    11     5      6
  2003                           ;!                              _fputc
  2004                           ;!                              _fputs
  2005                           ;!                             _strlen
  2006                           ;! ---------------------------------------------------------------------------------
  2007                           ;! (6) _strlen                                               6     4      2     220
  2008                           ;!                                              6 COMRAM     6     4      2
  2009                           ;! ---------------------------------------------------------------------------------
  2010                           ;! (6) _fputs                                                7     3      4    1537
  2011                           ;!                                             15 COMRAM     7     3      4
  2012                           ;!                              _fputc
  2013                           ;! ---------------------------------------------------------------------------------
  2014                           ;! (4) _fputc                                                9     5      4    1037
  2015                           ;!                                              6 COMRAM     9     5      4
  2016                           ;!                              _putch
  2017                           ;! ---------------------------------------------------------------------------------
  2018                           ;! (5) _putch                                                1     1      0       0
  2019                           ;! ---------------------------------------------------------------------------------
  2020                           ;! (5) _abs                                                  4     2      2     183
  2021                           ;!                                             24 COMRAM     4     2      2
  2022                           ;!                            ___aomod (ARG)
  2023                           ;! ---------------------------------------------------------------------------------
  2024                           ;! (5) ___aomod                                             18     2     16     613
  2025                           ;!                                              6 COMRAM    18     2     16
  2026                           ;! ---------------------------------------------------------------------------------
  2027                           ;! (5) ___aodiv                                             26    10     16     625
  2028                           ;!                                              6 COMRAM    26    10     16
  2029                           ;! ---------------------------------------------------------------------------------
  2030                           ;! (1) _Write_Remote_AT_Command                             16     0     16    2055
  2031                           ;!                                             36 COMRAM    16     0     16
  2032                           ;!                  _Remote_AT_Command
  2033                           ;! ---------------------------------------------------------------------------------
  2034                           ;! (2) _Remote_AT_Command                                   27    14     13    1565
  2035                           ;!                                              9 COMRAM    27    14     13
  2036                           ;!                   _USART_SendString
  2037                           ;!                       _USART_TxChar
  2038                           ;! ---------------------------------------------------------------------------------
  2039                           ;! (1) _USART_Init                                           4     0      4    4588
  2040                           ;!                                             75 COMRAM     4     0      4
  2041                           ;!                            ___fladd
  2042                           ;!                            ___fldiv
  2043                           ;!                            ___fltol
  2044                           ;!                           ___xxtofl
  2045                           ;! ---------------------------------------------------------------------------------
  2046                           ;! (2) ___xxtofl                                            14    10      4     398
  2047                           ;!                                              6 COMRAM    14    10      4
  2048                           ;! ---------------------------------------------------------------------------------
  2049                           ;! (2) ___fltol                                             10     6      4     305
  2050                           ;!                                             65 COMRAM    10     6      4
  2051                           ;!                            ___fladd (ARG)
  2052                           ;!                            ___fldiv (ARG)
  2053                           ;!                           ___xxtofl (ARG)
  2054                           ;! ---------------------------------------------------------------------------------
  2055                           ;! (2) ___fldiv                                             25    17      8    1399
  2056                           ;!                                             20 COMRAM    25    17      8
  2057                           ;!                           ___xxtofl (ARG)
  2058                           ;! ---------------------------------------------------------------------------------
  2059                           ;! (2) ___fladd                                             20    12      8    2388
  2060                           ;!                                             45 COMRAM    20    12      8
  2061                           ;!                            ___fldiv (ARG)
  2062                           ;!                           ___xxtofl (ARG)
  2063                           ;! ---------------------------------------------------------------------------------
  2064                           ;! (1) _SetTo_Broadcast                                      0     0      0    2213
  2065                           ;!                            _MSdelay
  2066                           ;!                   _Write_AT_Command
  2067                           ;! ---------------------------------------------------------------------------------
  2068                           ;! (2) _Write_AT_Command                                     6     0      6    1209
  2069                           ;!                                             20 COMRAM     6     0      6
  2070                           ;!                         _AT_Command
  2071                           ;! ---------------------------------------------------------------------------------
  2072                           ;! (3) _AT_Command                                          11     8      3     861
  2073                           ;!                                              9 COMRAM    11     8      3
  2074                           ;!                   _USART_SendString
  2075                           ;!                       _USART_TxChar
  2076                           ;! ---------------------------------------------------------------------------------
  2077                           ;! (3) _USART_SendString                                     2     0      2     219
  2078                           ;!                                              7 COMRAM     2     0      2
  2079                           ;!                       _USART_TxChar
  2080                           ;! ---------------------------------------------------------------------------------
  2081                           ;! (3) _USART_TxChar                                         1     1      0      22
  2082                           ;!                                              6 COMRAM     1     1      0
  2083                           ;! ---------------------------------------------------------------------------------
  2084                           ;! (1) _LCD_String_xy                                        5     2      3    3242
  2085                           ;!                                             15 COMRAM     5     2      3
  2086                           ;!                        _LCD_Command
  2087                           ;!                         _LCD_String
  2088                           ;! ---------------------------------------------------------------------------------
  2089                           ;! (2) _LCD_String                                           2     0      2    1147
  2090                           ;!                                             13 COMRAM     2     0      2
  2091                           ;!                           _LCD_Char
  2092                           ;! ---------------------------------------------------------------------------------
  2093                           ;! (3) _LCD_Char                                             1     1      0    1026
  2094                           ;!                                             12 COMRAM     1     1      0
  2095                           ;!                            _MSdelay
  2096                           ;! ---------------------------------------------------------------------------------
  2097                           ;! (1) _LCD_Init                                             0     0      0    2030
  2098                           ;!                        _LCD_Command
  2099                           ;!                            _MSdelay
  2100                           ;! ---------------------------------------------------------------------------------
  2101                           ;! (1) _LCD_Clear                                            0     0      0    2030
  2102                           ;!                        _LCD_Command
  2103                           ;!                            _MSdelay
  2104                           ;! ---------------------------------------------------------------------------------
  2105                           ;! (2) _LCD_Command                                          1     1      0    1026
  2106                           ;!                                             12 COMRAM     1     1      0
  2107                           ;!                            _MSdelay
  2108                           ;! ---------------------------------------------------------------------------------
  2109                           ;! (1) _Get_Sample                                           2     2      0    3125
  2110                           ;!                                             30 COMRAM     2     2      0
  2111                           ;!                   _Is_Data_Received
  2112                           ;!                            _MSdelay
  2113                           ;!                             _memset
  2114                           ;!                             _sample
  2115                           ;! ---------------------------------------------------------------------------------
  2116                           ;! (2) _sample                                              19    19      0     832
  2117                           ;!                                             11 COMRAM    19    19      0
  2118                           ;!                _Is_Checksum_Correct
  2119                           ;!                   _Is_Data_Received
  2120                           ;! ---------------------------------------------------------------------------------
  2121                           ;! (3) _Is_Data_Received                                     1     1      0      90
  2122                           ;!                                              6 COMRAM     1     1      0
  2123                           ;! ---------------------------------------------------------------------------------
  2124                           ;! (3) _Is_Checksum_Correct                                  5     5      0     115
  2125                           ;!                                              6 COMRAM     5     5      0
  2126                           ;! ---------------------------------------------------------------------------------
  2127                           ;! (1) _memset                                              14     8      6    1175
  2128                           ;!                                              6 COMRAM    14     8      6
  2129                           ;! ---------------------------------------------------------------------------------
  2130                           ;! (2) _MSdelay                                              6     4      2    1004
  2131                           ;!                                              6 COMRAM     6     4      2
  2132                           ;! ---------------------------------------------------------------------------------
  2133                           ;! Estimated maximum stack depth 6
  2134                           ;! ---------------------------------------------------------------------------------
  2135                           ;! (Depth) Function   	        Calls       Base Space   Used Autos Params    Refs
  2136                           ;! ---------------------------------------------------------------------------------
  2137                           ;! (9) _LO_ISR                                               6     6      0      67
  2138                           ;!                                              0 COMRAM     6     6      0
  2139                           ;! ---------------------------------------------------------------------------------
  2140                           ;! Estimated maximum stack depth 9
  2141                           ;! ---------------------------------------------------------------------------------
  2142                           ;!
  2143                           ;! Call Graph Graphs:
  2144                           ;!
  2145                           ;! _main (ROOT)
  2146                           ;!   _Get_Sample
  2147                           ;!     _Is_Data_Received
  2148                           ;!     _MSdelay
  2149                           ;!     _memset
  2150                           ;!     _sample
  2151                           ;!       _Is_Checksum_Correct
  2152                           ;!       _Is_Data_Received
  2153                           ;!   _LCD_Clear
  2154                           ;!     _LCD_Command
  2155                           ;!       _MSdelay
  2156                           ;!     _MSdelay
  2157                           ;!   _LCD_Init
  2158                           ;!     _LCD_Command
  2159                           ;!       _MSdelay
  2160                           ;!     _MSdelay
  2161                           ;!   _LCD_String_xy
  2162                           ;!     _LCD_Command
  2163                           ;!       _MSdelay
  2164                           ;!     _LCD_String
  2165                           ;!       _LCD_Char
  2166                           ;!         _MSdelay
  2167                           ;!   _MSdelay
  2168                           ;!   _SetTo_Broadcast
  2169                           ;!     _MSdelay
  2170                           ;!     _Write_AT_Command
  2171                           ;!       _AT_Command
  2172                           ;!         _USART_SendString
  2173                           ;!           _USART_TxChar
  2174                           ;!         _USART_TxChar
  2175                           ;!   _USART_Init
  2176                           ;!     ___fladd
  2177                           ;!       ___fldiv (ARG)
  2178                           ;!         ___xxtofl (ARG)
  2179                           ;!       ___xxtofl (ARG)
  2180                           ;!     ___fldiv
  2181                           ;!       ___xxtofl (ARG)
  2182                           ;!     ___fltol
  2183                           ;!       ___fladd (ARG)
  2184                           ;!         ___fldiv (ARG)
  2185                           ;!           ___xxtofl (ARG)
  2186                           ;!         ___xxtofl (ARG)
  2187                           ;!       ___fldiv (ARG)
  2188                           ;!         ___xxtofl (ARG)
  2189                           ;!       ___xxtofl (ARG)
  2190                           ;!     ___xxtofl
  2191                           ;!   _Write_Remote_AT_Command
  2192                           ;!     _Remote_AT_Command
  2193                           ;!       _USART_SendString
  2194                           ;!         _USART_TxChar
  2195                           ;!       _USART_TxChar
  2196                           ;!   _memset
  2197                           ;!   _sprintf
  2198                           ;!     _vfprintf
  2199                           ;!       _vfpfcnvrt
  2200                           ;!         _dtoa
  2201                           ;!           ___aodiv
  2202                           ;!           ___aomod
  2203                           ;!           _abs
  2204                           ;!             ___aomod (ARG)
  2205                           ;!           _pad
  2206                           ;!             _fputc
  2207                           ;!               _putch
  2208                           ;!             _fputs
  2209                           ;!               _fputc
  2210                           ;!                 _putch
  2211                           ;!             _strlen
  2212                           ;!         _fputc
  2213                           ;!           _putch
  2214                           ;!
  2215                           ;! _LO_ISR (ROOT)
  2216                           ;!
  2217                           
  2218                           ;! Address spaces:
  2219                           
  2220                           ;!Name               Size   Autos  Total    Cost      Usage
  2221                           ;!BIGRAM             5F3      0       0      16        0.0%
  2222                           ;!EEDATA             100      0       0       0        0.0%
  2223                           ;!BITBANK4           100      0       0      11        0.0%
  2224                           ;!BANK4              100      0       0      12        0.0%
  2225                           ;!BITBANK3           100      0       0       9        0.0%
  2226                           ;!BANK3              100      0       0      10        0.0%
  2227                           ;!BITBANK2           100      0       0       7        0.0%
  2228                           ;!BANK2              100      0       0       8        0.0%
  2229                           ;!BITBANK1           100      0       0       5        0.0%
  2230                           ;!BANK1              100      0      64       6       39.1%
  2231                           ;!BITBANK5            F4      0       0      15        0.0%
  2232                           ;!BANK5               F4      0       0      13        0.0%
  2233                           ;!BITBANK0            80      0       0       3        0.0%
  2234                           ;!BANK0               80     2B      6D       4       85.2%
  2235                           ;!BITCOMRAM           7E      0       0       0        0.0%
  2236                           ;!COMRAM              7E     63      73       1       91.3%
  2237                           ;!BITSFR_5             0      0       0     200        0.0%
  2238                           ;!SFR_5                0      0       0     200        0.0%
  2239                           ;!BITSFR_4             0      0       0     200        0.0%
  2240                           ;!SFR_4                0      0       0     200        0.0%
  2241                           ;!BITSFR_3             0      0       0     200        0.0%
  2242                           ;!SFR_3                0      0       0     200        0.0%
  2243                           ;!BITSFR_2             0      0       0     200        0.0%
  2244                           ;!SFR_2                0      0       0     200        0.0%
  2245                           ;!BITSFR_1             0      0       0     200        0.0%
  2246                           ;!SFR_1                0      0       0     200        0.0%
  2247                           ;!BITSFR               0      0       0     200        0.0%
  2248                           ;!SFR                  0      0       0     200        0.0%
  2249                           ;!STACK                0      0       0       2        0.0%
  2250                           ;!NULL                 0      0       0       0        0.0%
  2251                           ;!ABS                  0      0     144      14        0.0%
  2252                           ;!DATA                 0      0     144      17        0.0%
  2253                           ;!CODE                 0      0       0       0        0.0%
  2254                           
  2255                           	global	_main
  2256                           
  2257 ;; *************** function _main *****************
  2258 ;; Defined at:
  2259 ;;		line 357 in file "PIC_Interface_with_XBee.c"
  2260 ;; Parameters:    Size  Location     Type
  2261 ;;		None
  2262 ;; Auto vars:     Size  Location     Type
  2263 ;;  _buffer        25   10[BANK0 ] unsigned char [25]
  2264 ;;  Remote_Addre    4   39[BANK0 ] unsigned long 
  2265 ;;  Remote_Addre    4   35[BANK0 ] unsigned long 
  2266 ;;  Temperature     4    0        unsigned long 
  2267 ;; Return value:  Size  Location     Type
  2268 ;;                  2  237[None  ] int 
  2269 ;; Registers used:
  2270 ;;		wreg, fsr1l, fsr1h, fsr2l, fsr2h, status,2, status,0, tblptrl, tblptrh, tblptru, prodl, prodh, cstack
  2271 ;; Tracked objects:
  2272 ;;		On entry : 0/0
  2273 ;;		On exit  : 0/0
  2274 ;;		Unchanged: 0/0
  2275 ;; Data sizes:     COMRAM   BANK0   BANK1   BANK2   BANK3   BANK4   BANK5
  2276 ;;      Params:         0       0       0       0       0       0       0
  2277 ;;      Locals:         0      33       0       0       0       0       0
  2278 ;;      Temps:          0       0       0       0       0       0       0
  2279 ;;      Totals:         0      33       0       0       0       0       0
  2280 ;;Total ram usage:       33 bytes
  2281 ;; Hardware stack levels required when called:    9
  2282 ;; This function calls:
  2283 ;;		_Get_Sample
  2284 ;;		_LCD_Clear
  2285 ;;		_LCD_Init
  2286 ;;		_LCD_String_xy
  2287 ;;		_MSdelay
  2288 ;;		_SetTo_Broadcast
  2289 ;;		_USART_Init
  2290 ;;		_Write_Remote_AT_Command
  2291 ;;		_memset
  2292 ;;		_sprintf
  2293 ;; This function is called by:
  2294 ;;		Startup code after reset
  2295 ;; This function uses a non-reentrant model
  2296 ;;
  2297                           psect	text0,class=CODE,space=0,reloc=2,group=0
  2298                           	file	"PIC_Interface_with_XBee.c"
  2299                           	line	357
  2300                           global __ptext0
  2301                           __ptext0:
  2302  0013CA                     psect	text0
  2303                           	file	"PIC_Interface_with_XBee.c"
  2304                           	line	357
  2305                           	global	__size_of_main
  2306                           	__size_of_main	equ	__end_of_main-_main
  2307  0000                     	
  2308                           _main:
  2309  0013CA                     ;incstack = 0
  2310                           	opt	stack 22
  2311                           	line	361
  2312                           	
  2313                           l3925:
  2314  0013CA                     ;PIC_Interface_with_XBee.c: 359:  char _buffer[25];;PIC_Interface_with_XBee.c: 360:     
                                 double Temperature;;PIC_Interface_with_XBee.c: 361:  uint32_t Remote_Address_DH = 0x0013
                                 A200;
  2315                           	movlw	low(013A200h)
  2316  0013CA  0E00               	movlb	0	; () banked
  2317  0013CC  0100               	movwf	((main@Remote_Address_DH))&0ffh
  2318  0013CE  6FE5               	movlw	high(013A200h)
  2319  0013D0  0EA2               	movwf	((main@Remote_Address_DH+1))&0ffh
  2320  0013D2  6FE6               	movlw	low highword(013A200h)
  2321  0013D4  0E13               	movwf	((main@Remote_Address_DH+2))&0ffh
  2322  0013D6  6FE7               	movlw	high highword(013A200h)
  2323  0013D8  0E00               	movwf	((main@Remote_Address_DH+3))&0ffh
  2324  0013DA  6FE8               	line	362
  2325                           ;PIC_Interface_with_XBee.c: 362:     uint32_t Remote_Address_DL = 0x4189A9C2;
  2326                           	movlw	low(04189A9C2h)
  2327  0013DC  0EC2               	movwf	((main@Remote_Address_DL))&0ffh
  2328  0013DE  6FE9               	movlw	high(04189A9C2h)
  2329  0013E0  0EA9               	movwf	((main@Remote_Address_DL+1))&0ffh
  2330  0013E2  6FEA               	movlw	low highword(04189A9C2h)
  2331  0013E4  0E89               	movwf	((main@Remote_Address_DL+2))&0ffh
  2332  0013E6  6FEB               	movlw	high highword(04189A9C2h)
  2333  0013E8  0E41               	movwf	((main@Remote_Address_DL+3))&0ffh
  2334  0013EA  6FEC               	line	364
  2335                           ;PIC_Interface_with_XBee.c: 364:     OSCCON=0x72;
  2336                           	movlw	low(072h)
  2337  0013EC  0E72               	movwf	((c:4051)),c	;volatile
  2338  0013EE  6ED3               	line	365
  2339                           	
  2340                           l3927:; BSR set to: 0
  2341  0013F0                     
  2342                           ;PIC_Interface_with_XBee.c: 365:  USART_Init(9600);
  2343                           	movlw	low(02580h)
  2344  0013F0  0E80               	movwf	((c:USART_Init@baud_rate)),c
  2345  0013F2  6E4C               	movlw	high(02580h)
  2346  0013F4  0E25               	movwf	((c:USART_Init@baud_rate+1)),c
  2347  0013F6  6E4D               	movlw	low highword(02580h)
  2348  0013F8  0E00               	movwf	((c:USART_Init@baud_rate+2)),c
  2349  0013FA  6E4E               	movlw	high highword(02580h)
  2350  0013FC  0E00               	movwf	((c:USART_Init@baud_rate+3)),c
  2351  0013FE  6E4F               	call	_USART_Init	;wreg free
  2352  001400  EC24  F016         	line	366
  2353                           	
  2354                           l3929:
  2355  001404                     ;PIC_Interface_with_XBee.c: 366:  LCD_Init();
  2356                           	call	_LCD_Init	;wreg free
  2357  001404  EC9F  F018         	line	367
  2358                           	
  2359                           l3931:
  2360  001408                     ;PIC_Interface_with_XBee.c: 367:  LCD_String_xy(1, 0, "X-Bee Network ");
  2361                           	movlw	low(0)
  2362  001408  0E00               	movwf	((c:LCD_String_xy@pos)),c
  2363  00140A  6E10               		movlw	low(STR_3)
  2364  00140C  0E43               	movwf	((c:LCD_String_xy@msg)),c
  2365  00140E  6E11               	movlw	high(STR_3)
  2366  001410  0E06               	movwf	((c:LCD_String_xy@msg+1)),c
  2367  001412  6E12               
  2368                           	movlw	(01h)&0ffh
  2369  001414  0E01               	
  2370                           	call	_LCD_String_xy
  2371  001416  ECDA  F017         	line	368
  2372                           	
  2373                           l3933:
  2374  00141A                     ;PIC_Interface_with_XBee.c: 368:  LCD_String_xy(2, 0, "Demo..!!");
  2375                           	movlw	low(0)
  2376  00141A  0E00               	movwf	((c:LCD_String_xy@pos)),c
  2377  00141C  6E10               		movlw	low(STR_4)
  2378  00141E  0E52               	movwf	((c:LCD_String_xy@msg)),c
  2379  001420  6E11               	movlw	high(STR_4)
  2380  001422  0E06               	movwf	((c:LCD_String_xy@msg+1)),c
  2381  001424  6E12               
  2382                           	movlw	(02h)&0ffh
  2383  001426  0E02               	
  2384                           	call	_LCD_String_xy
  2385  001428  ECDA  F017         	line	369
  2386                           	
  2387                           l3935:
  2388  00142C                     ;PIC_Interface_with_XBee.c: 369:  MSdelay(1000);
  2389                           	movlw	high(03E8h)
  2390  00142C  0E03               	movwf	((c:MSdelay@val+1)),c
  2391  00142E  6E08               	movlw	low(03E8h)
  2392  001430  0EE8               	movwf	((c:MSdelay@val)),c
  2393  001432  6E07               	call	_MSdelay	;wreg free
  2394  001434  ECDE  F016         	line	370
  2395                           	
  2396                           l3937:
  2397  001438                     ;PIC_Interface_with_XBee.c: 370:  LCD_Clear();
  2398                           	call	_LCD_Clear	;wreg free
  2399  001438  ECF7  F018         	line	371
  2400                           	
  2401                           l3939:
  2402  00143C                     ;PIC_Interface_with_XBee.c: 371:     INTCONbits.GIE=1;
  2403                           	bsf	((c:4082)),c,7	;volatile
  2404  00143C  8EF2               	line	372
  2405                           	
  2406                           l3941:
  2407  00143E                     ;PIC_Interface_with_XBee.c: 372:     INTCONbits.PEIE=1;
  2408                           	bsf	((c:4082)),c,6	;volatile
  2409  00143E  8CF2               	line	373
  2410                           	
  2411                           l3943:
  2412  001440                     ;PIC_Interface_with_XBee.c: 373:     PIE1bits.RCIE=1;
  2413                           	bsf	((c:3997)),c,5	;volatile
  2414  001440  8A9D               	line	375
  2415                           	
  2416                           l3945:
  2417  001442                     ;PIC_Interface_with_XBee.c: 375:  LCD_String_xy(1, 0, "Setting X-Bee to");
  2418                           	movlw	low(0)
  2419  001442  0E00               	movwf	((c:LCD_String_xy@pos)),c
  2420  001444  6E10               		movlw	low(STR_5)
  2421  001446  0E23               	movwf	((c:LCD_String_xy@msg)),c
  2422  001448  6E11               	movlw	high(STR_5)
  2423  00144A  0E06               	movwf	((c:LCD_String_xy@msg+1)),c
  2424  00144C  6E12               
  2425                           	movlw	(01h)&0ffh
  2426  00144E  0E01               	
  2427                           	call	_LCD_String_xy
  2428  001450  ECDA  F017         	line	376
  2429                           	
  2430                           l3947:
  2431  001454                     ;PIC_Interface_with_XBee.c: 376:  LCD_String_xy(2, 0, "Broadcast mode  ");
  2432                           	movlw	low(0)
  2433  001454  0E00               	movwf	((c:LCD_String_xy@pos)),c
  2434  001456  6E10               		movlw	low(STR_6)
  2435  001458  0E01               	movwf	((c:LCD_String_xy@msg)),c
  2436  00145A  6E11               	movlw	high(STR_6)
  2437  00145C  0E06               	movwf	((c:LCD_String_xy@msg+1)),c
  2438  00145E  6E12               
  2439                           	movlw	(02h)&0ffh
  2440  001460  0E02               	
  2441                           	call	_LCD_String_xy
  2442  001462  ECDA  F017         	line	378
  2443                           	
  2444                           l3949:
  2445  001466                     ;PIC_Interface_with_XBee.c: 378:     TRISCbits.RC3=0;
  2446                           	bcf	((c:3988)),c,3	;volatile
  2447  001466  9694               	line	379
  2448                           	
  2449                           l3951:
  2450  001468                     ;PIC_Interface_with_XBee.c: 379:     TRISDbits.RD1=0;
  2451                           	bcf	((c:3989)),c,1	;volatile
  2452  001468  9295               	line	380
  2453                           	
  2454                           l3953:
  2455  00146A                     ;PIC_Interface_with_XBee.c: 380:     TRISCbits.RC0=1;
  2456                           	bsf	((c:3988)),c,0	;volatile
  2457  00146A  8094               	line	381
  2458                           	
  2459                           l3955:
  2460  00146C                     ;PIC_Interface_with_XBee.c: 381:     TRISCbits.RC1=1;
  2461                           	bsf	((c:3988)),c,1	;volatile
  2462  00146C  8294               	line	382
  2463                           	
  2464                           l3957:
  2465  00146E                     ;PIC_Interface_with_XBee.c: 382:     TRISCbits.RC2=0;
  2466                           	bcf	((c:3988)),c,2	;volatile
  2467  00146E  9494               	line	383
  2468                           	
  2469                           l3959:
  2470  001470                     ;PIC_Interface_with_XBee.c: 383:     LATCbits.LATC3=0;
  2471                           	bcf	((c:3979)),c,3	;volatile
  2472  001470  968B               	line	384
  2473                           	
  2474                           l3961:
  2475  001472                     ;PIC_Interface_with_XBee.c: 384:     LATCbits.LATC2=0;
  2476                           	bcf	((c:3979)),c,2	;volatile
  2477  001472  948B               	line	386
  2478                           	
  2479                           l3963:
  2480  001474                     ;PIC_Interface_with_XBee.c: 386:  SetTo_Broadcast();
  2481                           	call	_SetTo_Broadcast	;wreg free
  2482  001474  ECAB  F017         	line	387
  2483                           	
  2484                           l3965:
  2485  001478                     ;PIC_Interface_with_XBee.c: 387:  LCD_Clear();
  2486                           	call	_LCD_Clear	;wreg free
  2487  001478  ECF7  F018         	line	389
  2488                           	
  2489                           l3967:
  2490  00147C                     ;PIC_Interface_with_XBee.c: 389:  LCD_String_xy(1, 0, "Request Samples ");
  2491                           	movlw	low(0)
  2492  00147C  0E00               	movwf	((c:LCD_String_xy@pos)),c
  2493  00147E  6E10               		movlw	low(STR_7)
  2494  001480  0E12               	movwf	((c:LCD_String_xy@msg)),c
  2495  001482  6E11               	movlw	high(STR_7)
  2496  001484  0E06               	movwf	((c:LCD_String_xy@msg+1)),c
  2497  001486  6E12               
  2498                           	movlw	(01h)&0ffh
  2499  001488  0E01               	
  2500                           	call	_LCD_String_xy
  2501  00148A  ECDA  F017         	line	391
  2502                           	
  2503                           l3969:
  2504  00148E                     ;PIC_Interface_with_XBee.c: 391:  Write_Remote_AT_Command(Remote_Address_DH, Remote_Addr
                                 ess_DL, 0xFFFE, "IR", 100);
  2505                           	movff	(main@Remote_Address_DH),(c:Write_Remote_AT_Command@Long_Address_MSB)
  2506  00148E  C0E5  F025         	movff	(main@Remote_Address_DH+1),(c:Write_Remote_AT_Command@Long_Address_MSB+1)
  2507  001492  C0E6  F026         	movff	(main@Remote_Address_DH+2),(c:Write_Remote_AT_Command@Long_Address_MSB+2)
  2508  001496  C0E7  F027         	movff	(main@Remote_Address_DH+3),(c:Write_Remote_AT_Command@Long_Address_MSB+3)
  2509  00149A  C0E8  F028         	movff	(main@Remote_Address_DL),(c:Write_Remote_AT_Command@Long_Address_LSB)
  2510  00149E  C0E9  F029         	movff	(main@Remote_Address_DL+1),(c:Write_Remote_AT_Command@Long_Address_LSB+1)
  2511  0014A2  C0EA  F02A         	movff	(main@Remote_Address_DL+2),(c:Write_Remote_AT_Command@Long_Address_LSB+2)
  2512  0014A6  C0EB  F02B         	movff	(main@Remote_Address_DL+3),(c:Write_Remote_AT_Command@Long_Address_LSB+3)
  2513  0014AA  C0EC  F02C         	movlw	high(0FFFEh)
  2514  0014AE  0EFF               	movwf	((c:Write_Remote_AT_Command@Short_Address+1)),c
  2515  0014B0  6E2E               	movlw	low(0FFFEh)
  2516  0014B2  0EFE               	movwf	((c:Write_Remote_AT_Command@Short_Address)),c
  2517  0014B4  6E2D               		movlw	low(STR_8)
  2518  0014B6  0E61               	movwf	((c:Write_Remote_AT_Command@ATCommand)),c
  2519  0014B8  6E2F               	movlw	high(STR_8)
  2520  0014BA  0E06               	movwf	((c:Write_Remote_AT_Command@ATCommand+1)),c
  2521  0014BC  6E30               
  2522                           	movlw	low(064h)
  2523  0014BE  0E64               	movwf	((c:Write_Remote_AT_Command@_CommandValue)),c
  2524  0014C0  6E31               	movlw	high(064h)
  2525  0014C2  0E00               	movwf	((c:Write_Remote_AT_Command@_CommandValue+1)),c
  2526  0014C4  6E32               	movlw	low highword(064h)
  2527  0014C6  0E00               	movwf	((c:Write_Remote_AT_Command@_CommandValue+2)),c
  2528  0014C8  6E33               	movlw	high highword(064h)
  2529  0014CA  0E00               	movwf	((c:Write_Remote_AT_Command@_CommandValue+3)),c
  2530  0014CC  6E34               	call	_Write_Remote_AT_Command	;wreg free
  2531  0014CE  EC58  F018         	line	392
  2532                           	
  2533                           l3971:
  2534  0014D2                     ;PIC_Interface_with_XBee.c: 392:  MSdelay(1000);
  2535                           	movlw	high(03E8h)
  2536  0014D2  0E03               	movwf	((c:MSdelay@val+1)),c
  2537  0014D4  6E08               	movlw	low(03E8h)
  2538  0014D6  0EE8               	movwf	((c:MSdelay@val)),c
  2539  0014D8  6E07               	call	_MSdelay	;wreg free
  2540  0014DA  ECDE  F016         	line	394
  2541                           	
  2542                           l3973:
  2543  0014DE                     ;PIC_Interface_with_XBee.c: 394:  LCD_Clear();
  2544                           	call	_LCD_Clear	;wreg free
  2545  0014DE  ECF7  F018         	line	395
  2546                           	
  2547                           l3975:
  2548  0014E2                     ;PIC_Interface_with_XBee.c: 395:     RCIF=0;
  2549                           	bcf	c:(31989/8),(31989)&7	;volatile
  2550  0014E2  9A9E               	goto	l3977
  2551  0014E4  EF74  F00A         	line	401
  2552                           ;PIC_Interface_with_XBee.c: 401:  while (1)
  2553                           	
  2554                           l238:
  2555  0014E8                     	line	403
  2556                           	
  2557                           l3977:
  2558  0014E8                     ;PIC_Interface_with_XBee.c: 402:  {;PIC_Interface_with_XBee.c: 403:   Get_Sample();
  2559                           	call	_Get_Sample	;wreg free
  2560  0014E8  EC66  F016         	line	404
  2561                           	
  2562                           l3979:
  2563  0014EC                     ;PIC_Interface_with_XBee.c: 404:   if (_IsContainsDigital)
  2564                           	movlb	0	; () banked
  2565  0014EC  0100               	movf	((__IsContainsDigital))&0ffh,w
  2566  0014EE  51A1               	btfsc	status,2
  2567  0014F0  B4D8               	goto	u4861
  2568  0014F2  EF7D  F00A         	goto	u4860
  2569  0014F6  EF7F  F00A         u4861:
  2570  0014FA                     	goto	l3989
  2571  0014FA  EFB5  F00A         u4860:
  2572  0014FE                     	line	406
  2573                           	
  2574                           l3981:; BSR set to: 0
  2575  0014FE                     
  2576                           ;PIC_Interface_with_XBee.c: 405:   {;PIC_Interface_with_XBee.c: 406:             if(Digi
                                 talData[4] > 0)
  2577                           		movf	(0+(_DigitalData+04h))&0ffh,w
  2578  0014FE  5194               	xorlw	80h
  2579  001500  0A80               	addlw	-(80h^01h)
  2580  001502  0F7F               	btfss	status,0
  2581  001504  A0D8               	goto	u4871
  2582  001506  EF87  F00A         	goto	u4870
  2583  00150A  EF89  F00A         
  2584                           u4871:
  2585  00150E                     	goto	l3989
  2586  00150E  EFB5  F00A         u4870:
  2587  001512                     	line	408
  2588                           	
  2589                           l3983:; BSR set to: 0
  2590  001512                     
  2591                           ;PIC_Interface_with_XBee.c: 407:             {;PIC_Interface_with_XBee.c: 408:          
                                        sprintf(_buffer, "Switch = %d   ", DigitalData[2]);
  2592                           		movlw	low(main@_buffer)
  2593  001512  0ECC               	movwf	((c:sprintf@s)),c
  2594  001514  6E5E               	movlw	high(main@_buffer)
  2595  001516  0E00               	movwf	((c:sprintf@s+1)),c
  2596  001518  6E5F               
  2597                           		movlw	low(STR_9)
  2598  00151A  0E34               	movwf	((c:sprintf@fmt)),c
  2599  00151C  6E60               	movlw	high(STR_9)
  2600  00151E  0E06               	movwf	((c:sprintf@fmt+1)),c
  2601  001520  6E61               
  2602                           	movf	(0+(_DigitalData+02h))&0ffh,w
  2603  001522  5192               	movwf	(0+((c:?_sprintf)+04h)),c
  2604  001524  6E62               	clrf	(1+((c:?_sprintf)+04h)),c
  2605  001526  6A63               	btfsc	(0+((c:?_sprintf)+04h)),c,7
  2606  001528  BE62               	decf	(1+((c:?_sprintf)+04h)),c
  2607  00152A  0663               	call	_sprintf	;wreg free
  2608  00152C  EC7C  F017         	line	411
  2609                           	
  2610                           l3985:
  2611  001530                     ;PIC_Interface_with_XBee.c: 411:                 LCD_String_xy(1, 0, _buffer);
  2612                           	movlw	low(0)
  2613  001530  0E00               	movwf	((c:LCD_String_xy@pos)),c
  2614  001532  6E10               		movlw	low(main@_buffer)
  2615  001534  0ECC               	movwf	((c:LCD_String_xy@msg)),c
  2616  001536  6E11               	movlw	high(main@_buffer)
  2617  001538  0E00               	movwf	((c:LCD_String_xy@msg+1)),c
  2618  00153A  6E12               
  2619                           	movlw	(01h)&0ffh
  2620  00153C  0E01               	
  2621                           	call	_LCD_String_xy
  2622  00153E  ECDA  F017         	line	412
  2623                           	
  2624                           l3987:
  2625  001542                     ;PIC_Interface_with_XBee.c: 412:     memset(_buffer, 0, 25);
  2626                           		movlw	low(main@_buffer)
  2627  001542  0ECC               	movwf	((c:memset@dest)),c
  2628  001544  6E07               	movlw	high(main@_buffer)
  2629  001546  0E00               	movwf	((c:memset@dest+1)),c
  2630  001548  6E08               
  2631                           	movlw	high(0)
  2632  00154A  0E00               	movwf	((c:memset@c+1)),c
  2633  00154C  6E0A               	movlw	low(0)
  2634  00154E  0E00               	movwf	((c:memset@c)),c
  2635  001550  6E09               	movlw	high(019h)
  2636  001552  0E00               	movwf	((c:memset@n+1)),c
  2637  001554  6E0C               	movlw	low(019h)
  2638  001556  0E19               	movwf	((c:memset@n)),c
  2639  001558  6E0B               	call	_memset	;wreg free
  2640  00155A  ECC8  F011         	line	413
  2641                           ;PIC_Interface_with_XBee.c: 413:             }
  2642                           	goto	l3989
  2643  00155E  EFB5  F00A         	line	414
  2644                           ;PIC_Interface_with_XBee.c: 414:             else{
  2645                           	
  2646                           l240:
  2647  001562                     	goto	l3989
  2648  001562  EFB5  F00A         	line	418
  2649                           ;PIC_Interface_with_XBee.c: 418:             }
  2650                           	
  2651                           l241:
  2652  001566                     	goto	l3989
  2653  001566  EFB5  F00A         	line	419
  2654                           ;PIC_Interface_with_XBee.c: 419:   }
  2655                           	
  2656                           l239:
  2657  00156A                     	line	420
  2658                           	
  2659                           l3989:
  2660  00156A                     ;PIC_Interface_with_XBee.c: 420:   if (_IsContainsAnalog)
  2661                           	movlb	0	; () banked
  2662  00156A  0100               	movf	((__IsContainsAnalog))&0ffh,w
  2663  00156C  51A0               	btfsc	status,2
  2664  00156E  B4D8               	goto	u4881
  2665  001570  EFBC  F00A         	goto	u4880
  2666  001574  EFBE  F00A         u4881:
  2667  001578                     	goto	l242
  2668  001578  EF9B  F00B         u4880:
  2669  00157C                     	line	424
  2670                           	
  2671                           l3991:; BSR set to: 0
  2672  00157C                     
  2673                           ;PIC_Interface_with_XBee.c: 421:   {;PIC_Interface_with_XBee.c: 424:    if(AnalogData[0]
                                  <=1523 && AnalogData[0]>=900 && AnalogData[2] <=1523 && AnalogData[2]>=900){
  2674                           	btfsc	((_AnalogData+1))&0ffh,7
  2675  00157C  BF81               	goto	u4890
  2676  00157E  EFCC  F00A         	movlw	244
  2677  001582  0EF4               	subwf	 ((_AnalogData))&0ffh,w
  2678  001584  5D80               	movlw	5
  2679  001586  0E05               	subwfb	((_AnalogData+1))&0ffh,w
  2680  001588  5981               	btfsc	status,0
  2681  00158A  B0D8               	goto	u4891
  2682  00158C  EFCA  F00A         	goto	u4890
  2683  001590  EFCC  F00A         
  2684                           u4891:
  2685  001594                     	goto	l4001
  2686  001594  EFFA  F00A         u4890:
  2687  001598                     	
  2688                           l3993:; BSR set to: 0
  2689  001598                     
  2690                           	btfsc	((_AnalogData+1))&0ffh,7
  2691  001598  BF81               	goto	u4901
  2692  00159A  EFD8  F00A         	movlw	132
  2693  00159E  0E84               	subwf	 ((_AnalogData))&0ffh,w
  2694  0015A0  5D80               	movlw	3
  2695  0015A2  0E03               	subwfb	((_AnalogData+1))&0ffh,w
  2696  0015A4  5981               	btfss	status,0
  2697  0015A6  A0D8               	goto	u4901
  2698  0015A8  EFD8  F00A         	goto	u4900
  2699  0015AC  EFDA  F00A         
  2700                           u4901:
  2701  0015B0                     	goto	l4001
  2702  0015B0  EFFA  F00A         u4900:
  2703  0015B4                     	
  2704                           l3995:; BSR set to: 0
  2705  0015B4                     
  2706                           	btfsc	(1+(_AnalogData+04h))&0ffh,7
  2707  0015B4  BF85               	goto	u4910
  2708  0015B6  EFE8  F00A         	movlw	244
  2709  0015BA  0EF4               	subwf	 (0+(_AnalogData+04h))&0ffh,w
  2710  0015BC  5D84               	movlw	5
  2711  0015BE  0E05               	subwfb	(1+(_AnalogData+04h))&0ffh,w
  2712  0015C0  5985               	btfsc	status,0
  2713  0015C2  B0D8               	goto	u4911
  2714  0015C4  EFE6  F00A         	goto	u4910
  2715  0015C8  EFE8  F00A         
  2716                           u4911:
  2717  0015CC                     	goto	l4001
  2718  0015CC  EFFA  F00A         u4910:
  2719  0015D0                     	
  2720                           l3997:; BSR set to: 0
  2721  0015D0                     
  2722                           	btfsc	(1+(_AnalogData+04h))&0ffh,7
  2723  0015D0  BF85               	goto	u4921
  2724  0015D2  EFF4  F00A         	movlw	132
  2725  0015D6  0E84               	subwf	 (0+(_AnalogData+04h))&0ffh,w
  2726  0015D8  5D84               	movlw	3
  2727  0015DA  0E03               	subwfb	(1+(_AnalogData+04h))&0ffh,w
  2728  0015DC  5985               	btfss	status,0
  2729  0015DE  A0D8               	goto	u4921
  2730  0015E0  EFF4  F00A         	goto	u4920
  2731  0015E4  EFF6  F00A         
  2732                           u4921:
  2733  0015E8                     	goto	l4001
  2734  0015E8  EFFA  F00A         u4920:
  2735  0015EC                     	line	425
  2736                           	
  2737                           l3999:; BSR set to: 0
  2738  0015EC                     
  2739                           ;PIC_Interface_with_XBee.c: 425:                 LATDbits.LATD1=0;
  2740                           	bcf	((c:3980)),c,1	;volatile
  2741  0015EC  928C               	line	426
  2742                           ;PIC_Interface_with_XBee.c: 426:                 LATCbits.LATC3=0;
  2743                           	bcf	((c:3979)),c,3	;volatile
  2744  0015EE  968B               	line	427
  2745                           ;PIC_Interface_with_XBee.c: 427:             }
  2746                           	goto	l4015
  2747  0015F0  EF3E  F00B         	line	428
  2748                           ;PIC_Interface_with_XBee.c: 428:    else if(AnalogData[0] <=650 && AnalogData[0]>=350){

  2749                           	
  2750                           l243:; BSR set to: 0
  2751  0015F4                     
  2752                           	
  2753                           l4001:; BSR set to: 0
  2754  0015F4                     
  2755                           	btfsc	((_AnalogData+1))&0ffh,7
  2756  0015F4  BF81               	goto	u4930
  2757  0015F6  EF08  F00B         	movlw	139
  2758  0015FA  0E8B               	subwf	 ((_AnalogData))&0ffh,w
  2759  0015FC  5D80               	movlw	2
  2760  0015FE  0E02               	subwfb	((_AnalogData+1))&0ffh,w
  2761  001600  5981               	btfsc	status,0
  2762  001602  B0D8               	goto	u4931
  2763  001604  EF06  F00B         	goto	u4930
  2764  001608  EF08  F00B         
  2765                           u4931:
  2766  00160C                     	goto	l4007
  2767  00160C  EF1A  F00B         u4930:
  2768  001610                     	
  2769                           l4003:; BSR set to: 0
  2770  001610                     
  2771                           	btfsc	((_AnalogData+1))&0ffh,7
  2772  001610  BF81               	goto	u4941
  2773  001612  EF14  F00B         	movlw	94
  2774  001616  0E5E               	subwf	 ((_AnalogData))&0ffh,w
  2775  001618  5D80               	movlw	1
  2776  00161A  0E01               	subwfb	((_AnalogData+1))&0ffh,w
  2777  00161C  5981               	btfss	status,0
  2778  00161E  A0D8               	goto	u4941
  2779  001620  EF14  F00B         	goto	u4940
  2780  001624  EF16  F00B         
  2781                           u4941:
  2782  001628                     	goto	l4007
  2783  001628  EF1A  F00B         u4940:
  2784  00162C                     	line	429
  2785                           	
  2786                           l4005:; BSR set to: 0
  2787  00162C                     
  2788                           ;PIC_Interface_with_XBee.c: 429:                 LATDbits.LATD1=1;
  2789                           	bsf	((c:3980)),c,1	;volatile
  2790  00162C  828C               	line	430
  2791                           ;PIC_Interface_with_XBee.c: 430:                 LATCbits.LATC3=0;
  2792                           	bcf	((c:3979)),c,3	;volatile
  2793  00162E  968B               	line	431
  2794                           ;PIC_Interface_with_XBee.c: 431:             }
  2795                           	goto	l4015
  2796  001630  EF3E  F00B         	line	432
  2797                           ;PIC_Interface_with_XBee.c: 432:    else if(AnalogData[0] <=200 && AnalogData[0]>=0 && R
                                 C0!=0){
  2798                           	
  2799                           l245:; BSR set to: 0
  2800  001634                     
  2801                           	
  2802                           l4007:; BSR set to: 0
  2803  001634                     
  2804                           	btfsc	((_AnalogData+1))&0ffh,7
  2805  001634  BF81               	goto	u4950
  2806  001636  EF28  F00B         	movf	((_AnalogData+1))&0ffh,w
  2807  00163A  5181               	bnz	u4951
  2808  00163C  E107               	movlw	201
  2809  00163E  0EC9               	subwf	 ((_AnalogData))&0ffh,w
  2810  001640  5D80               	btfsc	status,0
  2811  001642  B0D8               	goto	u4951
  2812  001644  EF26  F00B         	goto	u4950
  2813  001648  EF28  F00B         
  2814                           u4951:
  2815  00164C                     	goto	l4015
  2816  00164C  EF3E  F00B         u4950:
  2817  001650                     	
  2818                           l4009:; BSR set to: 0
  2819  001650                     
  2820                           	btfsc	((_AnalogData+1))&0ffh,7
  2821  001650  BF81               	goto	u4961
  2822  001652  EF2D  F00B         	goto	u4960
  2823  001656  EF2F  F00B         
  2824                           u4961:
  2825  00165A                     	goto	l4015
  2826  00165A  EF3E  F00B         u4960:
  2827  00165E                     	
  2828                           l4011:; BSR set to: 0
  2829  00165E                     
  2830                           	btfss	c:(31760/8),(31760)&7	;volatile
  2831  00165E  A082               	goto	u4971
  2832  001660  EF34  F00B         	goto	u4970
  2833  001664  EF36  F00B         u4971:
  2834  001668                     	goto	l4015
  2835  001668  EF3E  F00B         u4970:
  2836  00166C                     	line	433
  2837                           	
  2838                           l4013:; BSR set to: 0
  2839  00166C                     
  2840                           ;PIC_Interface_with_XBee.c: 433:                 LATCbits.LATC3=1;
  2841                           	bsf	((c:3979)),c,3	;volatile
  2842  00166C  868B               	line	434
  2843                           ;PIC_Interface_with_XBee.c: 434:                 LATDbits.LATD1=0;
  2844                           	bcf	((c:3980)),c,1	;volatile
  2845  00166E  928C               	goto	l4015
  2846  001670  EF3E  F00B         	line	435
  2847                           ;PIC_Interface_with_XBee.c: 435:             }
  2848                           	
  2849                           l247:; BSR set to: 0
  2850  001674                     
  2851                           	goto	l4015
  2852  001674  EF3E  F00B         	
  2853                           l246:; BSR set to: 0
  2854  001678                     
  2855                           	goto	l4015
  2856  001678  EF3E  F00B         	
  2857                           l244:; BSR set to: 0
  2858  00167C                     
  2859                           	line	438
  2860                           	
  2861                           l4015:; BSR set to: 0
  2862  00167C                     
  2863                           ;PIC_Interface_with_XBee.c: 438:             if(AnalogData[2] <=1523 && AnalogData[2]>=9
                                 00){
  2864                           	btfsc	(1+(_AnalogData+04h))&0ffh,7
  2865  00167C  BF85               	goto	u4980
  2866  00167E  EF4C  F00B         	movlw	244
  2867  001682  0EF4               	subwf	 (0+(_AnalogData+04h))&0ffh,w
  2868  001684  5D84               	movlw	5
  2869  001686  0E05               	subwfb	(1+(_AnalogData+04h))&0ffh,w
  2870  001688  5985               	btfsc	status,0
  2871  00168A  B0D8               	goto	u4981
  2872  00168C  EF4A  F00B         	goto	u4980
  2873  001690  EF4C  F00B         
  2874                           u4981:
  2875  001694                     	goto	l4021
  2876  001694  EF5E  F00B         u4980:
  2877  001698                     	
  2878                           l4017:; BSR set to: 0
  2879  001698                     
  2880                           	btfsc	(1+(_AnalogData+04h))&0ffh,7
  2881  001698  BF85               	goto	u4991
  2882  00169A  EF58  F00B         	movlw	132
  2883  00169E  0E84               	subwf	 (0+(_AnalogData+04h))&0ffh,w
  2884  0016A0  5D84               	movlw	3
  2885  0016A2  0E03               	subwfb	(1+(_AnalogData+04h))&0ffh,w
  2886  0016A4  5985               	btfss	status,0
  2887  0016A6  A0D8               	goto	u4991
  2888  0016A8  EF58  F00B         	goto	u4990
  2889  0016AC  EF5A  F00B         
  2890                           u4991:
  2891  0016B0                     	goto	l4021
  2892  0016B0  EF5E  F00B         u4990:
  2893  0016B4                     	goto	l242
  2894  0016B4  EF9B  F00B         	line	440
  2895                           	
  2896                           l4019:; BSR set to: 0
  2897  0016B8                     
  2898                           ;PIC_Interface_with_XBee.c: 440:             }
  2899                           	goto	l242
  2900  0016B8  EF9B  F00B         	line	441
  2901                           ;PIC_Interface_with_XBee.c: 441:    else if(AnalogData[2] <=650 && AnalogData[2]>=350){

  2902                           	
  2903                           l248:; BSR set to: 0
  2904  0016BC                     
  2905                           	
  2906                           l4021:; BSR set to: 0
  2907  0016BC                     
  2908                           	btfsc	(1+(_AnalogData+04h))&0ffh,7
  2909  0016BC  BF85               	goto	u5000
  2910  0016BE  EF6C  F00B         	movlw	139
  2911  0016C2  0E8B               	subwf	 (0+(_AnalogData+04h))&0ffh,w
  2912  0016C4  5D84               	movlw	2
  2913  0016C6  0E02               	subwfb	(1+(_AnalogData+04h))&0ffh,w
  2914  0016C8  5985               	btfsc	status,0
  2915  0016CA  B0D8               	goto	u5001
  2916  0016CC  EF6A  F00B         	goto	u5000
  2917  0016D0  EF6C  F00B         
  2918                           u5001:
  2919  0016D4                     	goto	l4027
  2920  0016D4  EF7E  F00B         u5000:
  2921  0016D8                     	
  2922                           l4023:; BSR set to: 0
  2923  0016D8                     
  2924                           	btfsc	(1+(_AnalogData+04h))&0ffh,7
  2925  0016D8  BF85               	goto	u5011
  2926  0016DA  EF78  F00B         	movlw	94
  2927  0016DE  0E5E               	subwf	 (0+(_AnalogData+04h))&0ffh,w
  2928  0016E0  5D84               	movlw	1
  2929  0016E2  0E01               	subwfb	(1+(_AnalogData+04h))&0ffh,w
  2930  0016E4  5985               	btfss	status,0
  2931  0016E6  A0D8               	goto	u5011
  2932  0016E8  EF78  F00B         	goto	u5010
  2933  0016EC  EF7A  F00B         
  2934                           u5011:
  2935  0016F0                     	goto	l4027
  2936  0016F0  EF7E  F00B         u5010:
  2937  0016F4                     	goto	l242
  2938  0016F4  EF9B  F00B         	line	443
  2939                           	
  2940                           l4025:; BSR set to: 0
  2941  0016F8                     
  2942                           ;PIC_Interface_with_XBee.c: 443:             }
  2943                           	goto	l242
  2944  0016F8  EF9B  F00B         	line	444
  2945                           ;PIC_Interface_with_XBee.c: 444:    else if(AnalogData[2] <=200 && AnalogData[2]>=0){
  2946                           	
  2947                           l250:; BSR set to: 0
  2948  0016FC                     
  2949                           	
  2950                           l4027:; BSR set to: 0
  2951  0016FC                     
  2952                           	btfsc	(1+(_AnalogData+04h))&0ffh,7
  2953  0016FC  BF85               	goto	u5020
  2954  0016FE  EF8C  F00B         	movf	(1+(_AnalogData+04h))&0ffh,w
  2955  001702  5185               	bnz	u5021
  2956  001704  E107               	movlw	201
  2957  001706  0EC9               	subwf	 (0+(_AnalogData+04h))&0ffh,w
  2958  001708  5D84               	btfsc	status,0
  2959  00170A  B0D8               	goto	u5021
  2960  00170C  EF8A  F00B         	goto	u5020
  2961  001710  EF8C  F00B         
  2962                           u5021:
  2963  001714                     	goto	l242
  2964  001714  EF9B  F00B         u5020:
  2965  001718                     	
  2966                           l4029:; BSR set to: 0
  2967  001718                     
  2968                           	btfsc	(1+(_AnalogData+04h))&0ffh,7
  2969  001718  BF85               	goto	u5031
  2970  00171A  EF91  F00B         	goto	u5030
  2971  00171E  EF93  F00B         
  2972                           u5031:
  2973  001722                     	goto	l242
  2974  001722  EF9B  F00B         u5030:
  2975  001726                     	line	445
  2976                           	
  2977                           l4031:; BSR set to: 0
  2978  001726                     
  2979                           ;PIC_Interface_with_XBee.c: 445:                 LATDbits.LATD1=1;
  2980                           	bsf	((c:3980)),c,1	;volatile
  2981  001726  828C               	line	446
  2982                           ;PIC_Interface_with_XBee.c: 446:                 LATCbits.LATC3=0;
  2983                           	bcf	((c:3979)),c,3	;volatile
  2984  001728  968B               	goto	l242
  2985  00172A  EF9B  F00B         	line	447
  2986                           ;PIC_Interface_with_XBee.c: 447:             }
  2987                           	
  2988                           l252:; BSR set to: 0
  2989  00172E                     
  2990                           	goto	l242
  2991  00172E  EF9B  F00B         	
  2992                           l251:; BSR set to: 0
  2993  001732                     
  2994                           	goto	l242
  2995  001732  EF9B  F00B         	
  2996                           l249:; BSR set to: 0
  2997  001736                     
  2998                           	line	448
  2999                           ;PIC_Interface_with_XBee.c: 448:   }
  3000                           	
  3001                           l242:; BSR set to: 0
  3002  001736                     
  3003                           	line	449
  3004                           ;PIC_Interface_with_XBee.c: 449:         if(RC1)
  3005                           	btfss	c:(31761/8),(31761)&7	;volatile
  3006  001736  A282               	goto	u5041
  3007  001738  EFA0  F00B         	goto	u5040
  3008  00173C  EFA2  F00B         u5041:
  3009  001740                     	goto	l253
  3010  001740  EFA5  F00B         u5040:
  3011  001744                     	line	450
  3012                           	
  3013                           l4033:; BSR set to: 0
  3014  001744                     
  3015                           ;PIC_Interface_with_XBee.c: 450:             LATCbits.LATC2=1;
  3016                           	bsf	((c:3979)),c,2	;volatile
  3017  001744  848B               	goto	l3977
  3018  001746  EF74  F00A         	line	451
  3019                           ;PIC_Interface_with_XBee.c: 451:         else
  3020                           	
  3021                           l253:; BSR set to: 0
  3022  00174A                     
  3023                           	line	452
  3024                           ;PIC_Interface_with_XBee.c: 452:             LATCbits.LATC2=0;
  3025                           	bcf	((c:3979)),c,2	;volatile
  3026  00174A  948B               	goto	l3977
  3027  00174C  EF74  F00A         	
  3028                           l254:; BSR set to: 0
  3029  001750                     
  3030                           	goto	l3977
  3031  001750  EF74  F00A         	line	453
  3032                           ;PIC_Interface_with_XBee.c: 453:  }
  3033                           	
  3034                           l255:; BSR set to: 0
  3035  001754                     
  3036                           	goto	l3977
  3037  001754  EF74  F00A         	
  3038                           l256:; BSR set to: 0
  3039  001758                     
  3040                           	line	454
  3041                           	
  3042                           l257:; BSR set to: 0
  3043  001758                     
  3044                           	global	start
  3045                           	goto	start
  3046  001758  EF61  F000         	opt stack 0
  3047                           GLOBAL	__end_of_main
  3048                           	__end_of_main:
  3049  00175C                     	signat	_main,90
  3050                           	global	_sprintf
  3051                           
  3052 ;; *************** function _sprintf *****************
  3053 ;; Defined at:
  3054 ;;		line 9 in file "C:\Program Files (x86)\Microchip\xc8\v2.00\pic\sources\c99\common\nf_sprintf.c"
  3055 ;; Parameters:    Size  Location     Type
  3056 ;;  s               2   93[COMRAM] PTR unsigned char 
  3057 ;;		 -> main@_buffer(25), 
  3058 ;;  fmt             2   95[COMRAM] PTR const unsigned char 
  3059 ;;		 -> STR_9(15), 
  3060 ;; Auto vars:     Size  Location     Type
  3061 ;;  f               6    4[BANK0 ] struct _IO_FILE
  3062 ;;  ap              2    2[BANK0 ] PTR void [1]
  3063 ;;		 -> ?_sprintf(2), 
  3064 ;;  ret             2    0[BANK0 ] int 
  3065 ;; Return value:  Size  Location     Type
  3066 ;;                  2   93[COMRAM] int 
  3067 ;; Registers used:
  3068 ;;		wreg, fsr1l, fsr1h, fsr2l, fsr2h, status,2, status,0, tblptrl, tblptrh, tblptru, cstack
  3069 ;; Tracked objects:
  3070 ;;		On entry : 0/0
  3071 ;;		On exit  : 0/0
  3072 ;;		Unchanged: 0/0
  3073 ;; Data sizes:     COMRAM   BANK0   BANK1   BANK2   BANK3   BANK4   BANK5
  3074 ;;      Params:         6       0       0       0       0       0       0
  3075 ;;      Locals:         0      10       0       0       0       0       0
  3076 ;;      Temps:          0       0       0       0       0       0       0
  3077 ;;      Totals:         6      10       0       0       0       0       0
  3078 ;;Total ram usage:       16 bytes
  3079 ;; Hardware stack levels used:    1
  3080 ;; Hardware stack levels required when called:    8
  3081 ;; This function calls:
  3082 ;;		_vfprintf
  3083 ;; This function is called by:
  3084 ;;		_main
  3085 ;; This function uses a non-reentrant model
  3086 ;;
  3087                           psect	text1,class=CODE,space=0,reloc=2,group=2
  3088                           	file	"C:\Program Files (x86)\Microchip\xc8\v2.00\pic\sources\c99\common\nf_sprintf.c"
  3089                           	line	9
  3090                           global __ptext1
  3091                           __ptext1:
  3092  002EF8                     psect	text1
  3093                           	file	"C:\Program Files (x86)\Microchip\xc8\v2.00\pic\sources\c99\common\nf_sprintf.c"
  3094                           	line	9
  3095                           	global	__size_of_sprintf
  3096                           	__size_of_sprintf	equ	__end_of_sprintf-_sprintf
  3097  0000                     	
  3098                           _sprintf:; BSR set to: 0
  3099  002EF8                     
  3100                           ;incstack = 0
  3101                           	opt	stack 22
  3102                           	line	15
  3103                           	
  3104                           l3913:
  3105  002EF8                     		movlw	low(?_sprintf+04h)
  3106  002EF8  0E62               	movlb	0	; () banked
  3107  002EFA  0100               	movwf	((sprintf@ap))&0ffh
  3108  002EFC  6FC4               	movlw	high(?_sprintf+04h)
  3109  002EFE  0E00               	movwf	((sprintf@ap+1))&0ffh
  3110  002F00  6FC5               
  3111                           	line	16
  3112                           		movff	(c:sprintf@s),(sprintf@f)
  3113  002F02  C05E  F0C6         	movff	(c:sprintf@s+1),(sprintf@f+1)
  3114  002F06  C05F  F0C7         
  3115                           	line	17
  3116                           	
  3117                           l3915:; BSR set to: 0
  3118  002F0A                     
  3119                           	movlw	high(0)
  3120  002F0A  0E00               	movwf	(1+(sprintf@f+02h))&0ffh
  3121  002F0C  6FC9               	movlw	low(0)
  3122  002F0E  0E00               	movwf	(0+(sprintf@f+02h))&0ffh
  3123  002F10  6FC8               	line	18
  3124                           	
  3125                           l3917:; BSR set to: 0
  3126  002F12                     
  3127                           	movlw	high(0)
  3128  002F12  0E00               	movwf	(1+(sprintf@f+04h))&0ffh
  3129  002F14  6FCB               	movlw	low(0)
  3130  002F16  0E00               	movwf	(0+(sprintf@f+04h))&0ffh
  3131  002F18  6FCA               	line	19
  3132                           	
  3133                           l3919:; BSR set to: 0
  3134  002F1A                     
  3135                           		movlw	low(sprintf@f)
  3136  002F1A  0EC6               	movwf	((c:vfprintf@fp)),c
  3137  002F1C  6E56               	movlw	high(sprintf@f)
  3138  002F1E  0E00               	movwf	((c:vfprintf@fp+1)),c
  3139  002F20  6E57               
  3140                           		movff	(c:sprintf@fmt),(c:vfprintf@fmt)
  3141  002F22  C060  F058         	movff	(c:sprintf@fmt+1),(c:vfprintf@fmt+1)
  3142  002F26  C061  F059         
  3143                           		movlw	low(sprintf@ap)
  3144  002F2A  0EC4               	movwf	((c:vfprintf@ap)),c
  3145  002F2C  6E5A               	movlw	high(sprintf@ap)
  3146  002F2E  0E00               	movwf	((c:vfprintf@ap+1)),c
  3147  002F30  6E5B               
  3148                           	call	_vfprintf	;wreg free
  3149  002F32  EC4B  F017         	movff	0+?_vfprintf,(sprintf@ret)
  3150  002F36  C056  F0C2         	movff	1+?_vfprintf,(sprintf@ret+1)
  3151  002F3A  C057  F0C3         	line	20
  3152                           	
  3153                           l3921:
  3154  002F3E                     	movlb	0	; () banked
  3155  002F3E  0100               	movf	(0+(sprintf@f+02h))&0ffh,w
  3156  002F40  51C8               	addwf	((c:sprintf@s)),c,w
  3157  002F42  245E               	movwf	c:fsr2l
  3158  002F44  6ED9               	movf	(1+(sprintf@f+02h))&0ffh,w
  3159  002F46  51C9               	addwfc	((c:sprintf@s+1)),c,w
  3160  002F48  205F               	movwf	1+c:fsr2l
  3161  002F4A  6EDA               	movlw	low(0)
  3162  002F4C  0E00               	movwf	indf2
  3163  002F4E  6EDF               	goto	l1086
  3164  002F50  EFAA  F017         	line	22
  3165                           	
  3166                           l3923:; BSR set to: 0
  3167  002F54                     
  3168                           	line	23
  3169                           ;	Return value of _sprintf is never used
  3170                           	
  3171                           l1086:; BSR set to: 0
  3172  002F54                     
  3173                           	return	;funcret
  3174  002F54  0012               	opt stack 0
  3175                           GLOBAL	__end_of_sprintf
  3176                           	__end_of_sprintf:
  3177  002F56                     	signat	_sprintf,4698
  3178                           	global	_vfprintf
  3179                           
  3180 ;; *************** function _vfprintf *****************
  3181 ;; Defined at:
  3182 ;;		line 1368 in file "C:\Program Files (x86)\Microchip\xc8\v2.00\pic\sources\c99\common\doprnt.c"
  3183 ;; Parameters:    Size  Location     Type
  3184 ;;  fp              2   85[COMRAM] PTR struct _IO_FILE
  3185 ;;		 -> sprintf@f(6), 
  3186 ;;  fmt             2   87[COMRAM] PTR const unsigned char 
  3187 ;;		 -> STR_9(15), 
  3188 ;;  ap              2   89[COMRAM] PTR PTR void 
  3189 ;;		 -> sprintf@ap(2), 
  3190 ;; Auto vars:     Size  Location     Type
  3191 ;;  cfmt            2   91[COMRAM] PTR unsigned char 
  3192 ;;		 -> STR_9(15), 
  3193 ;; Return value:  Size  Location     Type
  3194 ;;                  2   85[COMRAM] int 
  3195 ;; Registers used:
  3196 ;;		wreg, fsr1l, fsr1h, fsr2l, fsr2h, status,2, status,0, tblptrl, tblptrh, tblptru, cstack
  3197 ;; Tracked objects:
  3198 ;;		On entry : 0/0
  3199 ;;		On exit  : 0/0
  3200 ;;		Unchanged: 0/0
  3201 ;; Data sizes:     COMRAM   BANK0   BANK1   BANK2   BANK3   BANK4   BANK5
  3202 ;;      Params:         6       0       0       0       0       0       0
  3203 ;;      Locals:         2       0       0       0       0       0       0
  3204 ;;      Temps:          0       0       0       0       0       0       0
  3205 ;;      Totals:         8       0       0       0       0       0       0
  3206 ;;Total ram usage:        8 bytes
  3207 ;; Hardware stack levels used:    1
  3208 ;; Hardware stack levels required when called:    7
  3209 ;; This function calls:
  3210 ;;		_vfpfcnvrt
  3211 ;; This function is called by:
  3212 ;;		_sprintf
  3213 ;; This function uses a non-reentrant model
  3214 ;;
  3215                           psect	text2,class=CODE,space=0,reloc=2,group=0
  3216                           	file	"C:\Program Files (x86)\Microchip\xc8\v2.00\pic\sources\c99\common\doprnt.c"
  3217                           	line	1368
  3218                           global __ptext2
  3219                           __ptext2:
  3220  002E96                     psect	text2
  3221                           	file	"C:\Program Files (x86)\Microchip\xc8\v2.00\pic\sources\c99\common\doprnt.c"
  3222                           	line	1368
  3223                           	global	__size_of_vfprintf
  3224                           	__size_of_vfprintf	equ	__end_of_vfprintf-_vfprintf
  3225  0000                     	
  3226                           _vfprintf:; BSR set to: 0
  3227  002E96                     
  3228                           ;incstack = 0
  3229                           	opt	stack 22
  3230                           	line	1373
  3231                           	
  3232                           l3905:
  3233  002E96                     ;C:\Program Files (x86)\Microchip\xc8\v2.00\pic\sources\c99\common\doprnt.c: 1368: int v
                                 fprintf(FILE *fp, const char *fmt, va_list ap);C:\Program Files (x86)\Microchip\xc8\v2.0
                                 0\pic\sources\c99\common\doprnt.c: 1369: {;C:\Program Files (x86)\Microchip\xc8\v2.00\pi
                                 c\sources\c99\common\doprnt.c: 1371:     char *cfmt;;C:\Program Files (x86)\Microchip\xc
                                 8\v2.00\pic\sources\c99\common\doprnt.c: 1373:     cfmt = (char *)fmt;
  3234                           		movff	(c:vfprintf@fmt),(c:vfprintf@cfmt)
  3235  002E96  C058  F05C         	movff	(c:vfprintf@fmt+1),(c:vfprintf@cfmt+1)
  3236  002E9A  C059  F05D         
  3237                           	line	1374
  3238                           	
  3239                           l3907:
  3240  002E9E                     ;C:\Program Files (x86)\Microchip\xc8\v2.00\pic\sources\c99\common\doprnt.c: 1374:     n
                                 out = 0;
  3241                           	movlw	high(0)
  3242  002E9E  0E00               	movwf	((c:_nout+1)),c
  3243  002EA0  6E69               	movlw	low(0)
  3244  002EA2  0E00               	movwf	((c:_nout)),c
  3245  002EA4  6E68               	line	1375
  3246                           ;C:\Program Files (x86)\Microchip\xc8\v2.00\pic\sources\c99\common\doprnt.c: 1375:     w
                                 hile (*cfmt) {
  3247                           	goto	l3911
  3248  002EA6  EF69  F017         	
  3249                           l366:
  3250  002EAA                     	line	1376
  3251                           	
  3252                           l3909:
  3253  002EAA                     ;C:\Program Files (x86)\Microchip\xc8\v2.00\pic\sources\c99\common\doprnt.c: 1376:      
                                    nout += vfpfcnvrt(fp, &cfmt, ap);
  3254                           		movff	(c:vfprintf@fp),(c:vfpfcnvrt@fp)
  3255  002EAA  C056  F046         	movff	(c:vfprintf@fp+1),(c:vfpfcnvrt@fp+1)
  3256  002EAE  C057  F047         
  3257                           		movlw	low(vfprintf@cfmt)
  3258  002EB2  0E5C               	movwf	((c:vfpfcnvrt@fmt)),c
  3259  002EB4  6E48               	movlw	high(vfprintf@cfmt)
  3260  002EB6  0E00               	movwf	((c:vfpfcnvrt@fmt+1)),c
  3261  002EB8  6E49               
  3262                           		movff	(c:vfprintf@ap),(c:vfpfcnvrt@ap)
  3263  002EBA  C05A  F04A         	movff	(c:vfprintf@ap+1),(c:vfpfcnvrt@ap+1)
  3264  002EBE  C05B  F04B         
  3265                           	call	_vfpfcnvrt	;wreg free
  3266  002EC2  ECE3  F010         	movf	(0+?_vfpfcnvrt),c,w
  3267  002EC6  5046               	addwf	((c:_nout)),c
  3268  002EC8  2668               	movf	(1+?_vfpfcnvrt),c,w
  3269  002ECA  5047               	addwfc	((c:_nout+1)),c
  3270  002ECC  2269               
  3271                           	goto	l3911
  3272  002ECE  EF69  F017         	line	1377
  3273                           ;C:\Program Files (x86)\Microchip\xc8\v2.00\pic\sources\c99\common\doprnt.c: 1377:     }
                                 
  3274                           	
  3275                           l365:
  3276  002ED2                     	line	1375
  3277                           	
  3278                           l3911:
  3279  002ED2                     ;C:\Program Files (x86)\Microchip\xc8\v2.00\pic\sources\c99\common\doprnt.c: 1375:     w
                                 hile (*cfmt) {
  3280                           	movff	(c:vfprintf@cfmt),tblptrl
  3281  002ED2  C05C  FFF6         	movff	(c:vfprintf@cfmt+1),tblptrh
  3282  002ED6  C05D  FFF7         	if	0	;tblptru may be non-zero
  3283  002EDA                     	clrf	tblptru
  3285  002EDA                     	if	0	;tblptru may be non-zero
  3286  002EDA                     	global __mediumconst
  3287                           movlw	low highword(__mediumconst)
  3290  002EDA                     	tblrd	*
  3291  002EDA  0008               	
  3292                           	movf	tablat,w
  3293  002EDC  50F5               	iorlw	0
  3294  002EDE  0900               	btfss	status,2
  3295  002EE0  A4D8               	goto	u4851
  3296  002EE2  EF75  F017         	goto	u4850
  3297  002EE6  EF77  F017         u4851:
  3298  002EEA                     	goto	l3909
  3299  002EEA  EF55  F017         u4850:
  3300  002EEE                     	
  3301                           l367:
  3302  002EEE                     	line	1378
  3303                           ;C:\Program Files (x86)\Microchip\xc8\v2.00\pic\sources\c99\common\doprnt.c: 1378:     r
                                 eturn nout;
  3304                           	movff	(c:_nout),(c:?_vfprintf)
  3305  002EEE  C068  F056         	movff	(c:_nout+1),(c:?_vfprintf+1)
  3306  002EF2  C069  F057         	line	1382
  3307                           	
  3308                           l368:
  3309  002EF6                     	return	;funcret
  3310  002EF6  0012               	opt stack 0
  3311                           GLOBAL	__end_of_vfprintf
  3312                           	__end_of_vfprintf:
  3313  002EF8                     	signat	_vfprintf,12410
  3314                           	global	_vfpfcnvrt
  3315                           
  3316 ;; *************** function _vfpfcnvrt *****************
  3317 ;; Defined at:
  3318 ;;		line 670 in file "C:\Program Files (x86)\Microchip\xc8\v2.00\pic\sources\c99\common\doprnt.c"
  3319 ;; Parameters:    Size  Location     Type
  3320 ;;  fp              2   69[COMRAM] PTR struct _IO_FILE
  3321 ;;		 -> sprintf@f(6), 
  3322 ;;  fmt             2   71[COMRAM] PTR PTR unsigned char 
  3323 ;;		 -> vfprintf@cfmt(2), 
  3324 ;;  ap              2   73[COMRAM] PTR PTR void 
  3325 ;;		 -> sprintf@ap(2), 
  3326 ;; Auto vars:     Size  Location     Type
  3327 ;;  ll              8   77[COMRAM] long long 
  3328 ;;  llu             8    0        unsigned long long 
  3329 ;;  f               4    0        unsigned long long 
  3330 ;;  vp              3    0        PTR void 
  3331 ;;  ct              3    0        unsigned char [3]
  3332 ;;  cp              3    0        PTR unsigned char 
  3333 ;;  i               2    0        int 
  3334 ;;  done            2    0        int 
  3335 ;;  c               1    0        unsigned char 
  3336 ;; Return value:  Size  Location     Type
  3337 ;;                  2   69[COMRAM] int 
  3338 ;; Registers used:
  3339 ;;		wreg, fsr1l, fsr1h, fsr2l, fsr2h, status,2, status,0, tblptrl, tblptrh, tblptru, cstack
  3340 ;; Tracked objects:
  3341 ;;		On entry : 0/0
  3342 ;;		On exit  : 0/0
  3343 ;;		Unchanged: 0/0
  3344 ;; Data sizes:     COMRAM   BANK0   BANK1   BANK2   BANK3   BANK4   BANK5
  3345 ;;      Params:         6       0       0       0       0       0       0
  3346 ;;      Locals:         8       0       0       0       0       0       0
  3347 ;;      Temps:          2       0       0       0       0       0       0
  3348 ;;      Totals:        16       0       0       0       0       0       0
  3349 ;;Total ram usage:       16 bytes
  3350 ;; Hardware stack levels used:    1
  3351 ;; Hardware stack levels required when called:    6
  3352 ;; This function calls:
  3353 ;;		_dtoa
  3354 ;;		_fputc
  3355 ;; This function is called by:
  3356 ;;		_vfprintf
  3357 ;; This function uses a non-reentrant model
  3358 ;;
  3359                           psect	text3,class=CODE,space=0,reloc=2,group=0
  3360                           	line	670
  3361                           global __ptext3
  3362                           __ptext3:
  3363  0021C6                     psect	text3
  3364                           	file	"C:\Program Files (x86)\Microchip\xc8\v2.00\pic\sources\c99\common\doprnt.c"
  3365                           	line	670
  3366                           	global	__size_of_vfpfcnvrt
  3367                           	__size_of_vfpfcnvrt	equ	__end_of_vfpfcnvrt-_vfpfcnvrt
  3368  0000                     	
  3369                           _vfpfcnvrt:
  3370  0021C6                     ;incstack = 0
  3371                           	opt	stack 22
  3372                           	line	680
  3373                           	
  3374                           l3863:
  3375  0021C6                     ;C:\Program Files (x86)\Microchip\xc8\v2.00\pic\sources\c99\common\doprnt.c: 670: static
                                  int vfpfcnvrt(FILE *fp, char *fmt[], va_list ap);C:\Program Files (x86)\Microchip\xc8\v
                                 2.00\pic\sources\c99\common\doprnt.c: 671: {;C:\Program Files (x86)\Microchip\xc8\v2.00\
                                 pic\sources\c99\common\doprnt.c: 672:     char c, *cp, ct[3];;C:\Program Files (x86)\Mic
                                 rochip\xc8\v2.00\pic\sources\c99\common\doprnt.c: 673:     int done, i;;C:\Program Files
                                  (x86)\Microchip\xc8\v2.00\pic\sources\c99\common\doprnt.c: 674:     long long ll;
  3376                           	movff	(c:vfpfcnvrt@fmt),fsr2l
  3377  0021C6  C048  FFD9         	movff	(c:vfpfcnvrt@fmt+1),fsr2h
  3378  0021CA  C049  FFDA         	movff	postinc2,tblptrl
  3379  0021CE  CFDE FFF6          	movff	postdec2,tblptrh
  3380  0021D2  CFDD FFF7          	if	0	;tblptru may be non-zero
  3381  0021D6                     	clrf	tblptru
  3383  0021D6                     	if	0	;tblptru may be non-zero
  3384  0021D6                     	global __mediumconst
  3385                           movlw	low highword(__mediumconst)
  3388  0021D6                     	tblrd	*
  3389  0021D6  0008               	
  3390                           	movf	tablat,w
  3391  0021D8  50F5               	xorlw	025h
  3392  0021DA  0A25               	btfss	status,2
  3393  0021DC  A4D8               	goto	u4811
  3394  0021DE  EFF3  F010         	goto	u4810
  3395  0021E2  EFF5  F010         u4811:
  3396  0021E6                     	goto	l3897
  3397  0021E6  EFA8  F011         u4810:
  3398  0021EA                     	line	681
  3399                           	
  3400                           l3865:
  3401  0021EA                     ;C:\Program Files (x86)\Microchip\xc8\v2.00\pic\sources\c99\common\doprnt.c: 681:       
                                   ++*fmt;
  3402                           	movff	(c:vfpfcnvrt@fmt),fsr2l
  3403  0021EA  C048  FFD9         	movff	(c:vfpfcnvrt@fmt+1),fsr2h
  3404  0021EE  C049  FFDA         	incf	postinc2
  3405  0021F2  2ADE               	movlw	0
  3406  0021F4  0E00               	addwfc	postdec2
  3407  0021F6  22DD               	line	683
  3408                           	
  3409                           l3867:
  3410  0021F8                     ;C:\Program Files (x86)\Microchip\xc8\v2.00\pic\sources\c99\common\doprnt.c: 683:       
                                   flags = width = 0;
  3411                           	movlw	high(0)
  3412  0021F8  0E00               	movwf	((c:_width+1)),c
  3413  0021FA  6E6B               	movlw	low(0)
  3414  0021FC  0E00               	movwf	((c:_width)),c
  3415  0021FE  6E6A               	movff	(c:_width),(c:_flags)
  3416  002200  C06A  F06E         	movff	(c:_width+1),(c:_flags+1)
  3417  002204  C06B  F06F         	line	684
  3418                           	
  3419                           l3869:
  3420  002208                     ;C:\Program Files (x86)\Microchip\xc8\v2.00\pic\sources\c99\common\doprnt.c: 684:       
                                   prec = -1;
  3421                           	setf	((c:_prec)),c
  3422  002208  686C               	setf	((c:_prec+1)),c
  3423  00220A  686D               	line	825
  3424                           	
  3425                           l3871:
  3426  00220C                     ;C:\Program Files (x86)\Microchip\xc8\v2.00\pic\sources\c99\common\doprnt.c: 825:       
                                   if ((*fmt[0] == 'd') || (*fmt[0] == 'i')) {
  3427                           	movff	(c:vfpfcnvrt@fmt),fsr2l
  3428  00220C  C048  FFD9         	movff	(c:vfpfcnvrt@fmt+1),fsr2h
  3429  002210  C049  FFDA         	movff	postinc2,tblptrl
  3430  002214  CFDE FFF6          	movff	postdec2,tblptrh
  3431  002218  CFDD FFF7          	if	0	;tblptru may be non-zero
  3432  00221C                     	clrf	tblptru
  3434  00221C                     	if	0	;tblptru may be non-zero
  3435  00221C                     	global __mediumconst
  3436                           movlw	low highword(__mediumconst)
  3439  00221C                     	tblrd	*
  3440  00221C  0008               	
  3441                           	movf	tablat,w
  3442  00221E  50F5               	xorlw	064h
  3443  002220  0A64               	btfsc	status,2
  3444  002222  B4D8               	goto	u4821
  3445  002224  EF16  F011         	goto	u4820
  3446  002228  EF18  F011         u4821:
  3447  00222C                     	goto	l3875
  3448  00222C  EF2C  F011         u4820:
  3449  002230                     	
  3450                           l3873:
  3451  002230                     	movff	(c:vfpfcnvrt@fmt),fsr2l
  3452  002230  C048  FFD9         	movff	(c:vfpfcnvrt@fmt+1),fsr2h
  3453  002234  C049  FFDA         	movff	postinc2,tblptrl
  3454  002238  CFDE FFF6          	movff	postdec2,tblptrh
  3455  00223C  CFDD FFF7          	if	0	;tblptru may be non-zero
  3456  002240                     	clrf	tblptru
  3458  002240                     	if	0	;tblptru may be non-zero
  3459  002240                     	global __mediumconst
  3460                           movlw	low highword(__mediumconst)
  3463  002240                     	tblrd	*
  3464  002240  0008               	
  3465                           	movf	tablat,w
  3466  002242  50F5               	xorlw	069h
  3467  002244  0A69               	btfss	status,2
  3468  002246  A4D8               	goto	u4831
  3469  002248  EF28  F011         	goto	u4830
  3470  00224C  EF2A  F011         u4831:
  3471  002250                     	goto	l3881
  3472  002250  EF6E  F011         u4830:
  3473  002254                     	goto	l3875
  3474  002254  EF2C  F011         	
  3475                           l360:
  3476  002258                     	line	827
  3477                           	
  3478                           l3875:
  3479  002258                     ;C:\Program Files (x86)\Microchip\xc8\v2.00\pic\sources\c99\common\doprnt.c: 827:       
                                       ++*fmt;
  3480                           	movff	(c:vfpfcnvrt@fmt),fsr2l
  3481  002258  C048  FFD9         	movff	(c:vfpfcnvrt@fmt+1),fsr2h
  3482  00225C  C049  FFDA         	incf	postinc2
  3483  002260  2ADE               	movlw	0
  3484  002262  0E00               	addwfc	postdec2
  3485  002264  22DD               	line	828
  3486                           ;C:\Program Files (x86)\Microchip\xc8\v2.00\pic\sources\c99\common\doprnt.c: 828:       
                                       ll = (long long)(*(int *)__va_arg(*(int **)ap, (int)0));
  3487                           	movff	(c:vfpfcnvrt@ap),fsr2l
  3488  002266  C04A  FFD9         	movff	(c:vfpfcnvrt@ap+1),fsr2h
  3489  00226A  C04B  FFDA         	movff	indf2,??_vfpfcnvrt+0+0
  3490  00226E  CFDF F04C          	movlw	low(02h)
  3491  002272  0E02               	addwf	postinc2
  3492  002274  26DE               	movff	indf2,??_vfpfcnvrt+0+0+1
  3493  002276  CFDF F04D          	movlw	high(02h)
  3494  00227A  0E00               	addwfc	postdec2
  3495  00227C  22DD               	movff	??_vfpfcnvrt+0+0,fsr2l
  3496  00227E  C04C  FFD9         	movff	??_vfpfcnvrt+0+1,fsr2h
  3497  002282  C04D  FFDA         	movff	postinc2,(c:vfpfcnvrt@ll)
  3498  002286  CFDE F04E          	movff	postdec2,(c:vfpfcnvrt@ll+1)
  3499  00228A  CFDD F04F          	movlw	0
  3500  00228E  0E00               	btfsc	((c:vfpfcnvrt@ll+1)),c,7
  3501  002290  BE4F               	movlw	-1
  3502  002292  0EFF               	movwf	((c:vfpfcnvrt@ll+2)),c
  3503  002294  6E50               	movwf	((c:vfpfcnvrt@ll+3)),c
  3504  002296  6E51               	movwf	((c:vfpfcnvrt@ll+4)),c
  3505  002298  6E52               	movwf	((c:vfpfcnvrt@ll+5)),c
  3506  00229A  6E53               	movwf	((c:vfpfcnvrt@ll+6)),c
  3507  00229C  6E54               	movwf	((c:vfpfcnvrt@ll+7)),c
  3508  00229E  6E55               	line	830
  3509                           	
  3510                           l3877:
  3511  0022A0                     ;C:\Program Files (x86)\Microchip\xc8\v2.00\pic\sources\c99\common\doprnt.c: 830:       
                                       return dtoa(fp, ll);
  3512                           		movff	(c:vfpfcnvrt@fp),(c:dtoa@fp)
  3513  0022A0  C046  F022         	movff	(c:vfpfcnvrt@fp+1),(c:dtoa@fp+1)
  3514  0022A4  C047  F023         
  3515                           	movff	(c:vfpfcnvrt@ll),(c:dtoa@d)
  3516  0022A8  C04E  F024         	movff	(c:vfpfcnvrt@ll+1),(c:dtoa@d+1)
  3517  0022AC  C04F  F025         	movff	(c:vfpfcnvrt@ll+2),(c:dtoa@d+2)
  3518  0022B0  C050  F026         	movff	(c:vfpfcnvrt@ll+3),(c:dtoa@d+3)
  3519  0022B4  C051  F027         	movff	(c:vfpfcnvrt@ll+4),(c:dtoa@d+4)
  3520  0022B8  C052  F028         	movff	(c:vfpfcnvrt@ll+5),(c:dtoa@d+5)
  3521  0022BC  C053  F029         	movff	(c:vfpfcnvrt@ll+6),(c:dtoa@d+6)
  3522  0022C0  C054  F02A         	movff	(c:vfpfcnvrt@ll+7),(c:dtoa@d+7)
  3523  0022C4  C055  F02B         	call	_dtoa	;wreg free
  3524  0022C8  EC70  F00D         	movff	0+?_dtoa,(c:?_vfpfcnvrt)
  3525  0022CC  C022  F046         	movff	1+?_dtoa,(c:?_vfpfcnvrt+1)
  3526  0022D0  C023  F047         	goto	l361
  3527  0022D4  EFC7  F011         	
  3528                           l3879:
  3529  0022D8                     	goto	l361
  3530  0022D8  EFC7  F011         	line	831
  3531                           ;C:\Program Files (x86)\Microchip\xc8\v2.00\pic\sources\c99\common\doprnt.c: 831:       
                                   }
  3532                           	
  3533                           l358:
  3534  0022DC                     	line	1350
  3535                           	
  3536                           l3881:
  3537  0022DC                     ;C:\Program Files (x86)\Microchip\xc8\v2.00\pic\sources\c99\common\doprnt.c: 1350:      
                                    if ((*fmt)[0] == '%') {
  3538                           	movff	(c:vfpfcnvrt@fmt),fsr2l
  3539  0022DC  C048  FFD9         	movff	(c:vfpfcnvrt@fmt+1),fsr2h
  3540  0022E0  C049  FFDA         	movff	postinc2,tblptrl
  3541  0022E4  CFDE FFF6          	movff	postdec2,tblptrh
  3542  0022E8  CFDD FFF7          	if	0	;tblptru may be non-zero
  3543  0022EC                     	clrf	tblptru
  3545  0022EC                     	if	0	;tblptru may be non-zero
  3546  0022EC                     	global __mediumconst
  3547                           movlw	low highword(__mediumconst)
  3550  0022EC                     	tblrd	*
  3551  0022EC  0008               	
  3552                           	movf	tablat,w
  3553  0022EE  50F5               	xorlw	025h
  3554  0022F0  0A25               	btfss	status,2
  3555  0022F2  A4D8               	goto	u4841
  3556  0022F4  EF7E  F011         	goto	u4840
  3557  0022F8  EF80  F011         u4841:
  3558  0022FC                     	goto	l3891
  3559  0022FC  EF99  F011         u4840:
  3560  002300                     	line	1351
  3561                           	
  3562                           l3883:
  3563  002300                     ;C:\Program Files (x86)\Microchip\xc8\v2.00\pic\sources\c99\common\doprnt.c: 1351:      
                                        ++*fmt;
  3564                           	movff	(c:vfpfcnvrt@fmt),fsr2l
  3565  002300  C048  FFD9         	movff	(c:vfpfcnvrt@fmt+1),fsr2h
  3566  002304  C049  FFDA         	incf	postinc2
  3567  002308  2ADE               	movlw	0
  3568  00230A  0E00               	addwfc	postdec2
  3569  00230C  22DD               	line	1352
  3570                           	
  3571                           l3885:
  3572  00230E                     ;C:\Program Files (x86)\Microchip\xc8\v2.00\pic\sources\c99\common\doprnt.c: 1352:      
                                        fputc((int)'%', fp);
  3573                           	movlw	high(025h)
  3574  00230E  0E00               	movwf	((c:fputc@c+1)),c
  3575  002310  6E08               	movlw	low(025h)
  3576  002312  0E25               	movwf	((c:fputc@c)),c
  3577  002314  6E07               		movff	(c:vfpfcnvrt@fp),(c:fputc@fp)
  3578  002316  C046  F009         	movff	(c:vfpfcnvrt@fp+1),(c:fputc@fp+1)
  3579  00231A  C047  F00A         
  3580                           	call	_fputc	;wreg free
  3581  00231E  ECEE  F014         	line	1353
  3582                           	
  3583                           l3887:
  3584  002322                     ;C:\Program Files (x86)\Microchip\xc8\v2.00\pic\sources\c99\common\doprnt.c: 1353:      
                                        return 1;
  3585                           	movlw	high(01h)
  3586  002322  0E00               	movwf	((c:?_vfpfcnvrt+1)),c
  3587  002324  6E47               	movlw	low(01h)
  3588  002326  0E01               	movwf	((c:?_vfpfcnvrt)),c
  3589  002328  6E46               	goto	l361
  3590  00232A  EFC7  F011         	
  3591                           l3889:
  3592  00232E                     	goto	l361
  3593  00232E  EFC7  F011         	line	1354
  3594                           ;C:\Program Files (x86)\Microchip\xc8\v2.00\pic\sources\c99\common\doprnt.c: 1354:      
                                    }
  3595                           	
  3596                           l362:
  3597  002332                     	line	1357
  3598                           	
  3599                           l3891:
  3600  002332                     ;C:\Program Files (x86)\Microchip\xc8\v2.00\pic\sources\c99\common\doprnt.c: 1357:      
                                    ++*fmt;
  3601                           	movff	(c:vfpfcnvrt@fmt),fsr2l
  3602  002332  C048  FFD9         	movff	(c:vfpfcnvrt@fmt+1),fsr2h
  3603  002336  C049  FFDA         	incf	postinc2
  3604  00233A  2ADE               	movlw	0
  3605  00233C  0E00               	addwfc	postdec2
  3606  00233E  22DD               	line	1358
  3607                           	
  3608                           l3893:
  3609  002340                     ;C:\Program Files (x86)\Microchip\xc8\v2.00\pic\sources\c99\common\doprnt.c: 1358:      
                                    return 0;
  3610                           	movlw	high(0)
  3611  002340  0E00               	movwf	((c:?_vfpfcnvrt+1)),c
  3612  002342  6E47               	movlw	low(0)
  3613  002344  0E00               	movwf	((c:?_vfpfcnvrt)),c
  3614  002346  6E46               	goto	l361
  3615  002348  EFC7  F011         	
  3616                           l3895:
  3617  00234C                     	goto	l361
  3618  00234C  EFC7  F011         	line	1359
  3619                           ;C:\Program Files (x86)\Microchip\xc8\v2.00\pic\sources\c99\common\doprnt.c: 1359:     }
                                 
  3620                           	
  3621                           l357:
  3622  002350                     	line	1362
  3623                           	
  3624                           l3897:
  3625  002350                     ;C:\Program Files (x86)\Microchip\xc8\v2.00\pic\sources\c99\common\doprnt.c: 1362:     f
                                 putc((int)(*fmt)[0], fp);
  3626                           	movff	(c:vfpfcnvrt@fmt),fsr2l
  3627  002350  C048  FFD9         	movff	(c:vfpfcnvrt@fmt+1),fsr2h
  3628  002354  C049  FFDA         	movff	postinc2,tblptrl
  3629  002358  CFDE FFF6          	movff	postdec2,tblptrh
  3630  00235C  CFDD FFF7          	if	0	;tblptru may be non-zero
  3631  002360                     	clrf	tblptru
  3633  002360                     	if	0	;tblptru may be non-zero
  3634  002360                     	global __mediumconst
  3635                           movlw	low highword(__mediumconst)
  3638  002360                     	tblrd	*
  3639  002360  0008               	
  3640                           	movf	tablat,w
  3641  002362  50F5               
  3642                           	movwf	((c:fputc@c)),c
  3643  002364  6E07               	clrf	((c:fputc@c+1)),c
  3644  002366  6A08               		movff	(c:vfpfcnvrt@fp),(c:fputc@fp)
  3645  002368  C046  F009         	movff	(c:vfpfcnvrt@fp+1),(c:fputc@fp+1)
  3646  00236C  C047  F00A         
  3647                           	call	_fputc	;wreg free
  3648  002370  ECEE  F014         	line	1363
  3649                           	
  3650                           l3899:
  3651  002374                     ;C:\Program Files (x86)\Microchip\xc8\v2.00\pic\sources\c99\common\doprnt.c: 1363:     +
                                 +*fmt;
  3652                           	movff	(c:vfpfcnvrt@fmt),fsr2l
  3653  002374  C048  FFD9         	movff	(c:vfpfcnvrt@fmt+1),fsr2h
  3654  002378  C049  FFDA         	incf	postinc2
  3655  00237C  2ADE               	movlw	0
  3656  00237E  0E00               	addwfc	postdec2
  3657  002380  22DD               	line	1364
  3658                           	
  3659                           l3901:
  3660  002382                     ;C:\Program Files (x86)\Microchip\xc8\v2.00\pic\sources\c99\common\doprnt.c: 1364:     r
                                 eturn 1;
  3661                           	movlw	high(01h)
  3662  002382  0E00               	movwf	((c:?_vfpfcnvrt+1)),c
  3663  002384  6E47               	movlw	low(01h)
  3664  002386  0E01               	movwf	((c:?_vfpfcnvrt)),c
  3665  002388  6E46               	goto	l361
  3666  00238A  EFC7  F011         	
  3667                           l3903:
  3668  00238E                     	line	1365
  3669                           	
  3670                           l361:
  3671  00238E                     	return	;funcret
  3672  00238E  0012               	opt stack 0
  3673                           GLOBAL	__end_of_vfpfcnvrt
  3674                           	__end_of_vfpfcnvrt:
  3675  002390                     	signat	_vfpfcnvrt,12410
  3676                           	global	_dtoa
  3677                           
  3678 ;; *************** function _dtoa *****************
  3679 ;; Defined at:
  3680 ;;		line 274 in file "C:\Program Files (x86)\Microchip\xc8\v2.00\pic\sources\c99\common\doprnt.c"
  3681 ;; Parameters:    Size  Location     Type
  3682 ;;  fp              2   33[COMRAM] PTR struct _IO_FILE
  3683 ;;		 -> sprintf@f(6), 
  3684 ;;  d               8   35[COMRAM] long long 
  3685 ;; Auto vars:     Size  Location     Type
  3686 ;;  n               8   59[COMRAM] long long 
  3687 ;;  i               2   67[COMRAM] int 
  3688 ;;  s               2   57[COMRAM] int 
  3689 ;;  w               2   55[COMRAM] int 
  3690 ;;  p               2   53[COMRAM] int 
  3691 ;; Return value:  Size  Location     Type
  3692 ;;                  2   33[COMRAM] int 
  3693 ;; Registers used:
  3694 ;;		wreg, fsr1l, fsr1h, fsr2l, fsr2h, status,2, status,0, cstack
  3695 ;; Tracked objects:
  3696 ;;		On entry : 0/0
  3697 ;;		On exit  : 0/0
  3698 ;;		Unchanged: 0/0
  3699 ;; Data sizes:     COMRAM   BANK0   BANK1   BANK2   BANK3   BANK4   BANK5
  3700 ;;      Params:        10       0       0       0       0       0       0
  3701 ;;      Locals:        18       0       0       0       0       0       0
  3702 ;;      Temps:          8       0       0       0       0       0       0
  3703 ;;      Totals:        36       0       0       0       0       0       0
  3704 ;;Total ram usage:       36 bytes
  3705 ;; Hardware stack levels used:    1
  3706 ;; Hardware stack levels required when called:    5
  3707 ;; This function calls:
  3708 ;;		___aodiv
  3709 ;;		___aomod
  3710 ;;		_abs
  3711 ;;		_pad
  3712 ;; This function is called by:
  3713 ;;		_vfpfcnvrt
  3714 ;; This function uses a non-reentrant model
  3715 ;;
  3716                           psect	text4,class=CODE,space=0,reloc=2,group=0
  3717                           	line	274
  3718                           global __ptext4
  3719                           __ptext4:
  3720  001AE0                     psect	text4
  3721                           	file	"C:\Program Files (x86)\Microchip\xc8\v2.00\pic\sources\c99\common\doprnt.c"
  3722                           	line	274
  3723                           	global	__size_of_dtoa
  3724                           	__size_of_dtoa	equ	__end_of_dtoa-_dtoa
  3725  0000                     	
  3726                           _dtoa:
  3727  001AE0                     ;incstack = 0
  3728                           	opt	stack 22
  3729                           	line	280
  3730                           	
  3731                           l3801:
  3732  001AE0                     ;C:\Program Files (x86)\Microchip\xc8\v2.00\pic\sources\c99\common\doprnt.c: 274: static
                                  int dtoa(FILE *fp, long long d);C:\Program Files (x86)\Microchip\xc8\v2.00\pic\sources\
                                 c99\common\doprnt.c: 275: {;C:\Program Files (x86)\Microchip\xc8\v2.00\pic\sources\c99\c
                                 ommon\doprnt.c: 276:     int i, p, s, w;;C:\Program Files (x86)\Microchip\xc8\v2.00\pic\
                                 sources\c99\common\doprnt.c: 277:     long long n;;C:\Program Files (x86)\Microchip\xc8\
                                 v2.00\pic\sources\c99\common\doprnt.c: 280:     n = d;
  3733                           	movff	(c:dtoa@d),(c:dtoa@n)
  3734  001AE0  C024  F03C         	movff	(c:dtoa@d+1),(c:dtoa@n+1)
  3735  001AE4  C025  F03D         	movff	(c:dtoa@d+2),(c:dtoa@n+2)
  3736  001AE8  C026  F03E         	movff	(c:dtoa@d+3),(c:dtoa@n+3)
  3737  001AEC  C027  F03F         	movff	(c:dtoa@d+4),(c:dtoa@n+4)
  3738  001AF0  C028  F040         	movff	(c:dtoa@d+5),(c:dtoa@n+5)
  3739  001AF4  C029  F041         	movff	(c:dtoa@d+6),(c:dtoa@n+6)
  3740  001AF8  C02A  F042         	movff	(c:dtoa@d+7),(c:dtoa@n+7)
  3741  001AFC  C02B  F043         	line	281
  3742                           	
  3743                           l3803:
  3744  001B00                     ;C:\Program Files (x86)\Microchip\xc8\v2.00\pic\sources\c99\common\doprnt.c: 281:     s 
                                 = n < 0 ? 1 : 0;
  3745                           	btfsc	((c:dtoa@n+7)),c,7
  3746  001B00  BE43               	goto	u4661
  3747  001B02  EF85  F00D         	goto	u4660
  3748  001B06  EF88  F00D         
  3749                           u4661:
  3750  001B0A                     	movlw	1
  3751  001B0A  0E01               	goto	u4670
  3752  001B0C  EF89  F00D         u4660:
  3753  001B10                     	movlw	0
  3754  001B10  0E00               u4670:
  3755  001B12                     	movwf	((c:dtoa@s)),c
  3756  001B12  6E3A               	clrf	((c:dtoa@s+1)),c
  3757  001B14  6A3B               	line	282
  3758                           ;C:\Program Files (x86)\Microchip\xc8\v2.00\pic\sources\c99\common\doprnt.c: 282:     if
                                  (s) {
  3759                           	movf	((c:dtoa@s)),c,w
  3760  001B16  503A               iorwf	((c:dtoa@s+1)),c,w
  3761  001B18  103B               	btfsc	status,2
  3762  001B1A  B4D8               	goto	u4681
  3763  001B1C  EF92  F00D         	goto	u4680
  3764  001B20  EF94  F00D         
  3765                           u4681:
  3766  001B24                     	goto	l3807
  3767  001B24  EFA6  F00D         u4680:
  3768  001B28                     	line	283
  3769                           	
  3770                           l3805:
  3771  001B28                     ;C:\Program Files (x86)\Microchip\xc8\v2.00\pic\sources\c99\common\doprnt.c: 283:       
                                   n = -n;
  3772                           	comf	((c:dtoa@n+7)),c
  3773  001B28  1E43               	comf	((c:dtoa@n+6)),c
  3774  001B2A  1E42               	comf	((c:dtoa@n+5)),c
  3775  001B2C  1E41               	comf	((c:dtoa@n+4)),c
  3776  001B2E  1E40               	comf	((c:dtoa@n+3)),c
  3777  001B30  1E3F               	comf	((c:dtoa@n+2)),c
  3778  001B32  1E3E               	comf	((c:dtoa@n+1)),c
  3779  001B34  1E3D               	negf	((c:dtoa@n)),c
  3780  001B36  6C3C               	movlw	0
  3781  001B38  0E00               	addwfc	((c:dtoa@n+1)),c
  3782  001B3A  223D               	addwfc	((c:dtoa@n+2)),c
  3783  001B3C  223E               	addwfc	((c:dtoa@n+3)),c
  3784  001B3E  223F               	addwfc	((c:dtoa@n+4)),c
  3785  001B40  2240               	addwfc	((c:dtoa@n+5)),c
  3786  001B42  2241               	addwfc	((c:dtoa@n+6)),c
  3787  001B44  2242               	addwfc	((c:dtoa@n+7)),c
  3788  001B46  2243               	goto	l3807
  3789  001B48  EFA6  F00D         	line	284
  3790                           ;C:\Program Files (x86)\Microchip\xc8\v2.00\pic\sources\c99\common\doprnt.c: 284:     }

  3791                           	
  3792                           l331:
  3793  001B4C                     	line	287
  3794                           	
  3795                           l3807:
  3796  001B4C                     ;C:\Program Files (x86)\Microchip\xc8\v2.00\pic\sources\c99\common\doprnt.c: 287:     if
                                  (!(prec < 0)) {
  3797                           	btfsc	((c:_prec+1)),c,7
  3798  001B4C  BE6D               	goto	u4691
  3799  001B4E  EFAB  F00D         	goto	u4690
  3800  001B52  EFAD  F00D         
  3801                           u4691:
  3802  001B56                     	goto	l3811
  3803  001B56  EFB0  F00D         u4690:
  3804  001B5A                     	line	288
  3805                           	
  3806                           l3809:
  3807  001B5A                     ;C:\Program Files (x86)\Microchip\xc8\v2.00\pic\sources\c99\common\doprnt.c: 288:       
                                   flags &= ~(1 << 1);
  3808                           	bcf	(0+(1/8)+(c:_flags)),c,(1)&7
  3809  001B5A  926E               	goto	l3811
  3810  001B5C  EFB0  F00D         	line	289
  3811                           ;C:\Program Files (x86)\Microchip\xc8\v2.00\pic\sources\c99\common\doprnt.c: 289:     }

  3812                           	
  3813                           l332:
  3814  001B60                     	line	290
  3815                           	
  3816                           l3811:
  3817  001B60                     ;C:\Program Files (x86)\Microchip\xc8\v2.00\pic\sources\c99\common\doprnt.c: 290:     p 
                                 = (0 < prec) ? prec : 1;
  3818                           	btfsc	((c:_prec+1)),c,7
  3819  001B60  BE6D               	goto	u4700
  3820  001B62  EFBD  F00D         	movf	((c:_prec+1)),c,w
  3821  001B66  506D               	bnz	u4701
  3822  001B68  E106               	decf	((c:_prec)),c,w
  3823  001B6A  046C               	btfsc	status,0
  3824  001B6C  B0D8               	goto	u4701
  3825  001B6E  EFBB  F00D         	goto	u4700
  3826  001B72  EFBD  F00D         
  3827                           u4701:
  3828  001B76                     	goto	l334
  3829  001B76  EFC3  F00D         u4700:
  3830  001B7A                     	
  3831                           l3813:
  3832  001B7A                     	movlw	high(01h)
  3833  001B7A  0E00               	movwf	((c:dtoa@p+1)),c
  3834  001B7C  6E37               	movlw	low(01h)
  3835  001B7E  0E01               	movwf	((c:dtoa@p)),c
  3836  001B80  6E36               	goto	l336
  3837  001B82  EFC7  F00D         	
  3838                           l334:
  3839  001B86                     	movff	(c:_prec),(c:dtoa@p)
  3840  001B86  C06C  F036         	movff	(c:_prec+1),(c:dtoa@p+1)
  3841  001B8A  C06D  F037         	
  3842                           l336:
  3843  001B8E                     	line	291
  3844                           ;C:\Program Files (x86)\Microchip\xc8\v2.00\pic\sources\c99\common\doprnt.c: 291:     w 
                                 = width;
  3845                           	movff	(c:_width),(c:dtoa@w)
  3846  001B8E  C06A  F038         	movff	(c:_width+1),(c:dtoa@w+1)
  3847  001B92  C06B  F039         	line	292
  3848                           	
  3849                           l3815:
  3850  001B96                     ;C:\Program Files (x86)\Microchip\xc8\v2.00\pic\sources\c99\common\doprnt.c: 292:     if
                                  (s || (flags & (1 << 2))) {
  3851                           	movf	((c:dtoa@s)),c,w
  3852  001B96  503A               iorwf	((c:dtoa@s+1)),c,w
  3853  001B98  103B               	btfss	status,2
  3854  001B9A  A4D8               	goto	u4711
  3855  001B9C  EFD2  F00D         	goto	u4710
  3856  001BA0  EFD4  F00D         
  3857                           u4711:
  3858  001BA4                     	goto	l3819
  3859  001BA4  EFDD  F00D         u4710:
  3860  001BA8                     	
  3861                           l3817:
  3862  001BA8                     	
  3863                           	btfss	((c:_flags)),c,(2)&7
  3864  001BA8  A46E               	goto	u4721
  3865  001BAA  EFD9  F00D         	goto	u4720
  3866  001BAE  EFDB  F00D         u4721:
  3867  001BB2                     	goto	l3821
  3868  001BB2  EFE2  F00D         u4720:
  3869  001BB6                     	goto	l3819
  3870  001BB6  EFDD  F00D         	
  3871                           l339:
  3872  001BBA                     	line	293
  3873                           	
  3874                           l3819:
  3875  001BBA                     ;C:\Program Files (x86)\Microchip\xc8\v2.00\pic\sources\c99\common\doprnt.c: 293:       
                                   --w;
  3876                           	decf	((c:dtoa@w)),c
  3877  001BBA  0638               	btfss	status,0
  3878  001BBC  A0D8               	decf	((c:dtoa@w+1)),c
  3879  001BBE  0639               	goto	l3821
  3880  001BC0  EFE2  F00D         	line	294
  3881                           ;C:\Program Files (x86)\Microchip\xc8\v2.00\pic\sources\c99\common\doprnt.c: 294:     }

  3882                           	
  3883                           l337:
  3884  001BC4                     	line	297
  3885                           	
  3886                           l3821:
  3887  001BC4                     ;C:\Program Files (x86)\Microchip\xc8\v2.00\pic\sources\c99\common\doprnt.c: 297:     i 
                                 = sizeof(dbuf) - 1;
  3888                           	movlw	high(01Fh)
  3889  001BC4  0E00               	movwf	((c:dtoa@i+1)),c
  3890  001BC6  6E45               	movlw	low(01Fh)
  3891  001BC8  0E1F               	movwf	((c:dtoa@i)),c
  3892  001BCA  6E44               	line	298
  3893                           	
  3894                           l3823:
  3895  001BCC                     ;C:\Program Files (x86)\Microchip\xc8\v2.00\pic\sources\c99\common\doprnt.c: 298:     db
                                 uf[i] = '\0';
  3896                           	movlw	low(_dbuf)
  3897  001BCC  0EA2               	addwf	((c:dtoa@i)),c,w
  3898  001BCE  2444               	movwf	c:fsr2l
  3899  001BD0  6ED9               	movlw	high(_dbuf)
  3900  001BD2  0E00               	addwfc	((c:dtoa@i+1)),c,w
  3901  001BD4  2045               	movwf	1+c:fsr2l
  3902  001BD6  6EDA               	movlw	low(0)
  3903  001BD8  0E00               	movwf	indf2
  3904  001BDA  6EDF               	line	299
  3905                           ;C:\Program Files (x86)\Microchip\xc8\v2.00\pic\sources\c99\common\doprnt.c: 299:     wh
                                 ile (!(i < 1) && (n || (0 < p) || ((0 < w) && (flags & (1 << 1))))) {
  3906                           	goto	l3835
  3907  001BDC  EF6E  F00E         	
  3908                           l341:
  3909  001BE0                     	line	300
  3910                           	
  3911                           l3825:
  3912  001BE0                     ;C:\Program Files (x86)\Microchip\xc8\v2.00\pic\sources\c99\common\doprnt.c: 300:       
                                   --i;
  3913                           	decf	((c:dtoa@i)),c
  3914  001BE0  0644               	btfss	status,0
  3915  001BE2  A0D8               	decf	((c:dtoa@i+1)),c
  3916  001BE4  0645               	line	301
  3917                           	
  3918                           l3827:
  3919  001BE6                     ;C:\Program Files (x86)\Microchip\xc8\v2.00\pic\sources\c99\common\doprnt.c: 301:       
                                   dbuf[i] = '0' + abs(n % 10);
  3920                           	movlw	low(_dbuf)
  3921  001BE6  0EA2               	addwf	((c:dtoa@i)),c,w
  3922  001BE8  2444               	movwf	c:fsr2l
  3923  001BEA  6ED9               	movlw	high(_dbuf)
  3924  001BEC  0E00               	addwfc	((c:dtoa@i+1)),c,w
  3925  001BEE  2045               	movwf	1+c:fsr2l
  3926  001BF0  6EDA               	movff	(c:dtoa@n),(c:___aomod@dividend)
  3927  001BF2  C03C  F007         	movff	(c:dtoa@n+1),(c:___aomod@dividend+1)
  3928  001BF6  C03D  F008         	movff	(c:dtoa@n+2),(c:___aomod@dividend+2)
  3929  001BFA  C03E  F009         	movff	(c:dtoa@n+3),(c:___aomod@dividend+3)
  3930  001BFE  C03F  F00A         	movff	(c:dtoa@n+4),(c:___aomod@dividend+4)
  3931  001C02  C040  F00B         	movff	(c:dtoa@n+5),(c:___aomod@dividend+5)
  3932  001C06  C041  F00C         	movff	(c:dtoa@n+6),(c:___aomod@dividend+6)
  3933  001C0A  C042  F00D         	movff	(c:dtoa@n+7),(c:___aomod@dividend+7)
  3934  001C0E  C043  F00E         	movlw	byte0(0Ah)
  3935  001C12  0E0A               	movwf	((c:___aomod@divisor)),c
  3936  001C14  6E0F               	movlw	byte1(0Ah)
  3937  001C16  0E00               	movwf	((c:___aomod@divisor+1)),c
  3938  001C18  6E10               	movlw	byte2(0Ah)
  3939  001C1A  0E00               	movwf	((c:___aomod@divisor+2)),c
  3940  001C1C  6E11               	movlw	byte3(0Ah)
  3941  001C1E  0E00               	movwf	((c:___aomod@divisor+3)),c
  3942  001C20  6E12               	movlw	byte4(0Ah)
  3943  001C22  0E00               	movwf	((c:___aomod@divisor+4)),c
  3944  001C24  6E13               	movlw	byte5(0Ah)
  3945  001C26  0E00               	movwf	((c:___aomod@divisor+5)),c
  3946  001C28  6E14               	movlw	byte6(0Ah)
  3947  001C2A  0E00               	movwf	((c:___aomod@divisor+6)),c
  3948  001C2C  6E15               	movlw	byte7(0Ah)
  3949  001C2E  0E00               	movwf	((c:___aomod@divisor+7)),c
  3950  001C30  6E16               	call	___aomod	;wreg free
  3951  001C32  EC7F  F013         	movff	0+?___aomod,??_dtoa+0+0
  3952  001C36  C007  F02C         	movff	1+?___aomod,??_dtoa+0+0+1
  3953  001C3A  C008  F02D         	movff	2+?___aomod,??_dtoa+0+0+2
  3954  001C3E  C009  F02E         	movff	3+?___aomod,??_dtoa+0+0+3
  3955  001C42  C00A  F02F         	movff	4+?___aomod,??_dtoa+0+0+4
  3956  001C46  C00B  F030         	movff	5+?___aomod,??_dtoa+0+0+5
  3957  001C4A  C00C  F031         	movff	6+?___aomod,??_dtoa+0+0+6
  3958  001C4E  C00D  F032         	movff	7+?___aomod,??_dtoa+0+0+7
  3959  001C52  C00E  F033         	
  3960                           	movff	??_dtoa+0+0,(c:abs@a)
  3961  001C56  C02C  F019         	movff	??_dtoa+0+2,(c:abs@a+1)
  3962  001C5A  C02E  F01A         	call	_abs	;wreg free
  3963  001C5E  EC7D  F018         	movf	(0+?_abs),c,w
  3964  001C62  5019               	addlw	low(030h)
  3965  001C64  0F30               	movwf	indf2,c
  3966  001C66  6EDF               
  3967                           	line	302
  3968                           	
  3969                           l3829:
  3970  001C68                     ;C:\Program Files (x86)\Microchip\xc8\v2.00\pic\sources\c99\common\doprnt.c: 302:       
                                   --p;
  3971                           	decf	((c:dtoa@p)),c
  3972  001C68  0636               	btfss	status,0
  3973  001C6A  A0D8               	decf	((c:dtoa@p+1)),c
  3974  001C6C  0637               	line	303
  3975                           	
  3976                           l3831:
  3977  001C6E                     ;C:\Program Files (x86)\Microchip\xc8\v2.00\pic\sources\c99\common\doprnt.c: 303:       
                                   --w;
  3978                           	decf	((c:dtoa@w)),c
  3979  001C6E  0638               	btfss	status,0
  3980  001C70  A0D8               	decf	((c:dtoa@w+1)),c
  3981  001C72  0639               	line	304
  3982                           	
  3983                           l3833:
  3984  001C74                     ;C:\Program Files (x86)\Microchip\xc8\v2.00\pic\sources\c99\common\doprnt.c: 304:       
                                   n = n / 10;
  3985                           	movff	(c:dtoa@n),(c:___aodiv@dividend)
  3986  001C74  C03C  F007         	movff	(c:dtoa@n+1),(c:___aodiv@dividend+1)
  3987  001C78  C03D  F008         	movff	(c:dtoa@n+2),(c:___aodiv@dividend+2)
  3988  001C7C  C03E  F009         	movff	(c:dtoa@n+3),(c:___aodiv@dividend+3)
  3989  001C80  C03F  F00A         	movff	(c:dtoa@n+4),(c:___aodiv@dividend+4)
  3990  001C84  C040  F00B         	movff	(c:dtoa@n+5),(c:___aodiv@dividend+5)
  3991  001C88  C041  F00C         	movff	(c:dtoa@n+6),(c:___aodiv@dividend+6)
  3992  001C8C  C042  F00D         	movff	(c:dtoa@n+7),(c:___aodiv@dividend+7)
  3993  001C90  C043  F00E         	movlw	byte0(0Ah)
  3994  001C94  0E0A               	movwf	((c:___aodiv@divisor)),c
  3995  001C96  6E0F               	movlw	byte1(0Ah)
  3996  001C98  0E00               	movwf	((c:___aodiv@divisor+1)),c
  3997  001C9A  6E10               	movlw	byte2(0Ah)
  3998  001C9C  0E00               	movwf	((c:___aodiv@divisor+2)),c
  3999  001C9E  6E11               	movlw	byte3(0Ah)
  4000  001CA0  0E00               	movwf	((c:___aodiv@divisor+3)),c
  4001  001CA2  6E12               	movlw	byte4(0Ah)
  4002  001CA4  0E00               	movwf	((c:___aodiv@divisor+4)),c
  4003  001CA6  6E13               	movlw	byte5(0Ah)
  4004  001CA8  0E00               	movwf	((c:___aodiv@divisor+5)),c
  4005  001CAA  6E14               	movlw	byte6(0Ah)
  4006  001CAC  0E00               	movwf	((c:___aodiv@divisor+6)),c
  4007  001CAE  6E15               	movlw	byte7(0Ah)
  4008  001CB0  0E00               	movwf	((c:___aodiv@divisor+7)),c
  4009  001CB2  6E16               	call	___aodiv	;wreg free
  4010  001CB4  ECA7  F012         	movff	0+?___aodiv,(c:dtoa@n)
  4011  001CB8  C007  F03C         	movff	1+?___aodiv,(c:dtoa@n+1)
  4012  001CBC  C008  F03D         	movff	2+?___aodiv,(c:dtoa@n+2)
  4013  001CC0  C009  F03E         	movff	3+?___aodiv,(c:dtoa@n+3)
  4014  001CC4  C00A  F03F         	movff	4+?___aodiv,(c:dtoa@n+4)
  4015  001CC8  C00B  F040         	movff	5+?___aodiv,(c:dtoa@n+5)
  4016  001CCC  C00C  F041         	movff	6+?___aodiv,(c:dtoa@n+6)
  4017  001CD0  C00D  F042         	movff	7+?___aodiv,(c:dtoa@n+7)
  4018  001CD4  C00E  F043         	
  4019                           	goto	l3835
  4020  001CD8  EF6E  F00E         	line	305
  4021                           ;C:\Program Files (x86)\Microchip\xc8\v2.00\pic\sources\c99\common\doprnt.c: 305:     }

  4022                           	
  4023                           l340:
  4024  001CDC                     	line	299
  4025                           	
  4026                           l3835:
  4027  001CDC                     ;C:\Program Files (x86)\Microchip\xc8\v2.00\pic\sources\c99\common\doprnt.c: 299:     wh
                                 ile (!(i < 1) && (n || (0 < p) || ((0 < w) && (flags & (1 << 1))))) {
  4028                           	btfsc	((c:dtoa@i+1)),c,7
  4029  001CDC  BE45               	goto	u4731
  4030  001CDE  EF79  F00E         	movf	((c:dtoa@i+1)),c,w
  4031  001CE2  5045               	bnz	u4730
  4032  001CE4  E108               	decf	((c:dtoa@i)),c,w
  4033  001CE6  0444               	btfss	status,0
  4034  001CE8  A0D8               	goto	u4731
  4035  001CEA  EF79  F00E         	goto	u4730
  4036  001CEE  EF7B  F00E         
  4037                           u4731:
  4038  001CF2                     	goto	l3845
  4039  001CF2  EFB1  F00E         u4730:
  4040  001CF6                     	
  4041                           l3837:
  4042  001CF6                     	movf	((c:dtoa@n)),c,w
  4043  001CF6  503C               iorwf	((c:dtoa@n+1)),c,w
  4044  001CF8  103D               iorwf	((c:dtoa@n+2)),c,w
  4045  001CFA  103E               iorwf	((c:dtoa@n+3)),c,w
  4046  001CFC  103F               iorwf	((c:dtoa@n+4)),c,w
  4047  001CFE  1040               iorwf	((c:dtoa@n+5)),c,w
  4048  001D00  1041               iorwf	((c:dtoa@n+6)),c,w
  4049  001D02  1042               iorwf	((c:dtoa@n+7)),c,w
  4050  001D04  1043               	btfss	status,2
  4051  001D06  A4D8               	goto	u4741
  4052  001D08  EF88  F00E         	goto	u4740
  4053  001D0C  EF8A  F00E         
  4054                           u4741:
  4055  001D10                     	goto	l3825
  4056  001D10  EFF0  F00D         u4740:
  4057  001D14                     	
  4058                           l3839:
  4059  001D14                     	btfsc	((c:dtoa@p+1)),c,7
  4060  001D14  BE37               	goto	u4750
  4061  001D16  EF97  F00E         	movf	((c:dtoa@p+1)),c,w
  4062  001D1A  5037               	bnz	u4751
  4063  001D1C  E106               	decf	((c:dtoa@p)),c,w
  4064  001D1E  0436               	btfsc	status,0
  4065  001D20  B0D8               	goto	u4751
  4066  001D22  EF95  F00E         	goto	u4750
  4067  001D26  EF97  F00E         
  4068                           u4751:
  4069  001D2A                     	goto	l3825
  4070  001D2A  EFF0  F00D         u4750:
  4071  001D2E                     	
  4072                           l3841:
  4073  001D2E                     	btfsc	((c:dtoa@w+1)),c,7
  4074  001D2E  BE39               	goto	u4761
  4075  001D30  EFA2  F00E         	movf	((c:dtoa@w+1)),c,w
  4076  001D34  5039               	bnz	u4760
  4077  001D36  E108               	decf	((c:dtoa@w)),c,w
  4078  001D38  0438               	btfss	status,0
  4079  001D3A  A0D8               	goto	u4761
  4080  001D3C  EFA2  F00E         	goto	u4760
  4081  001D40  EFA4  F00E         
  4082                           u4761:
  4083  001D44                     	goto	l3845
  4084  001D44  EFB1  F00E         u4760:
  4085  001D48                     	
  4086                           l3843:
  4087  001D48                     	
  4088                           	btfsc	((c:_flags)),c,(1)&7
  4089  001D48  B26E               	goto	u4771
  4090  001D4A  EFA9  F00E         	goto	u4770
  4091  001D4E  EFAB  F00E         u4771:
  4092  001D52                     	goto	l3825
  4093  001D52  EFF0  F00D         u4770:
  4094  001D56                     	goto	l3845
  4095  001D56  EFB1  F00E         	
  4096                           l345:
  4097  001D5A                     	goto	l3845
  4098  001D5A  EFB1  F00E         	
  4099                           l343:
  4100  001D5E                     	goto	l3845
  4101  001D5E  EFB1  F00E         	
  4102                           l346:
  4103  001D62                     	line	308
  4104                           	
  4105                           l3845:
  4106  001D62                     ;C:\Program Files (x86)\Microchip\xc8\v2.00\pic\sources\c99\common\doprnt.c: 308:     if
                                  (s || (flags & (1 << 2))) {
  4107                           	movf	((c:dtoa@s)),c,w
  4108  001D62  503A               iorwf	((c:dtoa@s+1)),c,w
  4109  001D64  103B               	btfss	status,2
  4110  001D66  A4D8               	goto	u4781
  4111  001D68  EFB8  F00E         	goto	u4780
  4112  001D6C  EFBA  F00E         
  4113                           u4781:
  4114  001D70                     	goto	l3849
  4115  001D70  EFC3  F00E         u4780:
  4116  001D74                     	
  4117                           l3847:
  4118  001D74                     	
  4119                           	btfss	((c:_flags)),c,(2)&7
  4120  001D74  A46E               	goto	u4791
  4121  001D76  EFBF  F00E         	goto	u4790
  4122  001D7A  EFC1  F00E         u4791:
  4123  001D7E                     	goto	l3859
  4124  001D7E  EFE5  F00E         u4790:
  4125  001D82                     	goto	l3849
  4126  001D82  EFC3  F00E         	
  4127                           l349:
  4128  001D86                     	line	309
  4129                           	
  4130                           l3849:
  4131  001D86                     ;C:\Program Files (x86)\Microchip\xc8\v2.00\pic\sources\c99\common\doprnt.c: 309:       
                                   --i;
  4132                           	decf	((c:dtoa@i)),c
  4133  001D86  0644               	btfss	status,0
  4134  001D88  A0D8               	decf	((c:dtoa@i+1)),c
  4135  001D8A  0645               	line	310
  4136                           	
  4137                           l3851:
  4138  001D8C                     ;C:\Program Files (x86)\Microchip\xc8\v2.00\pic\sources\c99\common\doprnt.c: 310:       
                                   dbuf[i] = s ? '-' : '+';
  4139                           	movf	((c:dtoa@s)),c,w
  4140  001D8C  503A               iorwf	((c:dtoa@s+1)),c,w
  4141  001D8E  103B               	btfss	status,2
  4142  001D90  A4D8               	goto	u4801
  4143  001D92  EFCD  F00E         	goto	u4800
  4144  001D96  EFCF  F00E         
  4145                           u4801:
  4146  001D9A                     	goto	l3855
  4147  001D9A  EFD5  F00E         u4800:
  4148  001D9E                     	
  4149                           l3853:
  4150  001D9E                     	movlw	high(02Bh)
  4151  001D9E  0E00               	movwf	((c:_dtoa$708+1)),c
  4152  001DA0  6E35               	movlw	low(02Bh)
  4153  001DA2  0E2B               	movwf	((c:_dtoa$708)),c
  4154  001DA4  6E34               	goto	l3857
  4155  001DA6  EFDB  F00E         	
  4156                           l351:
  4157  001DAA                     	
  4158                           l3855:
  4159  001DAA                     	movlw	high(02Dh)
  4160  001DAA  0E00               	movwf	((c:_dtoa$708+1)),c
  4161  001DAC  6E35               	movlw	low(02Dh)
  4162  001DAE  0E2D               	movwf	((c:_dtoa$708)),c
  4163  001DB0  6E34               	goto	l3857
  4164  001DB2  EFDB  F00E         	
  4165                           l353:
  4166  001DB6                     	
  4167                           l3857:
  4168  001DB6                     	movlw	low(_dbuf)
  4169  001DB6  0EA2               	addwf	((c:dtoa@i)),c,w
  4170  001DB8  2444               	movwf	c:fsr2l
  4171  001DBA  6ED9               	movlw	high(_dbuf)
  4172  001DBC  0E00               	addwfc	((c:dtoa@i+1)),c,w
  4173  001DBE  2045               	movwf	1+c:fsr2l
  4174  001DC0  6EDA               	movff	(c:_dtoa$708),indf2
  4175  001DC2  C034  FFDF         
  4176                           	goto	l3859
  4177  001DC6  EFE5  F00E         	line	311
  4178                           ;C:\Program Files (x86)\Microchip\xc8\v2.00\pic\sources\c99\common\doprnt.c: 311:     }

  4179                           	
  4180                           l347:
  4181  001DCA                     	line	314
  4182                           	
  4183                           l3859:
  4184  001DCA                     ;C:\Program Files (x86)\Microchip\xc8\v2.00\pic\sources\c99\common\doprnt.c: 314:     re
                                 turn pad(fp, &dbuf[i], w);
  4185                           		movff	(c:dtoa@fp),(c:pad@fp)
  4186  001DCA  C022  F017         	movff	(c:dtoa@fp+1),(c:pad@fp+1)
  4187  001DCE  C023  F018         
  4188                           	movlw	low(_dbuf)
  4189  001DD2  0EA2               	addwf	((c:dtoa@i)),c,w
  4190  001DD4  2444               	movwf	((c:pad@buf)),c
  4191  001DD6  6E19               	movlw	high(_dbuf)
  4192  001DD8  0E00               	addwfc	((c:dtoa@i+1)),c,w
  4193  001DDA  2045               	movwf	1+((c:pad@buf)),c
  4194  001DDC  6E1A               	movff	(c:dtoa@w),(c:pad@p)
  4195  001DDE  C038  F01B         	movff	(c:dtoa@w+1),(c:pad@p+1)
  4196  001DE2  C039  F01C         	call	_pad	;wreg free
  4197  001DE6  EC5D  F015         	movff	0+?_pad,(c:?_dtoa)
  4198  001DEA  C017  F022         	movff	1+?_pad,(c:?_dtoa+1)
  4199  001DEE  C018  F023         	goto	l354
  4200  001DF2  EFFB  F00E         	
  4201                           l3861:
  4202  001DF6                     	line	315
  4203                           	
  4204                           l354:
  4205  001DF6                     	return	;funcret
  4206  001DF6  0012               	opt stack 0
  4207                           GLOBAL	__end_of_dtoa
  4208                           	__end_of_dtoa:
  4209  001DF8                     	signat	_dtoa,8314
  4210                           	global	_pad
  4211                           
  4212 ;; *************** function _pad *****************
  4213 ;; Defined at:
  4214 ;;		line 72 in file "C:\Program Files (x86)\Microchip\xc8\v2.00\pic\sources\c99\common\doprnt.c"
  4215 ;; Parameters:    Size  Location     Type
  4216 ;;  fp              2   22[COMRAM] PTR struct _IO_FILE
  4217 ;;		 -> sprintf@f(6), 
  4218 ;;  buf             2   24[COMRAM] PTR unsigned char 
  4219 ;;		 -> dbuf(32), 
  4220 ;;  p               2   26[COMRAM] int 
  4221 ;; Auto vars:     Size  Location     Type
  4222 ;;  w               2   31[COMRAM] int 
  4223 ;;  i               2   29[COMRAM] int 
  4224 ;; Return value:  Size  Location     Type
  4225 ;;                  2   22[COMRAM] int 
  4226 ;; Registers used:
  4227 ;;		wreg, fsr1l, fsr1h, fsr2l, fsr2h, status,2, status,0, cstack
  4228 ;; Tracked objects:
  4229 ;;		On entry : 0/0
  4230 ;;		On exit  : 0/0
  4231 ;;		Unchanged: 0/0
  4232 ;; Data sizes:     COMRAM   BANK0   BANK1   BANK2   BANK3   BANK4   BANK5
  4233 ;;      Params:         6       0       0       0       0       0       0
  4234 ;;      Locals:         4       0       0       0       0       0       0
  4235 ;;      Temps:          1       0       0       0       0       0       0
  4236 ;;      Totals:        11       0       0       0       0       0       0
  4237 ;;Total ram usage:       11 bytes
  4238 ;; Hardware stack levels used:    1
  4239 ;; Hardware stack levels required when called:    4
  4240 ;; This function calls:
  4241 ;;		_fputc
  4242 ;;		_fputs
  4243 ;;		_strlen
  4244 ;; This function is called by:
  4245 ;;		_dtoa
  4246 ;; This function uses a non-reentrant model
  4247 ;;
  4248                           psect	text5,class=CODE,space=0,reloc=2,group=0
  4249                           	line	72
  4250                           global __ptext5
  4251                           __ptext5:
  4252  002ABA                     psect	text5
  4253                           	file	"C:\Program Files (x86)\Microchip\xc8\v2.00\pic\sources\c99\common\doprnt.c"
  4254                           	line	72
  4255                           	global	__size_of_pad
  4256                           	__size_of_pad	equ	__end_of_pad-_pad
  4257  0000                     	
  4258                           _pad:
  4259  002ABA                     ;incstack = 0
  4260                           	opt	stack 22
  4261                           	line	77
  4262                           	
  4263                           l3695:
  4264  002ABA                     ;C:\Program Files (x86)\Microchip\xc8\v2.00\pic\sources\c99\common\doprnt.c: 72: static 
                                 int pad(FILE *fp, char *buf, int p);C:\Program Files (x86)\Microchip\xc8\v2.00\pic\sourc
                                 es\c99\common\doprnt.c: 73: {;C:\Program Files (x86)\Microchip\xc8\v2.00\pic\sources\c99
                                 \common\doprnt.c: 74:     int i, w;;C:\Program Files (x86)\Microchip\xc8\v2.00\pic\sourc
                                 es\c99\common\doprnt.c: 77:     if (flags & (1 << 0)) {
  4265                           	
  4266                           	btfss	((c:_flags)),c,(0)&7
  4267  002ABA  A06E               	goto	u4481
  4268  002ABC  EF62  F015         	goto	u4480
  4269  002AC0  EF64  F015         u4481:
  4270  002AC4                     	goto	l3699
  4271  002AC4  EF70  F015         u4480:
  4272  002AC8                     	line	78
  4273                           	
  4274                           l3697:
  4275  002AC8                     ;C:\Program Files (x86)\Microchip\xc8\v2.00\pic\sources\c99\common\doprnt.c: 78:        
                                  fputs((const char *)buf, fp);
  4276                           		movff	(c:pad@buf),(c:fputs@s)
  4277  002AC8  C019  F010         	movff	(c:pad@buf+1),(c:fputs@s+1)
  4278  002ACC  C01A  F011         
  4279                           		movff	(c:pad@fp),(c:fputs@fp)
  4280  002AD0  C017  F012         	movff	(c:pad@fp+1),(c:fputs@fp+1)
  4281  002AD4  C018  F013         
  4282                           	call	_fputs	;wreg free
  4283  002AD8  EC32  F018         	goto	l3699
  4284  002ADC  EF70  F015         	line	79
  4285                           ;C:\Program Files (x86)\Microchip\xc8\v2.00\pic\sources\c99\common\doprnt.c: 79:     }
  4286                           	
  4287                           l319:
  4288  002AE0                     	line	82
  4289                           	
  4290                           l3699:
  4291  002AE0                     ;C:\Program Files (x86)\Microchip\xc8\v2.00\pic\sources\c99\common\doprnt.c: 82:     w =
                                  (p < 0) ? 0 : p;
  4292                           	btfsc	((c:pad@p+1)),c,7
  4293  002AE0  BE1C               	goto	u4491
  4294  002AE2  EF75  F015         	goto	u4490
  4295  002AE6  EF77  F015         
  4296                           u4491:
  4297  002AEA                     	goto	l3703
  4298  002AEA  EF7D  F015         u4490:
  4299  002AEE                     	
  4300                           l3701:
  4301  002AEE                     	movff	(c:pad@p),(c:pad@w)
  4302  002AEE  C01B  F020         	movff	(c:pad@p+1),(c:pad@w+1)
  4303  002AF2  C01C  F021         	goto	l323
  4304  002AF6  EF81  F015         	
  4305                           l321:
  4306  002AFA                     	
  4307                           l3703:
  4308  002AFA                     	movlw	high(0)
  4309  002AFA  0E00               	movwf	((c:pad@w+1)),c
  4310  002AFC  6E21               	movlw	low(0)
  4311  002AFE  0E00               	movwf	((c:pad@w)),c
  4312  002B00  6E20               	
  4313                           l323:
  4314  002B02                     	line	83
  4315                           ;C:\Program Files (x86)\Microchip\xc8\v2.00\pic\sources\c99\common\doprnt.c: 83:     i =
                                  0;
  4316                           	movlw	high(0)
  4317  002B02  0E00               	movwf	((c:pad@i+1)),c
  4318  002B04  6E1F               	movlw	low(0)
  4319  002B06  0E00               	movwf	((c:pad@i)),c
  4320  002B08  6E1E               	line	84
  4321                           ;C:\Program Files (x86)\Microchip\xc8\v2.00\pic\sources\c99\common\doprnt.c: 84:     whi
                                 le (i < w) {
  4322                           	goto	l3709
  4323  002B0A  EF95  F015         	
  4324                           l325:
  4325  002B0E                     	line	85
  4326                           	
  4327                           l3705:
  4328  002B0E                     ;C:\Program Files (x86)\Microchip\xc8\v2.00\pic\sources\c99\common\doprnt.c: 85:        
                                  fputc(' ', fp);
  4329                           	movlw	high(020h)
  4330  002B0E  0E00               	movwf	((c:fputc@c+1)),c
  4331  002B10  6E08               	movlw	low(020h)
  4332  002B12  0E20               	movwf	((c:fputc@c)),c
  4333  002B14  6E07               		movff	(c:pad@fp),(c:fputc@fp)
  4334  002B16  C017  F009         	movff	(c:pad@fp+1),(c:fputc@fp+1)
  4335  002B1A  C018  F00A         
  4336                           	call	_fputc	;wreg free
  4337  002B1E  ECEE  F014         	line	86
  4338                           	
  4339                           l3707:
  4340  002B22                     ;C:\Program Files (x86)\Microchip\xc8\v2.00\pic\sources\c99\common\doprnt.c: 86:        
                                  ++i;
  4341                           	infsnz	((c:pad@i)),c
  4342  002B22  4A1E               	incf	((c:pad@i+1)),c
  4343  002B24  2A1F               	goto	l3709
  4344  002B26  EF95  F015         	line	87
  4345                           ;C:\Program Files (x86)\Microchip\xc8\v2.00\pic\sources\c99\common\doprnt.c: 87:     }
  4346                           	
  4347                           l324:
  4348  002B2A                     	line	84
  4349                           	
  4350                           l3709:
  4351  002B2A                     ;C:\Program Files (x86)\Microchip\xc8\v2.00\pic\sources\c99\common\doprnt.c: 84:     whi
                                 le (i < w) {
  4352                           		movf	((c:pad@w)),c,w
  4353  002B2A  5020               	subwf	((c:pad@i)),c,w
  4354  002B2C  5C1E               	movf	((c:pad@i+1)),c,w
  4355  002B2E  501F               	xorlw	80h
  4356  002B30  0A80               	movwf	(??_pad+0+0)&0ffh,c
  4357  002B32  6E1D               	movf	((c:pad@w+1)),c,w
  4358  002B34  5021               	xorlw	80h
  4359  002B36  0A80               	subwfb	(??_pad+0+0)&0ffh,c,w
  4360  002B38  581D               	btfss	status,0
  4361  002B3A  A0D8               	goto	u4501
  4362  002B3C  EFA2  F015         	goto	u4500
  4363  002B40  EFA4  F015         
  4364                           u4501:
  4365  002B44                     	goto	l3705
  4366  002B44  EF87  F015         u4500:
  4367  002B48                     	
  4368                           l326:
  4369  002B48                     	line	90
  4370                           ;C:\Program Files (x86)\Microchip\xc8\v2.00\pic\sources\c99\common\doprnt.c: 90:     if 
                                 (!(flags & (1 << 0))) {
  4371                           	
  4372                           	btfsc	((c:_flags)),c,(0)&7
  4373  002B48  B06E               	goto	u4511
  4374  002B4A  EFA9  F015         	goto	u4510
  4375  002B4E  EFAB  F015         u4511:
  4376  002B52                     	goto	l3713
  4377  002B52  EFB7  F015         u4510:
  4378  002B56                     	line	91
  4379                           	
  4380                           l3711:
  4381  002B56                     ;C:\Program Files (x86)\Microchip\xc8\v2.00\pic\sources\c99\common\doprnt.c: 91:        
                                  fputs((const char *)buf, fp);
  4382                           		movff	(c:pad@buf),(c:fputs@s)
  4383  002B56  C019  F010         	movff	(c:pad@buf+1),(c:fputs@s+1)
  4384  002B5A  C01A  F011         
  4385                           		movff	(c:pad@fp),(c:fputs@fp)
  4386  002B5E  C017  F012         	movff	(c:pad@fp+1),(c:fputs@fp+1)
  4387  002B62  C018  F013         
  4388                           	call	_fputs	;wreg free
  4389  002B66  EC32  F018         	goto	l3713
  4390  002B6A  EFB7  F015         	line	92
  4391                           ;C:\Program Files (x86)\Microchip\xc8\v2.00\pic\sources\c99\common\doprnt.c: 92:     }
  4392                           	
  4393                           l327:
  4394  002B6E                     	line	94
  4395                           	
  4396                           l3713:
  4397  002B6E                     ;C:\Program Files (x86)\Microchip\xc8\v2.00\pic\sources\c99\common\doprnt.c: 94:     ret
                                 urn strlen(buf) + w;
  4398                           		movff	(c:pad@buf),(c:strlen@s)
  4399  002B6E  C019  F007         	movff	(c:pad@buf+1),(c:strlen@s+1)
  4400  002B72  C01A  F008         
  4401                           	call	_strlen	;wreg free
  4402  002B76  EC09  F018         	movf	((c:pad@w)),c,w
  4403  002B7A  5020               	addwf	(0+?_strlen),c,w
  4404  002B7C  2407               	movwf	((c:?_pad)),c
  4405  002B7E  6E17               	movf	((c:pad@w+1)),c,w
  4406  002B80  5021               	addwfc	(1+?_strlen),c,w
  4407  002B82  2008               	movwf	1+((c:?_pad)),c
  4408  002B84  6E18               	goto	l328
  4409  002B86  EFC5  F015         	
  4410                           l3715:
  4411  002B8A                     	line	95
  4412                           	
  4413                           l328:
  4414  002B8A                     	return	;funcret
  4415  002B8A  0012               	opt stack 0
  4416                           GLOBAL	__end_of_pad
  4417                           	__end_of_pad:
  4418  002B8C                     	signat	_pad,12410
  4419                           	global	_strlen
  4420                           
  4421 ;; *************** function _strlen *****************
  4422 ;; Defined at:
  4423 ;;		line 12 in file "C:\Program Files (x86)\Microchip\xc8\v2.00\pic\sources\c99\common\strlen.c"
  4424 ;; Parameters:    Size  Location     Type
  4425 ;;  s               2    6[COMRAM] PTR const unsigned char 
  4426 ;;		 -> dbuf(32), 
  4427 ;; Auto vars:     Size  Location     Type
  4428 ;;  a               2   10[COMRAM] PTR const unsigned char 
  4429 ;;		 -> dbuf(32), 
  4430 ;; Return value:  Size  Location     Type
  4431 ;;                  2    6[COMRAM] unsigned int 
  4432 ;; Registers used:
  4433 ;;		wreg, fsr2l, fsr2h, status,2, status,0
  4434 ;; Tracked objects:
  4435 ;;		On entry : 0/0
  4436 ;;		On exit  : 0/0
  4437 ;;		Unchanged: 0/0
  4438 ;; Data sizes:     COMRAM   BANK0   BANK1   BANK2   BANK3   BANK4   BANK5
  4439 ;;      Params:         2       0       0       0       0       0       0
  4440 ;;      Locals:         2       0       0       0       0       0       0
  4441 ;;      Temps:          2       0       0       0       0       0       0
  4442 ;;      Totals:         6       0       0       0       0       0       0
  4443 ;;Total ram usage:        6 bytes
  4444 ;; Hardware stack levels used:    1
  4445 ;; Hardware stack levels required when called:    1
  4446 ;; This function calls:
  4447 ;;		Nothing
  4448 ;; This function is called by:
  4449 ;;		_pad
  4450 ;; This function uses a non-reentrant model
  4451 ;;
  4452                           psect	text6,class=CODE,space=0,reloc=2,group=2
  4453                           	file	"C:\Program Files (x86)\Microchip\xc8\v2.00\pic\sources\c99\common\strlen.c"
  4454                           	line	12
  4455                           global __ptext6
  4456                           __ptext6:
  4457  003012                     psect	text6
  4458                           	file	"C:\Program Files (x86)\Microchip\xc8\v2.00\pic\sources\c99\common\strlen.c"
  4459                           	line	12
  4460                           	global	__size_of_strlen
  4461                           	__size_of_strlen	equ	__end_of_strlen-_strlen
  4462  0000                     	
  4463                           _strlen:
  4464  003012                     ;incstack = 0
  4465                           	opt	stack 24
  4466                           	line	14
  4467                           	
  4468                           l3685:
  4469  003012                     		movff	(c:strlen@s),(c:strlen@a)
  4470  003012  C007  F00B         	movff	(c:strlen@s+1),(c:strlen@a+1)
  4471  003016  C008  F00C         
  4472                           	line	16
  4473                           	goto	l3689
  4474  00301A  EF13  F018         	
  4475                           l1093:
  4476  00301E                     	line	17
  4477                           	
  4478                           l3687:
  4479  00301E                     	infsnz	((c:strlen@s)),c
  4480  00301E  4A07               	incf	((c:strlen@s+1)),c
  4481  003020  2A08               	goto	l3689
  4482  003022  EF13  F018         	line	18
  4483                           	
  4484                           l1092:
  4485  003026                     	line	16
  4486                           	
  4487                           l3689:
  4488  003026                     	movff	(c:strlen@s),fsr2l
  4489  003026  C007  FFD9         	movff	(c:strlen@s+1),fsr2h
  4490  00302A  C008  FFDA         	movf	indf2,w
  4491  00302E  50DF               	btfss	status,2
  4492  003030  A4D8               	goto	u4471
  4493  003032  EF1D  F018         	goto	u4470
  4494  003036  EF1F  F018         u4471:
  4495  00303A                     	goto	l3687
  4496  00303A  EF0F  F018         u4470:
  4497  00303E                     	goto	l3691
  4498  00303E  EF21  F018         	
  4499                           l1094:
  4500  003042                     	line	25
  4501                           	
  4502                           l3691:
  4503  003042                     	movff	(c:strlen@a),??_strlen+0+0
  4504  003042  C00B  F009         	movff	(c:strlen@a+1),??_strlen+0+0+1
  4505  003046  C00C  F00A         	comf	(??_strlen+0+0),c
  4506  00304A  1E09               	comf	(??_strlen+0+1),c
  4507  00304C  1E0A               	infsnz	(??_strlen+0+0),c
  4508  00304E  4A09               	incf	(??_strlen+0+1),c
  4509  003050  2A0A               	movf	((c:strlen@s)),c,w
  4510  003052  5007               	addwf	(??_strlen+0+0),c,w
  4511  003054  2409               	movwf	((c:?_strlen)),c
  4512  003056  6E07               	movf	((c:strlen@s+1)),c,w
  4513  003058  5008               	addwfc	(??_strlen+0+1),c,w
  4514  00305A  200A               	movwf	1+((c:?_strlen)),c
  4515  00305C  6E08               	goto	l1095
  4516  00305E  EF31  F018         	
  4517                           l3693:
  4518  003062                     	line	26
  4519                           	
  4520                           l1095:
  4521  003062                     	return	;funcret
  4522  003062  0012               	opt stack 0
  4523                           GLOBAL	__end_of_strlen
  4524                           	__end_of_strlen:
  4525  003064                     	signat	_strlen,4218
  4526                           	global	_fputs
  4527                           
  4528 ;; *************** function _fputs *****************
  4529 ;; Defined at:
  4530 ;;		line 8 in file "C:\Program Files (x86)\Microchip\xc8\v2.00\pic\sources\c99\common\nf_fputs.c"
  4531 ;; Parameters:    Size  Location     Type
  4532 ;;  s               2   15[COMRAM] PTR const unsigned char 
  4533 ;;		 -> dbuf(32), 
  4534 ;;  fp              2   17[COMRAM] PTR struct _IO_FILE
  4535 ;;		 -> sprintf@f(6), 
  4536 ;; Auto vars:     Size  Location     Type
  4537 ;;  i               2   20[COMRAM] int 
  4538 ;;  c               1   19[COMRAM] unsigned char 
  4539 ;; Return value:  Size  Location     Type
  4540 ;;                  2   15[COMRAM] int 
  4541 ;; Registers used:
  4542 ;;		wreg, fsr1l, fsr1h, fsr2l, fsr2h, status,2, status,0, cstack
  4543 ;; Tracked objects:
  4544 ;;		On entry : 0/0
  4545 ;;		On exit  : 0/0
  4546 ;;		Unchanged: 0/0
  4547 ;; Data sizes:     COMRAM   BANK0   BANK1   BANK2   BANK3   BANK4   BANK5
  4548 ;;      Params:         4       0       0       0       0       0       0
  4549 ;;      Locals:         3       0       0       0       0       0       0
  4550 ;;      Temps:          0       0       0       0       0       0       0
  4551 ;;      Totals:         7       0       0       0       0       0       0
  4552 ;;Total ram usage:        7 bytes
  4553 ;; Hardware stack levels used:    1
  4554 ;; Hardware stack levels required when called:    3
  4555 ;; This function calls:
  4556 ;;		_fputc
  4557 ;; This function is called by:
  4558 ;;		_pad
  4559 ;; This function uses a non-reentrant model
  4560 ;;
  4561                           psect	text7,class=CODE,space=0,reloc=2,group=2
  4562                           	file	"C:\Program Files (x86)\Microchip\xc8\v2.00\pic\sources\c99\common\nf_fputs.c"
  4563                           	line	8
  4564                           global __ptext7
  4565                           __ptext7:
  4566  003064                     psect	text7
  4567                           	file	"C:\Program Files (x86)\Microchip\xc8\v2.00\pic\sources\c99\common\nf_fputs.c"
  4568                           	line	8
  4569                           	global	__size_of_fputs
  4570                           	__size_of_fputs	equ	__end_of_fputs-_fputs
  4571  0000                     	
  4572                           _fputs:
  4573  003064                     ;incstack = 0
  4574                           	opt	stack 22
  4575                           	line	13
  4576                           	
  4577                           l3677:
  4578  003064                     	movlw	high(0)
  4579  003064  0E00               	movwf	((c:fputs@i+1)),c
  4580  003066  6E16               	movlw	low(0)
  4581  003068  0E00               	movwf	((c:fputs@i)),c
  4582  00306A  6E15               	line	14
  4583                           	goto	l3683
  4584  00306C  EF45  F018         	
  4585                           l1077:
  4586  003070                     	line	15
  4587                           	
  4588                           l3679:
  4589  003070                     	movff	(c:fputs@c),(c:fputc@c)
  4590  003070  C014  F007         	clrf	((c:fputc@c+1)),c
  4591  003074  6A08               		movff	(c:fputs@fp),(c:fputc@fp)
  4592  003076  C012  F009         	movff	(c:fputs@fp+1),(c:fputc@fp+1)
  4593  00307A  C013  F00A         
  4594                           	call	_fputc	;wreg free
  4595  00307E  ECEE  F014         	line	16
  4596                           	
  4597                           l3681:
  4598  003082                     	infsnz	((c:fputs@i)),c
  4599  003082  4A15               	incf	((c:fputs@i+1)),c
  4600  003084  2A16               	goto	l3683
  4601  003086  EF45  F018         	line	17
  4602                           	
  4603                           l1076:
  4604  00308A                     	line	14
  4605                           	
  4606                           l3683:
  4607  00308A                     	movf	((c:fputs@i)),c,w
  4608  00308A  5015               	addwf	((c:fputs@s)),c,w
  4609  00308C  2410               	movwf	c:fsr2l
  4610  00308E  6ED9               	movf	((c:fputs@i+1)),c,w
  4611  003090  5016               	addwfc	((c:fputs@s+1)),c,w
  4612  003092  2011               	movwf	1+c:fsr2l
  4613  003094  6EDA               	movf	indf2,w
  4614  003096  50DF               	movwf	((c:fputs@c)),c
  4615  003098  6E14               	movf	((c:fputs@c)),c,w
  4616  00309A  5014               	btfss	status,2
  4617  00309C  A4D8               	goto	u4461
  4618  00309E  EF53  F018         	goto	u4460
  4619  0030A2  EF55  F018         u4461:
  4620  0030A6                     	goto	l3679
  4621  0030A6  EF38  F018         u4460:
  4622  0030AA                     	goto	l1079
  4623  0030AA  EF57  F018         	
  4624                           l1078:
  4625  0030AE                     	line	19
  4626                           ;	Return value of _fputs is never used
  4627                           	
  4628                           l1079:
  4629  0030AE                     	return	;funcret
  4630  0030AE  0012               	opt stack 0
  4631                           GLOBAL	__end_of_fputs
  4632                           	__end_of_fputs:
  4633  0030B0                     	signat	_fputs,8314
  4634                           	global	_fputc
  4635                           
  4636 ;; *************** function _fputc *****************
  4637 ;; Defined at:
  4638 ;;		line 8 in file "C:\Program Files (x86)\Microchip\xc8\v2.00\pic\sources\c99\common\nf_fputc.c"
  4639 ;; Parameters:    Size  Location     Type
  4640 ;;  c               2    6[COMRAM] int 
  4641 ;;  fp              2    8[COMRAM] PTR struct _IO_FILE
  4642 ;;		 -> sprintf@f(6), 
  4643 ;; Auto vars:     Size  Location     Type
  4644 ;;		None
  4645 ;; Return value:  Size  Location     Type
  4646 ;;                  2    6[COMRAM] int 
  4647 ;; Registers used:
  4648 ;;		wreg, fsr1l, fsr1h, fsr2l, fsr2h, status,2, status,0, cstack
  4649 ;; Tracked objects:
  4650 ;;		On entry : 0/0
  4651 ;;		On exit  : 0/0
  4652 ;;		Unchanged: 0/0
  4653 ;; Data sizes:     COMRAM   BANK0   BANK1   BANK2   BANK3   BANK4   BANK5
  4654 ;;      Params:         4       0       0       0       0       0       0
  4655 ;;      Locals:         0       0       0       0       0       0       0
  4656 ;;      Temps:          5       0       0       0       0       0       0
  4657 ;;      Totals:         9       0       0       0       0       0       0
  4658 ;;Total ram usage:        9 bytes
  4659 ;; Hardware stack levels used:    1
  4660 ;; Hardware stack levels required when called:    2
  4661 ;; This function calls:
  4662 ;;		_putch
  4663 ;; This function is called by:
  4664 ;;		_pad
  4665 ;;		_vfpfcnvrt
  4666 ;;		_fputs
  4667 ;; This function uses a non-reentrant model
  4668 ;;
  4669                           psect	text8,class=CODE,space=0,reloc=2,group=2
  4670                           	file	"C:\Program Files (x86)\Microchip\xc8\v2.00\pic\sources\c99\common\nf_fputc.c"
  4671                           	line	8
  4672                           global __ptext8
  4673                           __ptext8:
  4674  0029DC                     psect	text8
  4675                           	file	"C:\Program Files (x86)\Microchip\xc8\v2.00\pic\sources\c99\common\nf_fputc.c"
  4676                           	line	8
  4677                           	global	__size_of_fputc
  4678                           	__size_of_fputc	equ	__end_of_fputc-_fputc
  4679  0000                     	
  4680                           _fputc:
  4681  0029DC                     ;incstack = 0
  4682                           	opt	stack 25
  4683                           	line	12
  4684                           	
  4685                           l3663:
  4686  0029DC                     	movf	((c:fputc@fp)),c,w
  4687  0029DC  5009               iorwf	((c:fputc@fp+1)),c,w
  4688  0029DE  100A               	btfsc	status,2
  4689  0029E0  B4D8               	goto	u4421
  4690  0029E2  EFF5  F014         	goto	u4420
  4691  0029E6  EFF7  F014         
  4692                           u4421:
  4693  0029EA                     	goto	l3667
  4694  0029EA  EF02  F015         u4420:
  4695  0029EE                     	
  4696                           l3665:
  4697  0029EE                     	movf	((c:fputc@fp)),c,w
  4698  0029EE  5009               iorwf	((c:fputc@fp+1)),c,w
  4699  0029F0  100A               	btfss	status,2
  4700  0029F2  A4D8               	goto	u4431
  4701  0029F4  EFFE  F014         	goto	u4430
  4702  0029F8  EF00  F015         
  4703                           u4431:
  4704  0029FC                     	goto	l3669
  4705  0029FC  EF07  F015         u4430:
  4706  002A00                     	goto	l3667
  4707  002A00  EF02  F015         	
  4708                           l1066:
  4709  002A04                     	line	13
  4710                           	
  4711                           l3667:
  4712  002A04                     	movf	((c:fputc@c)),c,w
  4713  002A04  5007               	
  4714                           	call	_putch
  4715  002A06  EC46  F019         	line	14
  4716                           	goto	l1071
  4717  002A0A  EF5C  F015         	
  4718                           l1064:
  4719  002A0E                     	line	15
  4720                           	
  4721                           l3669:
  4722  002A0E                     	lfsr	2,04h
  4723  002A0E  EE20 F004          	movf	((c:fputc@fp)),c,w
  4724  002A12  5009               	addwf	fsr2l
  4725  002A14  26D9               	movf	((c:fputc@fp+1)),c,w
  4726  002A16  500A               	addwfc	fsr2h
  4727  002A18  22DA               	movf	postinc2,w
  4728  002A1A  50DE               iorwf	postinc2,w
  4729  002A1C  10DE               	btfsc	status,2
  4730  002A1E  B4D8               	goto	u4441
  4731  002A20  EF14  F015         	goto	u4440
  4732  002A24  EF16  F015         
  4733                           u4441:
  4734  002A28                     	goto	l3673
  4735  002A28  EF33  F015         u4440:
  4736  002A2C                     	
  4737                           l3671:
  4738  002A2C                     	lfsr	2,04h
  4739  002A2C  EE20 F004          	movf	((c:fputc@fp)),c,w
  4740  002A30  5009               	addwf	fsr2l
  4741  002A32  26D9               	movf	((c:fputc@fp+1)),c,w
  4742  002A34  500A               	addwfc	fsr2h
  4743  002A36  22DA               	lfsr	1,02h
  4744  002A38  EE10 F002          	movf	((c:fputc@fp)),c,w
  4745  002A3C  5009               	addwf	fsr1l
  4746  002A3E  26E1               	movf	((c:fputc@fp+1)),c,w
  4747  002A40  500A               	addwfc	fsr1h
  4748  002A42  22E2               		movf	postinc2,w
  4749  002A44  50DE               	subwf	postinc1,w
  4750  002A46  5CE6               	movf	postinc1,w
  4751  002A48  50E6               	xorlw	80h
  4752  002A4A  0A80               	movwf	(??_fputc+4+0)&0ffh,c
  4753  002A4C  6E0F               	movf	postinc2,w
  4754  002A4E  50DE               	xorlw	80h
  4755  002A50  0A80               	subwfb	(??_fputc+4+0)&0ffh,c,w
  4756  002A52  580F               	btfsc	status,0
  4757  002A54  B0D8               	goto	u4451
  4758  002A56  EF2F  F015         	goto	u4450
  4759  002A5A  EF31  F015         
  4760                           u4451:
  4761  002A5E                     	goto	l1071
  4762  002A5E  EF5C  F015         u4450:
  4763  002A62                     	goto	l3673
  4764  002A62  EF33  F015         	
  4765                           l1070:
  4766  002A66                     	line	16
  4767                           	
  4768                           l3673:
  4769  002A66                     	lfsr	2,02h
  4770  002A66  EE20 F002          	movf	((c:fputc@fp)),c,w
  4771  002A6A  5009               	addwf	fsr2l
  4772  002A6C  26D9               	movf	((c:fputc@fp+1)),c,w
  4773  002A6E  500A               	addwfc	fsr2h
  4774  002A70  22DA               	movff	postinc2,??_fputc+0+0
  4775  002A72  CFDE F00B          	movff	postdec2,??_fputc+0+0+1
  4776  002A76  CFDD F00C          	movff	(c:fputc@fp),fsr2l
  4777  002A7A  C009  FFD9         	movff	(c:fputc@fp+1),fsr2h
  4778  002A7E  C00A  FFDA         	movff	postinc2,??_fputc+2+0
  4779  002A82  CFDE F00D          	movff	postdec2,??_fputc+2+0+1
  4780  002A86  CFDD F00E          	movf	(??_fputc+0+0),c,w
  4781  002A8A  500B               	addwf	(??_fputc+2+0),c,w
  4782  002A8C  240D               	movwf	c:fsr2l
  4783  002A8E  6ED9               	movf	(??_fputc+0+1),c,w
  4784  002A90  500C               	addwfc	(??_fputc+2+1),c,w
  4785  002A92  200E               	movwf	1+c:fsr2l
  4786  002A94  6EDA               	movff	(c:fputc@c),indf2
  4787  002A96  C007  FFDF         
  4788                           	line	17
  4789                           	lfsr	2,02h
  4790  002A9A  EE20 F002          	movf	((c:fputc@fp)),c,w
  4791  002A9E  5009               	addwf	fsr2l
  4792  002AA0  26D9               	movf	((c:fputc@fp+1)),c,w
  4793  002AA2  500A               	addwfc	fsr2h
  4794  002AA4  22DA               	incf	postinc2
  4795  002AA6  2ADE               	movlw	0
  4796  002AA8  0E00               	addwfc	postdec2
  4797  002AAA  22DD               	goto	l1071
  4798  002AAC  EF5C  F015         	line	18
  4799                           	
  4800                           l1068:
  4801  002AB0                     	goto	l1071
  4802  002AB0  EF5C  F015         	line	19
  4803                           	
  4804                           l1067:
  4805  002AB4                     	goto	l1071
  4806  002AB4  EF5C  F015         	line	20
  4807                           	
  4808                           l3675:
  4809  002AB8                     	line	21
  4810                           ;	Return value of _fputc is never used
  4811                           	
  4812                           l1071:
  4813  002AB8                     	return	;funcret
  4814  002AB8  0012               	opt stack 0
  4815                           GLOBAL	__end_of_fputc
  4816                           	__end_of_fputc:
  4817  002ABA                     	signat	_fputc,8314
  4818                           	global	_putch
  4819                           
  4820 ;; *************** function _putch *****************
  4821 ;; Defined at:
  4822 ;;		line 7 in file "C:\Program Files (x86)\Microchip\xc8\v2.00\pic\sources\c99\common\putch.c"
  4823 ;; Parameters:    Size  Location     Type
  4824 ;;  c               1    wreg     unsigned char 
  4825 ;; Auto vars:     Size  Location     Type
  4826 ;;  c               1    0[COMRAM] unsigned char 
  4827 ;; Return value:  Size  Location     Type
  4828 ;;                  1    wreg      void 
  4829 ;; Registers used:
  4830 ;;		wreg
  4831 ;; Tracked objects:
  4832 ;;		On entry : 0/0
  4833 ;;		On exit  : 0/0
  4834 ;;		Unchanged: 0/0
  4835 ;; Data sizes:     COMRAM   BANK0   BANK1   BANK2   BANK3   BANK4   BANK5
  4836 ;;      Params:         0       0       0       0       0       0       0
  4837 ;;      Locals:         0       0       0       0       0       0       0
  4838 ;;      Temps:          0       0       0       0       0       0       0
  4839 ;;      Totals:         0       0       0       0       0       0       0
  4840 ;;Total ram usage:        0 bytes
  4841 ;; Hardware stack levels used:    1
  4842 ;; Hardware stack levels required when called:    1
  4843 ;; This function calls:
  4844 ;;		Nothing
  4845 ;; This function is called by:
  4846 ;;		_fputc
  4847 ;; This function uses a non-reentrant model
  4848 ;;
  4849                           psect	text9,class=CODE,space=0,reloc=2,group=2
  4850                           	file	"C:\Program Files (x86)\Microchip\xc8\v2.00\pic\sources\c99\common\putch.c"
  4851                           	line	7
  4852                           global __ptext9
  4853                           __ptext9:
  4854  00328C                     psect	text9
  4855                           	file	"C:\Program Files (x86)\Microchip\xc8\v2.00\pic\sources\c99\common\putch.c"
  4856                           	line	7
  4857                           	global	__size_of_putch
  4858                           	__size_of_putch	equ	__end_of_putch-_putch
  4859  0000                     	
  4860                           _putch:
  4861  00328C                     ;incstack = 0
  4862                           	opt	stack 25
  4863                           	line	9
  4864                           	
  4865                           l1089:
  4866  00328C                     	return	;funcret
  4867  00328C  0012               	opt stack 0
  4868                           GLOBAL	__end_of_putch
  4869                           	__end_of_putch:
  4870  00328E                     	signat	_putch,4217
  4871                           	global	_abs
  4872                           
  4873 ;; *************** function _abs *****************
  4874 ;; Defined at:
  4875 ;;		line 1 in file "C:\Program Files (x86)\Microchip\xc8\v2.00\pic\sources\c99\common\abs.c"
  4876 ;; Parameters:    Size  Location     Type
  4877 ;;  a               2   24[COMRAM] int 
  4878 ;; Auto vars:     Size  Location     Type
  4879 ;;		None
  4880 ;; Return value:  Size  Location     Type
  4881 ;;                  2   24[COMRAM] int 
  4882 ;; Registers used:
  4883 ;;		wreg, status,2, status,0
  4884 ;; Tracked objects:
  4885 ;;		On entry : 0/0
  4886 ;;		On exit  : 0/0
  4887 ;;		Unchanged: 0/0
  4888 ;; Data sizes:     COMRAM   BANK0   BANK1   BANK2   BANK3   BANK4   BANK5
  4889 ;;      Params:         2       0       0       0       0       0       0
  4890 ;;      Locals:         0       0       0       0       0       0       0
  4891 ;;      Temps:          2       0       0       0       0       0       0
  4892 ;;      Totals:         4       0       0       0       0       0       0
  4893 ;;Total ram usage:        4 bytes
  4894 ;; Hardware stack levels used:    1
  4895 ;; Hardware stack levels required when called:    1
  4896 ;; This function calls:
  4897 ;;		Nothing
  4898 ;; This function is called by:
  4899 ;;		_dtoa
  4900 ;; This function uses a non-reentrant model
  4901 ;;
  4902                           psect	text10,class=CODE,space=0,reloc=2,group=2
  4903                           	file	"C:\Program Files (x86)\Microchip\xc8\v2.00\pic\sources\c99\common\abs.c"
  4904                           	line	1
  4905                           global __ptext10
  4906                           __ptext10:
  4907  0030FA                     psect	text10
  4908                           	file	"C:\Program Files (x86)\Microchip\xc8\v2.00\pic\sources\c99\common\abs.c"
  4909                           	line	1
  4910                           	global	__size_of_abs
  4911                           	__size_of_abs	equ	__end_of_abs-_abs
  4912  0000                     	
  4913                           _abs:
  4914  0030FA                     ;incstack = 0
  4915                           	opt	stack 25
  4916                           	line	3
  4917                           	
  4918                           l3717:
  4919  0030FA                     	btfsc	((c:abs@a+1)),c,7
  4920  0030FA  BE1A               	goto	u4520
  4921  0030FC  EF8A  F018         	movf	((c:abs@a+1)),c,w
  4922  003100  501A               	bnz	u4521
  4923  003102  E106               	decf	((c:abs@a)),c,w
  4924  003104  0419               	btfsc	status,0
  4925  003106  B0D8               	goto	u4521
  4926  003108  EF88  F018         	goto	u4520
  4927  00310C  EF8A  F018         
  4928                           u4521:
  4929  003110                     	goto	l1046
  4930  003110  EF98  F018         u4520:
  4931  003114                     	
  4932                           l3719:
  4933  003114                     	movff	(c:abs@a),??_abs+0+0
  4934  003114  C019  F01B         	movff	(c:abs@a+1),??_abs+0+0+1
  4935  003118  C01A  F01C         	comf	(??_abs+0+0),c
  4936  00311C  1E1B               	comf	(??_abs+0+1),c
  4937  00311E  1E1C               	infsnz	(??_abs+0+0),c
  4938  003120  4A1B               	incf	(??_abs+0+1),c
  4939  003122  2A1C               	movff	??_abs+0+0,(c:?_abs)
  4940  003124  C01B  F019         	movff	??_abs+0+1,(c:?_abs+1)
  4941  003128  C01C  F01A         	goto	l1049
  4942  00312C  EF9E  F018         	
  4943                           l1046:
  4944  003130                     	movff	(c:abs@a),(c:?_abs)
  4945  003130  C019  F019         	movff	(c:abs@a+1),(c:?_abs+1)
  4946  003134  C01A  F01A         	goto	l1049
  4947  003138  EF9E  F018         	
  4948                           l1048:
  4949  00313C                     	line	4
  4950                           	
  4951                           l1049:
  4952  00313C                     	return	;funcret
  4953  00313C  0012               	opt stack 0
  4954                           GLOBAL	__end_of_abs
  4955                           	__end_of_abs:
  4956  00313E                     	signat	_abs,4218
  4957                           	global	___aomod
  4958                           
  4959 ;; *************** function ___aomod *****************
  4960 ;; Defined at:
  4961 ;;		line 9 in file "C:\Program Files (x86)\Microchip\xc8\v2.00\pic\sources\c99\common\aomod.c"
  4962 ;; Parameters:    Size  Location     Type
  4963 ;;  dividend        8    6[COMRAM] long long 
  4964 ;;  divisor         8   14[COMRAM] long long 
  4965 ;; Auto vars:     Size  Location     Type
  4966 ;;  sign            1   23[COMRAM] unsigned char 
  4967 ;;  counter         1   22[COMRAM] unsigned char 
  4968 ;; Return value:  Size  Location     Type
  4969 ;;                  8    6[COMRAM] long long 
  4970 ;; Registers used:
  4971 ;;		wreg, status,2, status,0
  4972 ;; Tracked objects:
  4973 ;;		On entry : 0/0
  4974 ;;		On exit  : 0/0
  4975 ;;		Unchanged: 0/0
  4976 ;; Data sizes:     COMRAM   BANK0   BANK1   BANK2   BANK3   BANK4   BANK5
  4977 ;;      Params:        16       0       0       0       0       0       0
  4978 ;;      Locals:         2       0       0       0       0       0       0
  4979 ;;      Temps:          0       0       0       0       0       0       0
  4980 ;;      Totals:        18       0       0       0       0       0       0
  4981 ;;Total ram usage:       18 bytes
  4982 ;; Hardware stack levels used:    1
  4983 ;; Hardware stack levels required when called:    1
  4984 ;; This function calls:
  4985 ;;		Nothing
  4986 ;; This function is called by:
  4987 ;;		_dtoa
  4988 ;; This function uses a non-reentrant model
  4989 ;;
  4990                           psect	text11,class=CODE,space=0,reloc=2,group=1
  4991                           	file	"C:\Program Files (x86)\Microchip\xc8\v2.00\pic\sources\c99\common\aomod.c"
  4992                           	line	9
  4993                           global __ptext11
  4994                           __ptext11:
  4995  0026FE                     psect	text11
  4996                           	file	"C:\Program Files (x86)\Microchip\xc8\v2.00\pic\sources\c99\common\aomod.c"
  4997                           	line	9
  4998                           	global	__size_of___aomod
  4999                           	__size_of___aomod	equ	__end_of___aomod-___aomod
  5000  0000                     	
  5001                           ___aomod:
  5002  0026FE                     ;incstack = 0
  5003                           	opt	stack 25
  5004                           	line	14
  5005                           	
  5006                           l3765:
  5007  0026FE                     	movlw	low(0)
  5008  0026FE  0E00               	movwf	((c:___aomod@sign)),c
  5009  002700  6E18               	line	15
  5010                           	
  5011                           l3767:
  5012  002702                     	btfsc	((c:___aomod@dividend+7)),c,7
  5013  002702  BE0E               	goto	u4600
  5014  002704  EF88  F013         	goto	u4601
  5015  002708  EF86  F013         
  5016                           u4601:
  5017  00270C                     	goto	l3773
  5018  00270C  EF9C  F013         u4600:
  5019  002710                     	line	16
  5020                           	
  5021                           l3769:
  5022  002710                     	comf	((c:___aomod@dividend+7)),c
  5023  002710  1E0E               	comf	((c:___aomod@dividend+6)),c
  5024  002712  1E0D               	comf	((c:___aomod@dividend+5)),c
  5025  002714  1E0C               	comf	((c:___aomod@dividend+4)),c
  5026  002716  1E0B               	comf	((c:___aomod@dividend+3)),c
  5027  002718  1E0A               	comf	((c:___aomod@dividend+2)),c
  5028  00271A  1E09               	comf	((c:___aomod@dividend+1)),c
  5029  00271C  1E08               	negf	((c:___aomod@dividend)),c
  5030  00271E  6C07               	movlw	0
  5031  002720  0E00               	addwfc	((c:___aomod@dividend+1)),c
  5032  002722  2208               	addwfc	((c:___aomod@dividend+2)),c
  5033  002724  2209               	addwfc	((c:___aomod@dividend+3)),c
  5034  002726  220A               	addwfc	((c:___aomod@dividend+4)),c
  5035  002728  220B               	addwfc	((c:___aomod@dividend+5)),c
  5036  00272A  220C               	addwfc	((c:___aomod@dividend+6)),c
  5037  00272C  220D               	addwfc	((c:___aomod@dividend+7)),c
  5038  00272E  220E               	line	17
  5039                           	
  5040                           l3771:
  5041  002730                     	movlw	low(01h)
  5042  002730  0E01               	movwf	((c:___aomod@sign)),c
  5043  002732  6E18               	goto	l3773
  5044  002734  EF9C  F013         	line	18
  5045                           	
  5046                           l488:
  5047  002738                     	line	19
  5048                           	
  5049                           l3773:
  5050  002738                     	btfsc	((c:___aomod@divisor+7)),c,7
  5051  002738  BE16               	goto	u4610
  5052  00273A  EFA3  F013         	goto	u4611
  5053  00273E  EFA1  F013         
  5054                           u4611:
  5055  002742                     	goto	l3777
  5056  002742  EFB5  F013         u4610:
  5057  002746                     	line	20
  5058                           	
  5059                           l3775:
  5060  002746                     	comf	((c:___aomod@divisor+7)),c
  5061  002746  1E16               	comf	((c:___aomod@divisor+6)),c
  5062  002748  1E15               	comf	((c:___aomod@divisor+5)),c
  5063  00274A  1E14               	comf	((c:___aomod@divisor+4)),c
  5064  00274C  1E13               	comf	((c:___aomod@divisor+3)),c
  5065  00274E  1E12               	comf	((c:___aomod@divisor+2)),c
  5066  002750  1E11               	comf	((c:___aomod@divisor+1)),c
  5067  002752  1E10               	negf	((c:___aomod@divisor)),c
  5068  002754  6C0F               	movlw	0
  5069  002756  0E00               	addwfc	((c:___aomod@divisor+1)),c
  5070  002758  2210               	addwfc	((c:___aomod@divisor+2)),c
  5071  00275A  2211               	addwfc	((c:___aomod@divisor+3)),c
  5072  00275C  2212               	addwfc	((c:___aomod@divisor+4)),c
  5073  00275E  2213               	addwfc	((c:___aomod@divisor+5)),c
  5074  002760  2214               	addwfc	((c:___aomod@divisor+6)),c
  5075  002762  2215               	addwfc	((c:___aomod@divisor+7)),c
  5076  002764  2216               	goto	l3777
  5077  002766  EFB5  F013         	
  5078                           l489:
  5079  00276A                     	line	21
  5080                           	
  5081                           l3777:
  5082  00276A                     	movf	((c:___aomod@divisor)),c,w
  5083  00276A  500F               iorwf	((c:___aomod@divisor+1)),c,w
  5084  00276C  1010               iorwf	((c:___aomod@divisor+2)),c,w
  5085  00276E  1011               iorwf	((c:___aomod@divisor+3)),c,w
  5086  002770  1012               iorwf	((c:___aomod@divisor+4)),c,w
  5087  002772  1013               iorwf	((c:___aomod@divisor+5)),c,w
  5088  002774  1014               iorwf	((c:___aomod@divisor+6)),c,w
  5089  002776  1015               iorwf	((c:___aomod@divisor+7)),c,w
  5090  002778  1016               	btfsc	status,2
  5091  00277A  B4D8               	goto	u4621
  5092  00277C  EFC2  F013         	goto	u4620
  5093  002780  EFC4  F013         
  5094                           u4621:
  5095  002784                     	goto	l3793
  5096  002784  EF18  F014         u4620:
  5097  002788                     	line	22
  5098                           	
  5099                           l3779:
  5100  002788                     	movlw	low(01h)
  5101  002788  0E01               	movwf	((c:___aomod@counter)),c
  5102  00278A  6E17               	line	23
  5103                           	goto	l3783
  5104  00278C  EFD4  F013         	
  5105                           l492:
  5106  002790                     	line	24
  5107                           	
  5108                           l3781:
  5109  002790                     	bcf	status,0
  5110  002790  90D8               	rlcf	((c:___aomod@divisor)),c
  5111  002792  360F               	rlcf	((c:___aomod@divisor+1)),c
  5112  002794  3610               	rlcf	((c:___aomod@divisor+2)),c
  5113  002796  3611               	rlcf	((c:___aomod@divisor+3)),c
  5114  002798  3612               	rlcf	((c:___aomod@divisor+4)),c
  5115  00279A  3613               	rlcf	((c:___aomod@divisor+5)),c
  5116  00279C  3614               	rlcf	((c:___aomod@divisor+6)),c
  5117  00279E  3615               	rlcf	((c:___aomod@divisor+7)),c
  5118  0027A0  3616               	line	25
  5119                           	incf	((c:___aomod@counter)),c
  5120  0027A2  2A17               	goto	l3783
  5121  0027A4  EFD4  F013         	line	26
  5122                           	
  5123                           l491:
  5124  0027A8                     	line	23
  5125                           	
  5126                           l3783:
  5127  0027A8                     	
  5128                           	btfss	((c:___aomod@divisor+7)),c,(63)&7
  5129  0027A8  AE16               	goto	u4631
  5130  0027AA  EFD9  F013         	goto	u4630
  5131  0027AE  EFDB  F013         u4631:
  5132  0027B2                     	goto	l3781
  5133  0027B2  EFC8  F013         u4630:
  5134  0027B6                     	goto	l3785
  5135  0027B6  EFDF  F013         	
  5136                           l493:
  5137  0027BA                     	goto	l3785
  5138  0027BA  EFDF  F013         	line	27
  5139                           	
  5140                           l494:
  5141  0027BE                     	line	28
  5142                           	
  5143                           l3785:
  5144  0027BE                     		movf	((c:___aomod@divisor)),c,w
  5145  0027BE  500F               	subwf	((c:___aomod@dividend)),c,w
  5146  0027C0  5C07               	movf	((c:___aomod@divisor+1)),c,w
  5147  0027C2  5010               	subwfb	((c:___aomod@dividend+1)),c,w
  5148  0027C4  5808               	movf	((c:___aomod@divisor+2)),c,w
  5149  0027C6  5011               	subwfb	((c:___aomod@dividend+2)),c,w
  5150  0027C8  5809               	movf	((c:___aomod@divisor+3)),c,w
  5151  0027CA  5012               	subwfb	((c:___aomod@dividend+3)),c,w
  5152  0027CC  580A               	movf	((c:___aomod@divisor+4)),c,w
  5153  0027CE  5013               	subwfb	((c:___aomod@dividend+4)),c,w
  5154  0027D0  580B               	movf	((c:___aomod@divisor+5)),c,w
  5155  0027D2  5014               	subwfb	((c:___aomod@dividend+5)),c,w
  5156  0027D4  580C               	movf	((c:___aomod@divisor+6)),c,w
  5157  0027D6  5015               	subwfb	((c:___aomod@dividend+6)),c,w
  5158  0027D8  580D               	movf	((c:___aomod@divisor+7)),c,w
  5159  0027DA  5016               	subwfb	((c:___aomod@dividend+7)),c,w
  5160  0027DC  580E               	btfss	status,0
  5161  0027DE  A0D8               	goto	u4641
  5162  0027E0  EFF4  F013         	goto	u4640
  5163  0027E4  EFF6  F013         
  5164                           u4641:
  5165  0027E8                     	goto	l3789
  5166  0027E8  EF08  F014         u4640:
  5167  0027EC                     	line	29
  5168                           	
  5169                           l3787:
  5170  0027EC                     	movf	((c:___aomod@divisor)),c,w
  5171  0027EC  500F               	subwf	((c:___aomod@dividend)),c
  5172  0027EE  5E07               	movf	((c:___aomod@divisor+1)),c,w
  5173  0027F0  5010               	subwfb	((c:___aomod@dividend+1)),c
  5174  0027F2  5A08               	movf	((c:___aomod@divisor+2)),c,w
  5175  0027F4  5011               	subwfb	((c:___aomod@dividend+2)),c
  5176  0027F6  5A09               	movf	((c:___aomod@divisor+3)),c,w
  5177  0027F8  5012               	subwfb	((c:___aomod@dividend+3)),c
  5178  0027FA  5A0A               	movf	((c:___aomod@divisor+4)),c,w
  5179  0027FC  5013               	subwfb	((c:___aomod@dividend+4)),c
  5180  0027FE  5A0B               	movf	((c:___aomod@divisor+5)),c,w
  5181  002800  5014               	subwfb	((c:___aomod@dividend+5)),c
  5182  002802  5A0C               	movf	((c:___aomod@divisor+6)),c,w
  5183  002804  5015               	subwfb	((c:___aomod@dividend+6)),c
  5184  002806  5A0D               	movf	((c:___aomod@divisor+7)),c,w
  5185  002808  5016               	subwfb	((c:___aomod@dividend+7)),c
  5186  00280A  5A0E               	goto	l3789
  5187  00280C  EF08  F014         	
  5188                           l495:
  5189  002810                     	line	30
  5190                           	
  5191                           l3789:
  5192  002810                     	bcf	status,0
  5193  002810  90D8               	rrcf	((c:___aomod@divisor+7)),c
  5194  002812  3216               	rrcf	((c:___aomod@divisor+6)),c
  5195  002814  3215               	rrcf	((c:___aomod@divisor+5)),c
  5196  002816  3214               	rrcf	((c:___aomod@divisor+4)),c
  5197  002818  3213               	rrcf	((c:___aomod@divisor+3)),c
  5198  00281A  3212               	rrcf	((c:___aomod@divisor+2)),c
  5199  00281C  3211               	rrcf	((c:___aomod@divisor+1)),c
  5200  00281E  3210               	rrcf	((c:___aomod@divisor)),c
  5201  002820  320F               	line	31
  5202                           	
  5203                           l3791:
  5204  002822                     	decfsz	((c:___aomod@counter)),c
  5205  002822  2E17               	
  5206                           	goto	l3785
  5207  002824  EFDF  F013         	goto	l3793
  5208  002828  EF18  F014         	
  5209                           l496:
  5210  00282C                     	goto	l3793
  5211  00282C  EF18  F014         	line	32
  5212                           	
  5213                           l490:
  5214  002830                     	line	33
  5215                           	
  5216                           l3793:
  5217  002830                     	movf	((c:___aomod@sign)),c,w
  5218  002830  5018               	btfsc	status,2
  5219  002832  B4D8               	goto	u4651
  5220  002834  EF1E  F014         	goto	u4650
  5221  002838  EF20  F014         u4651:
  5222  00283C                     	goto	l3797
  5223  00283C  EF32  F014         u4650:
  5224  002840                     	line	34
  5225                           	
  5226                           l3795:
  5227  002840                     	comf	((c:___aomod@dividend+7)),c
  5228  002840  1E0E               	comf	((c:___aomod@dividend+6)),c
  5229  002842  1E0D               	comf	((c:___aomod@dividend+5)),c
  5230  002844  1E0C               	comf	((c:___aomod@dividend+4)),c
  5231  002846  1E0B               	comf	((c:___aomod@dividend+3)),c
  5232  002848  1E0A               	comf	((c:___aomod@dividend+2)),c
  5233  00284A  1E09               	comf	((c:___aomod@dividend+1)),c
  5234  00284C  1E08               	negf	((c:___aomod@dividend)),c
  5235  00284E  6C07               	movlw	0
  5236  002850  0E00               	addwfc	((c:___aomod@dividend+1)),c
  5237  002852  2208               	addwfc	((c:___aomod@dividend+2)),c
  5238  002854  2209               	addwfc	((c:___aomod@dividend+3)),c
  5239  002856  220A               	addwfc	((c:___aomod@dividend+4)),c
  5240  002858  220B               	addwfc	((c:___aomod@dividend+5)),c
  5241  00285A  220C               	addwfc	((c:___aomod@dividend+6)),c
  5242  00285C  220D               	addwfc	((c:___aomod@dividend+7)),c
  5243  00285E  220E               	goto	l3797
  5244  002860  EF32  F014         	
  5245                           l497:
  5246  002864                     	line	35
  5247                           	
  5248                           l3797:
  5249  002864                     	movff	(c:___aomod@dividend),(c:?___aomod)
  5250  002864  C007  F007         	movff	(c:___aomod@dividend+1),(c:?___aomod+1)
  5251  002868  C008  F008         	movff	(c:___aomod@dividend+2),(c:?___aomod+2)
  5252  00286C  C009  F009         	movff	(c:___aomod@dividend+3),(c:?___aomod+3)
  5253  002870  C00A  F00A         	movff	(c:___aomod@dividend+4),(c:?___aomod+4)
  5254  002874  C00B  F00B         	movff	(c:___aomod@dividend+5),(c:?___aomod+5)
  5255  002878  C00C  F00C         	movff	(c:___aomod@dividend+6),(c:?___aomod+6)
  5256  00287C  C00D  F00D         	movff	(c:___aomod@dividend+7),(c:?___aomod+7)
  5257  002880  C00E  F00E         	goto	l498
  5258  002884  EF44  F014         	
  5259                           l3799:
  5260  002888                     	line	36
  5261                           	
  5262                           l498:
  5263  002888                     	return	;funcret
  5264  002888  0012               	opt stack 0
  5265                           GLOBAL	__end_of___aomod
  5266                           	__end_of___aomod:
  5267  00288A                     	signat	___aomod,8319
  5268                           	global	___aodiv
  5269                           
  5270 ;; *************** function ___aodiv *****************
  5271 ;; Defined at:
  5272 ;;		line 9 in file "C:\Program Files (x86)\Microchip\xc8\v2.00\pic\sources\c99\common\aodiv.c"
  5273 ;; Parameters:    Size  Location     Type
  5274 ;;  dividend        8    6[COMRAM] long long 
  5275 ;;  divisor         8   14[COMRAM] long long 
  5276 ;; Auto vars:     Size  Location     Type
  5277 ;;  quotient        8   24[COMRAM] long long 
  5278 ;;  sign            1   23[COMRAM] unsigned char 
  5279 ;;  counter         1   22[COMRAM] unsigned char 
  5280 ;; Return value:  Size  Location     Type
  5281 ;;                  8    6[COMRAM] long long 
  5282 ;; Registers used:
  5283 ;;		wreg, fsr2l, fsr2h, status,2, status,0
  5284 ;; Tracked objects:
  5285 ;;		On entry : 0/0
  5286 ;;		On exit  : 0/0
  5287 ;;		Unchanged: 0/0
  5288 ;; Data sizes:     COMRAM   BANK0   BANK1   BANK2   BANK3   BANK4   BANK5
  5289 ;;      Params:        16       0       0       0       0       0       0
  5290 ;;      Locals:        10       0       0       0       0       0       0
  5291 ;;      Temps:          0       0       0       0       0       0       0
  5292 ;;      Totals:        26       0       0       0       0       0       0
  5293 ;;Total ram usage:       26 bytes
  5294 ;; Hardware stack levels used:    1
  5295 ;; Hardware stack levels required when called:    1
  5296 ;; This function calls:
  5297 ;;		Nothing
  5298 ;; This function is called by:
  5299 ;;		_dtoa
  5300 ;; This function uses a non-reentrant model
  5301 ;;
  5302                           psect	text12,class=CODE,space=0,reloc=2,group=1
  5303                           	file	"C:\Program Files (x86)\Microchip\xc8\v2.00\pic\sources\c99\common\aodiv.c"
  5304                           	line	9
  5305                           global __ptext12
  5306                           __ptext12:
  5307  00254E                     psect	text12
  5308                           	file	"C:\Program Files (x86)\Microchip\xc8\v2.00\pic\sources\c99\common\aodiv.c"
  5309                           	line	9
  5310                           	global	__size_of___aodiv
  5311                           	__size_of___aodiv	equ	__end_of___aodiv-___aodiv
  5312  0000                     	
  5313                           ___aodiv:
  5314  00254E                     ;incstack = 0
  5315                           	opt	stack 25
  5316                           	line	15
  5317                           	
  5318                           l3721:
  5319  00254E                     	movlw	low(0)
  5320  00254E  0E00               	movwf	((c:___aodiv@sign)),c
  5321  002550  6E18               	line	16
  5322                           	
  5323                           l3723:
  5324  002552                     	btfsc	((c:___aodiv@divisor+7)),c,7
  5325  002552  BE16               	goto	u4530
  5326  002554  EFB0  F012         	goto	u4531
  5327  002558  EFAE  F012         
  5328                           u4531:
  5329  00255C                     	goto	l3729
  5330  00255C  EFC4  F012         u4530:
  5331  002560                     	line	17
  5332                           	
  5333                           l3725:
  5334  002560                     	comf	((c:___aodiv@divisor+7)),c
  5335  002560  1E16               	comf	((c:___aodiv@divisor+6)),c
  5336  002562  1E15               	comf	((c:___aodiv@divisor+5)),c
  5337  002564  1E14               	comf	((c:___aodiv@divisor+4)),c
  5338  002566  1E13               	comf	((c:___aodiv@divisor+3)),c
  5339  002568  1E12               	comf	((c:___aodiv@divisor+2)),c
  5340  00256A  1E11               	comf	((c:___aodiv@divisor+1)),c
  5341  00256C  1E10               	negf	((c:___aodiv@divisor)),c
  5342  00256E  6C0F               	movlw	0
  5343  002570  0E00               	addwfc	((c:___aodiv@divisor+1)),c
  5344  002572  2210               	addwfc	((c:___aodiv@divisor+2)),c
  5345  002574  2211               	addwfc	((c:___aodiv@divisor+3)),c
  5346  002576  2212               	addwfc	((c:___aodiv@divisor+4)),c
  5347  002578  2213               	addwfc	((c:___aodiv@divisor+5)),c
  5348  00257A  2214               	addwfc	((c:___aodiv@divisor+6)),c
  5349  00257C  2215               	addwfc	((c:___aodiv@divisor+7)),c
  5350  00257E  2216               	line	18
  5351                           	
  5352                           l3727:
  5353  002580                     	movlw	low(01h)
  5354  002580  0E01               	movwf	((c:___aodiv@sign)),c
  5355  002582  6E18               	goto	l3729
  5356  002584  EFC4  F012         	line	19
  5357                           	
  5358                           l475:
  5359  002588                     	line	20
  5360                           	
  5361                           l3729:
  5362  002588                     	btfsc	((c:___aodiv@dividend+7)),c,7
  5363  002588  BE0E               	goto	u4540
  5364  00258A  EFCB  F012         	goto	u4541
  5365  00258E  EFC9  F012         
  5366                           u4541:
  5367  002592                     	goto	l3735
  5368  002592  EFDF  F012         u4540:
  5369  002596                     	line	21
  5370                           	
  5371                           l3731:
  5372  002596                     	comf	((c:___aodiv@dividend+7)),c
  5373  002596  1E0E               	comf	((c:___aodiv@dividend+6)),c
  5374  002598  1E0D               	comf	((c:___aodiv@dividend+5)),c
  5375  00259A  1E0C               	comf	((c:___aodiv@dividend+4)),c
  5376  00259C  1E0B               	comf	((c:___aodiv@dividend+3)),c
  5377  00259E  1E0A               	comf	((c:___aodiv@dividend+2)),c
  5378  0025A0  1E09               	comf	((c:___aodiv@dividend+1)),c
  5379  0025A2  1E08               	negf	((c:___aodiv@dividend)),c
  5380  0025A4  6C07               	movlw	0
  5381  0025A6  0E00               	addwfc	((c:___aodiv@dividend+1)),c
  5382  0025A8  2208               	addwfc	((c:___aodiv@dividend+2)),c
  5383  0025AA  2209               	addwfc	((c:___aodiv@dividend+3)),c
  5384  0025AC  220A               	addwfc	((c:___aodiv@dividend+4)),c
  5385  0025AE  220B               	addwfc	((c:___aodiv@dividend+5)),c
  5386  0025B0  220C               	addwfc	((c:___aodiv@dividend+6)),c
  5387  0025B2  220D               	addwfc	((c:___aodiv@dividend+7)),c
  5388  0025B4  220E               	line	22
  5389                           	
  5390                           l3733:
  5391  0025B6                     	movlw	(01h)&0ffh
  5392  0025B6  0E01               	xorwf	((c:___aodiv@sign)),c
  5393  0025B8  1A18               	goto	l3735
  5394  0025BA  EFDF  F012         	line	23
  5395                           	
  5396                           l476:
  5397  0025BE                     	line	24
  5398                           	
  5399                           l3735:
  5400  0025BE                     	lfsr	2,(___aodiv@quotient)
  5401  0025BE  EE20  F019         	movlw	8-1
  5402  0025C2  0E07               u4551:
  5403  0025C4                     	clrf	postinc2
  5404  0025C4  6ADE               	decf	wreg
  5405  0025C6  06E8               	bc	u4551
  5406  0025C8  E2FD               	line	25
  5407                           	
  5408                           l3737:
  5409  0025CA                     	movf	((c:___aodiv@divisor)),c,w
  5410  0025CA  500F               iorwf	((c:___aodiv@divisor+1)),c,w
  5411  0025CC  1010               iorwf	((c:___aodiv@divisor+2)),c,w
  5412  0025CE  1011               iorwf	((c:___aodiv@divisor+3)),c,w
  5413  0025D0  1012               iorwf	((c:___aodiv@divisor+4)),c,w
  5414  0025D2  1013               iorwf	((c:___aodiv@divisor+5)),c,w
  5415  0025D4  1014               iorwf	((c:___aodiv@divisor+6)),c,w
  5416  0025D6  1015               iorwf	((c:___aodiv@divisor+7)),c,w
  5417  0025D8  1016               	btfsc	status,2
  5418  0025DA  B4D8               	goto	u4561
  5419  0025DC  EFF2  F012         	goto	u4560
  5420  0025E0  EFF4  F012         
  5421                           u4561:
  5422  0025E4                     	goto	l3757
  5423  0025E4  EF52  F013         u4560:
  5424  0025E8                     	line	26
  5425                           	
  5426                           l3739:
  5427  0025E8                     	movlw	low(01h)
  5428  0025E8  0E01               	movwf	((c:___aodiv@counter)),c
  5429  0025EA  6E17               	line	27
  5430                           	goto	l3743
  5431  0025EC  EF04  F013         	
  5432                           l479:
  5433  0025F0                     	line	28
  5434                           	
  5435                           l3741:
  5436  0025F0                     	bcf	status,0
  5437  0025F0  90D8               	rlcf	((c:___aodiv@divisor)),c
  5438  0025F2  360F               	rlcf	((c:___aodiv@divisor+1)),c
  5439  0025F4  3610               	rlcf	((c:___aodiv@divisor+2)),c
  5440  0025F6  3611               	rlcf	((c:___aodiv@divisor+3)),c
  5441  0025F8  3612               	rlcf	((c:___aodiv@divisor+4)),c
  5442  0025FA  3613               	rlcf	((c:___aodiv@divisor+5)),c
  5443  0025FC  3614               	rlcf	((c:___aodiv@divisor+6)),c
  5444  0025FE  3615               	rlcf	((c:___aodiv@divisor+7)),c
  5445  002600  3616               	line	29
  5446                           	incf	((c:___aodiv@counter)),c
  5447  002602  2A17               	goto	l3743
  5448  002604  EF04  F013         	line	30
  5449                           	
  5450                           l478:
  5451  002608                     	line	27
  5452                           	
  5453                           l3743:
  5454  002608                     	
  5455                           	btfss	((c:___aodiv@divisor+7)),c,(63)&7
  5456  002608  AE16               	goto	u4571
  5457  00260A  EF09  F013         	goto	u4570
  5458  00260E  EF0B  F013         u4571:
  5459  002612                     	goto	l3741
  5460  002612  EFF8  F012         u4570:
  5461  002616                     	goto	l3745
  5462  002616  EF0F  F013         	
  5463                           l480:
  5464  00261A                     	goto	l3745
  5465  00261A  EF0F  F013         	line	31
  5466                           	
  5467                           l481:
  5468  00261E                     	line	32
  5469                           	
  5470                           l3745:
  5471  00261E                     	bcf	status,0
  5472  00261E  90D8               	rlcf	((c:___aodiv@quotient)),c
  5473  002620  3619               	rlcf	((c:___aodiv@quotient+1)),c
  5474  002622  361A               	rlcf	((c:___aodiv@quotient+2)),c
  5475  002624  361B               	rlcf	((c:___aodiv@quotient+3)),c
  5476  002626  361C               	rlcf	((c:___aodiv@quotient+4)),c
  5477  002628  361D               	rlcf	((c:___aodiv@quotient+5)),c
  5478  00262A  361E               	rlcf	((c:___aodiv@quotient+6)),c
  5479  00262C  361F               	rlcf	((c:___aodiv@quotient+7)),c
  5480  00262E  3620               	line	33
  5481                           	
  5482                           l3747:
  5483  002630                     		movf	((c:___aodiv@divisor)),c,w
  5484  002630  500F               	subwf	((c:___aodiv@dividend)),c,w
  5485  002632  5C07               	movf	((c:___aodiv@divisor+1)),c,w
  5486  002634  5010               	subwfb	((c:___aodiv@dividend+1)),c,w
  5487  002636  5808               	movf	((c:___aodiv@divisor+2)),c,w
  5488  002638  5011               	subwfb	((c:___aodiv@dividend+2)),c,w
  5489  00263A  5809               	movf	((c:___aodiv@divisor+3)),c,w
  5490  00263C  5012               	subwfb	((c:___aodiv@dividend+3)),c,w
  5491  00263E  580A               	movf	((c:___aodiv@divisor+4)),c,w
  5492  002640  5013               	subwfb	((c:___aodiv@dividend+4)),c,w
  5493  002642  580B               	movf	((c:___aodiv@divisor+5)),c,w
  5494  002644  5014               	subwfb	((c:___aodiv@dividend+5)),c,w
  5495  002646  580C               	movf	((c:___aodiv@divisor+6)),c,w
  5496  002648  5015               	subwfb	((c:___aodiv@dividend+6)),c,w
  5497  00264A  580D               	movf	((c:___aodiv@divisor+7)),c,w
  5498  00264C  5016               	subwfb	((c:___aodiv@dividend+7)),c,w
  5499  00264E  580E               	btfss	status,0
  5500  002650  A0D8               	goto	u4581
  5501  002652  EF2D  F013         	goto	u4580
  5502  002656  EF2F  F013         
  5503                           u4581:
  5504  00265A                     	goto	l3753
  5505  00265A  EF42  F013         u4580:
  5506  00265E                     	line	34
  5507                           	
  5508                           l3749:
  5509  00265E                     	movf	((c:___aodiv@divisor)),c,w
  5510  00265E  500F               	subwf	((c:___aodiv@dividend)),c
  5511  002660  5E07               	movf	((c:___aodiv@divisor+1)),c,w
  5512  002662  5010               	subwfb	((c:___aodiv@dividend+1)),c
  5513  002664  5A08               	movf	((c:___aodiv@divisor+2)),c,w
  5514  002666  5011               	subwfb	((c:___aodiv@dividend+2)),c
  5515  002668  5A09               	movf	((c:___aodiv@divisor+3)),c,w
  5516  00266A  5012               	subwfb	((c:___aodiv@dividend+3)),c
  5517  00266C  5A0A               	movf	((c:___aodiv@divisor+4)),c,w
  5518  00266E  5013               	subwfb	((c:___aodiv@dividend+4)),c
  5519  002670  5A0B               	movf	((c:___aodiv@divisor+5)),c,w
  5520  002672  5014               	subwfb	((c:___aodiv@dividend+5)),c
  5521  002674  5A0C               	movf	((c:___aodiv@divisor+6)),c,w
  5522  002676  5015               	subwfb	((c:___aodiv@dividend+6)),c
  5523  002678  5A0D               	movf	((c:___aodiv@divisor+7)),c,w
  5524  00267A  5016               	subwfb	((c:___aodiv@dividend+7)),c
  5525  00267C  5A0E               	line	35
  5526                           	
  5527                           l3751:
  5528  00267E                     	bsf	(0+(0/8)+(c:___aodiv@quotient)),c,(0)&7
  5529  00267E  8019               	goto	l3753
  5530  002680  EF42  F013         	line	36
  5531                           	
  5532                           l482:
  5533  002684                     	line	37
  5534                           	
  5535                           l3753:
  5536  002684                     	bcf	status,0
  5537  002684  90D8               	rrcf	((c:___aodiv@divisor+7)),c
  5538  002686  3216               	rrcf	((c:___aodiv@divisor+6)),c
  5539  002688  3215               	rrcf	((c:___aodiv@divisor+5)),c
  5540  00268A  3214               	rrcf	((c:___aodiv@divisor+4)),c
  5541  00268C  3213               	rrcf	((c:___aodiv@divisor+3)),c
  5542  00268E  3212               	rrcf	((c:___aodiv@divisor+2)),c
  5543  002690  3211               	rrcf	((c:___aodiv@divisor+1)),c
  5544  002692  3210               	rrcf	((c:___aodiv@divisor)),c
  5545  002694  320F               	line	38
  5546                           	
  5547                           l3755:
  5548  002696                     	decfsz	((c:___aodiv@counter)),c
  5549  002696  2E17               	
  5550                           	goto	l3745
  5551  002698  EF0F  F013         	goto	l3757
  5552  00269C  EF52  F013         	
  5553                           l483:
  5554  0026A0                     	goto	l3757
  5555  0026A0  EF52  F013         	line	39
  5556                           	
  5557                           l477:
  5558  0026A4                     	line	40
  5559                           	
  5560                           l3757:
  5561  0026A4                     	movf	((c:___aodiv@sign)),c,w
  5562  0026A4  5018               	btfsc	status,2
  5563  0026A6  B4D8               	goto	u4591
  5564  0026A8  EF58  F013         	goto	u4590
  5565  0026AC  EF5A  F013         u4591:
  5566  0026B0                     	goto	l3761
  5567  0026B0  EF6C  F013         u4590:
  5568  0026B4                     	line	41
  5569                           	
  5570                           l3759:
  5571  0026B4                     	comf	((c:___aodiv@quotient+7)),c
  5572  0026B4  1E20               	comf	((c:___aodiv@quotient+6)),c
  5573  0026B6  1E1F               	comf	((c:___aodiv@quotient+5)),c
  5574  0026B8  1E1E               	comf	((c:___aodiv@quotient+4)),c
  5575  0026BA  1E1D               	comf	((c:___aodiv@quotient+3)),c
  5576  0026BC  1E1C               	comf	((c:___aodiv@quotient+2)),c
  5577  0026BE  1E1B               	comf	((c:___aodiv@quotient+1)),c
  5578  0026C0  1E1A               	negf	((c:___aodiv@quotient)),c
  5579  0026C2  6C19               	movlw	0
  5580  0026C4  0E00               	addwfc	((c:___aodiv@quotient+1)),c
  5581  0026C6  221A               	addwfc	((c:___aodiv@quotient+2)),c
  5582  0026C8  221B               	addwfc	((c:___aodiv@quotient+3)),c
  5583  0026CA  221C               	addwfc	((c:___aodiv@quotient+4)),c
  5584  0026CC  221D               	addwfc	((c:___aodiv@quotient+5)),c
  5585  0026CE  221E               	addwfc	((c:___aodiv@quotient+6)),c
  5586  0026D0  221F               	addwfc	((c:___aodiv@quotient+7)),c
  5587  0026D2  2220               	goto	l3761
  5588  0026D4  EF6C  F013         	
  5589                           l484:
  5590  0026D8                     	line	42
  5591                           	
  5592                           l3761:
  5593  0026D8                     	movff	(c:___aodiv@quotient),(c:?___aodiv)
  5594  0026D8  C019  F007         	movff	(c:___aodiv@quotient+1),(c:?___aodiv+1)
  5595  0026DC  C01A  F008         	movff	(c:___aodiv@quotient+2),(c:?___aodiv+2)
  5596  0026E0  C01B  F009         	movff	(c:___aodiv@quotient+3),(c:?___aodiv+3)
  5597  0026E4  C01C  F00A         	movff	(c:___aodiv@quotient+4),(c:?___aodiv+4)
  5598  0026E8  C01D  F00B         	movff	(c:___aodiv@quotient+5),(c:?___aodiv+5)
  5599  0026EC  C01E  F00C         	movff	(c:___aodiv@quotient+6),(c:?___aodiv+6)
  5600  0026F0  C01F  F00D         	movff	(c:___aodiv@quotient+7),(c:?___aodiv+7)
  5601  0026F4  C020  F00E         	goto	l485
  5602  0026F8  EF7E  F013         	
  5603                           l3763:
  5604  0026FC                     	line	43
  5605                           	
  5606                           l485:
  5607  0026FC                     	return	;funcret
  5608  0026FC  0012               	opt stack 0
  5609                           GLOBAL	__end_of___aodiv
  5610                           	__end_of___aodiv:
  5611  0026FE                     	signat	___aodiv,8319
  5612                           	global	_Write_Remote_AT_Command
  5613                           
  5614 ;; *************** function _Write_Remote_AT_Command *****************
  5615 ;; Defined at:
  5616 ;;		line 317 in file "PIC_Interface_with_XBee.c"
  5617 ;; Parameters:    Size  Location     Type
  5618 ;;  Long_Address    4   36[COMRAM] unsigned long 
  5619 ;;  Long_Address    4   40[COMRAM] unsigned long 
  5620 ;;  Short_Addres    2   44[COMRAM] unsigned short 
  5621 ;;  ATCommand       2   46[COMRAM] PTR unsigned char 
  5622 ;;		 -> STR_8(3), 
  5623 ;;  _CommandValu    4   48[COMRAM] unsigned long 
  5624 ;; Auto vars:     Size  Location     Type
  5625 ;;		None
  5626 ;; Return value:  Size  Location     Type
  5627 ;;                  1    wreg      void 
  5628 ;; Registers used:
  5629 ;;		wreg, status,2, status,0, tblptrl, tblptrh, tblptru, cstack
  5630 ;; Tracked objects:
  5631 ;;		On entry : 0/0
  5632 ;;		On exit  : 0/0
  5633 ;;		Unchanged: 0/0
  5634 ;; Data sizes:     COMRAM   BANK0   BANK1   BANK2   BANK3   BANK4   BANK5
  5635 ;;      Params:        16       0       0       0       0       0       0
  5636 ;;      Locals:         0       0       0       0       0       0       0
  5637 ;;      Temps:          0       0       0       0       0       0       0
  5638 ;;      Totals:        16       0       0       0       0       0       0
  5639 ;;Total ram usage:       16 bytes
  5640 ;; Hardware stack levels used:    1
  5641 ;; Hardware stack levels required when called:    4
  5642 ;; This function calls:
  5643 ;;		_Remote_AT_Command
  5644 ;; This function is called by:
  5645 ;;		_main
  5646 ;; This function uses a non-reentrant model
  5647 ;;
  5648                           psect	text13,class=CODE,space=0,reloc=2,group=0
  5649                           	file	"PIC_Interface_with_XBee.c"
  5650                           	line	317
  5651                           global __ptext13
  5652                           __ptext13:
  5653  0030B0                     psect	text13
  5654                           	file	"PIC_Interface_with_XBee.c"
  5655                           	line	317
  5656                           	global	__size_of_Write_Remote_AT_Command
  5657                           	__size_of_Write_Remote_AT_Command	equ	__end_of_Write_Remote_AT_Command-_Write_Remote_AT
                                 _Command
  5658  0000                     	
  5659                           _Write_Remote_AT_Command:
  5660  0030B0                     ;incstack = 0
  5661                           	opt	stack 26
  5662                           	line	319
  5663                           	
  5664                           l3481:
  5665  0030B0                     ;PIC_Interface_with_XBee.c: 317: void Write_Remote_AT_Command(uint32_t Long_Address_MSB,
                                  uint32_t Long_Address_LSB, uint16_t Short_Address, char* ATCommand, uint32_t _CommandVa
                                 lue);PIC_Interface_with_XBee.c: 318: {;PIC_Interface_with_XBee.c: 319:  Command_Value = 
                                 _CommandValue;
  5666                           	movff	(c:Write_Remote_AT_Command@_CommandValue),(c:_Command_Value)
  5667  0030B0  C031  F064         	movff	(c:Write_Remote_AT_Command@_CommandValue+1),(c:_Command_Value+1)
  5668  0030B4  C032  F065         	movff	(c:Write_Remote_AT_Command@_CommandValue+2),(c:_Command_Value+2)
  5669  0030B8  C033  F066         	movff	(c:Write_Remote_AT_Command@_CommandValue+3),(c:_Command_Value+3)
  5670  0030BC  C034  F067         	line	320
  5671                           	
  5672                           l3483:
  5673  0030C0                     ;PIC_Interface_with_XBee.c: 320:  Remote_AT_Command(Long_Address_MSB, Long_Address_LSB, 
                                 Short_Address, ATCommand, 1);
  5674                           	movff	(c:Write_Remote_AT_Command@Long_Address_MSB),(c:Remote_AT_Command@Long_Address_MS
                                 B)
  5675  0030C0  C025  F00A         	movff	(c:Write_Remote_AT_Command@Long_Address_MSB+1),(c:Remote_AT_Command@Long_Address_
                                 MSB+1)
  5676  0030C4  C026  F00B         	movff	(c:Write_Remote_AT_Command@Long_Address_MSB+2),(c:Remote_AT_Command@Long_Address_
                                 MSB+2)
  5677  0030C8  C027  F00C         	movff	(c:Write_Remote_AT_Command@Long_Address_MSB+3),(c:Remote_AT_Command@Long_Address_
                                 MSB+3)
  5678  0030CC  C028  F00D         	movff	(c:Write_Remote_AT_Command@Long_Address_LSB),(c:Remote_AT_Command@Long_Address_LS
                                 B)
  5679  0030D0  C029  F00E         	movff	(c:Write_Remote_AT_Command@Long_Address_LSB+1),(c:Remote_AT_Command@Long_Address_
                                 LSB+1)
  5680  0030D4  C02A  F00F         	movff	(c:Write_Remote_AT_Command@Long_Address_LSB+2),(c:Remote_AT_Command@Long_Address_
                                 LSB+2)
  5681  0030D8  C02B  F010         	movff	(c:Write_Remote_AT_Command@Long_Address_LSB+3),(c:Remote_AT_Command@Long_Address_
                                 LSB+3)
  5682  0030DC  C02C  F011         	movff	(c:Write_Remote_AT_Command@Short_Address),(c:Remote_AT_Command@Short_Address)
  5683  0030E0  C02D  F012         	movff	(c:Write_Remote_AT_Command@Short_Address+1),(c:Remote_AT_Command@Short_Address+1)
                                 
  5684  0030E4  C02E  F013         		movff	(c:Write_Remote_AT_Command@ATCommand),(c:Remote_AT_Command@ATCommand)
  5685  0030E8  C02F  F014         	movff	(c:Write_Remote_AT_Command@ATCommand+1),(c:Remote_AT_Command@ATCommand+1)
  5686  0030EC  C030  F015         
  5687                           	movlw	low(01h)
  5688  0030F0  0E01               	movwf	((c:Remote_AT_Command@action)),c
  5689  0030F2  6E16               	call	_Remote_AT_Command	;wreg free
  5690  0030F4  EC05  F008         	line	321
  5691                           	
  5692                           l221:
  5693  0030F8                     	return	;funcret
  5694  0030F8  0012               	opt stack 0
  5695                           GLOBAL	__end_of_Write_Remote_AT_Command
  5696                           	__end_of_Write_Remote_AT_Command:
  5697  0030FA                     	signat	_Write_Remote_AT_Command,20601
  5698                           	global	_Remote_AT_Command
  5699                           
  5700 ;; *************** function _Remote_AT_Command *****************
  5701 ;; Defined at:
  5702 ;;		line 194 in file "PIC_Interface_with_XBee.c"
  5703 ;; Parameters:    Size  Location     Type
  5704 ;;  Long_Address    4    9[COMRAM] unsigned long 
  5705 ;;  Long_Address    4   13[COMRAM] unsigned long 
  5706 ;;  Short_Addres    2   17[COMRAM] unsigned short 
  5707 ;;  ATCommand       2   19[COMRAM] PTR const unsigned char 
  5708 ;;		 -> STR_8(3), 
  5709 ;;  action          1   21[COMRAM] _Bool 
  5710 ;; Auto vars:     Size  Location     Type
  5711 ;;  i               1   31[COMRAM] char 
  5712 ;;  i               1   30[COMRAM] char 
  5713 ;;  i               1   29[COMRAM] char 
  5714 ;;  i               1   28[COMRAM] char 
  5715 ;;  Checksum        2   34[COMRAM] unsigned short 
  5716 ;;  Length          2   32[COMRAM] unsigned short 
  5717 ;;  i               2   26[COMRAM] int 
  5718 ;; Return value:  Size  Location     Type
  5719 ;;                  1    wreg      void 
  5720 ;; Registers used:
  5721 ;;		wreg, status,2, status,0, tblptrl, tblptrh, tblptru, cstack
  5722 ;; Tracked objects:
  5723 ;;		On entry : 0/0
  5724 ;;		On exit  : 0/0
  5725 ;;		Unchanged: 0/0
  5726 ;; Data sizes:     COMRAM   BANK0   BANK1   BANK2   BANK3   BANK4   BANK5
  5727 ;;      Params:        13       0       0       0       0       0       0
  5728 ;;      Locals:        10       0       0       0       0       0       0
  5729 ;;      Temps:          4       0       0       0       0       0       0
  5730 ;;      Totals:        27       0       0       0       0       0       0
  5731 ;;Total ram usage:       27 bytes
  5732 ;; Hardware stack levels used:    1
  5733 ;; Hardware stack levels required when called:    3
  5734 ;; This function calls:
  5735 ;;		_USART_SendString
  5736 ;;		_USART_TxChar
  5737 ;; This function is called by:
  5738 ;;		_Write_Remote_AT_Command
  5739 ;; This function uses a non-reentrant model
  5740 ;;
  5741                           psect	text14,class=CODE,space=0,reloc=2,group=0
  5742                           	line	194
  5743                           global __ptext14
  5744                           __ptext14:
  5745  00100A                     psect	text14
  5746                           	file	"PIC_Interface_with_XBee.c"
  5747                           	line	194
  5748                           	global	__size_of_Remote_AT_Command
  5749                           	__size_of_Remote_AT_Command	equ	__end_of_Remote_AT_Command-_Remote_AT_Command
  5750  0000                     	
  5751                           _Remote_AT_Command:
  5752  00100A                     ;incstack = 0
  5753                           	opt	stack 26
  5754                           	line	197
  5755                           	
  5756                           l2891:
  5757  00100A                     ;PIC_Interface_with_XBee.c: 194: void Remote_AT_Command(uint32_t Long_Address_MSB, uint3
                                 2_t Long_Address_LSB, uint16_t Short_Address, const char* ATCommand, _Bool action);PIC_I
                                 nterface_with_XBee.c: 195: {;PIC_Interface_with_XBee.c: 196:     uint16_t Length,Checksu
                                 m;;PIC_Interface_with_XBee.c: 197:  if (action == 1)
  5758                           		decf	((c:Remote_AT_Command@action)),c,w
  5759  00100A  0416               	btfss	status,2
  5760  00100C  A4D8               	goto	u3141
  5761  00100E  EF0B  F008         	goto	u3140
  5762  001012  EF0D  F008         
  5763                           u3141:
  5764  001016                     	goto	l2907
  5765  001016  EF48  F008         u3140:
  5766  00101A                     	line	199
  5767                           	
  5768                           l2893:
  5769  00101A                     ;PIC_Interface_with_XBee.c: 198:  {;PIC_Interface_with_XBee.c: 199:   if(Command_Value >
                                  0x00FFFFFF) Length = 19;
  5770                           		decf	((c:_Command_Value+3)),c,w
  5771  00101A  0467               	btfss	status,0
  5772  00101C  A0D8               	goto	u3151
  5773  00101E  EF13  F008         	goto	u3150
  5774  001022  EF15  F008         
  5775                           u3151:
  5776  001026                     	goto	l2897
  5777  001026  EF1B  F008         u3150:
  5778  00102A                     	
  5779                           l2895:
  5780  00102A                     	movlw	high(013h)
  5781  00102A  0E00               	movwf	((c:Remote_AT_Command@Length+1)),c
  5782  00102C  6E22               	movlw	low(013h)
  5783  00102E  0E13               	movwf	((c:Remote_AT_Command@Length)),c
  5784  001030  6E21               	goto	l182
  5785  001032  EF4C  F008         	line	200
  5786                           ;PIC_Interface_with_XBee.c: 200:   else if(Command_Value > 0x00FFFF) Length = 18;
  5787                           	
  5788                           l176:
  5789  001036                     	
  5790                           l2897:
  5791  001036                     		movf	((c:_Command_Value+3)),c,w
  5792  001036  5067               	bnz	u3160
  5793  001038  E108               	decf	((c:_Command_Value+2)),c,w
  5794  00103A  0466               	btfss	status,0
  5795  00103C  A0D8               	goto	u3161
  5796  00103E  EF23  F008         	goto	u3160
  5797  001042  EF25  F008         
  5798                           u3161:
  5799  001046                     	goto	l2901
  5800  001046  EF2B  F008         u3160:
  5801  00104A                     	
  5802                           l2899:
  5803  00104A                     	movlw	high(012h)
  5804  00104A  0E00               	movwf	((c:Remote_AT_Command@Length+1)),c
  5805  00104C  6E22               	movlw	low(012h)
  5806  00104E  0E12               	movwf	((c:Remote_AT_Command@Length)),c
  5807  001050  6E21               	goto	l182
  5808  001052  EF4C  F008         	line	201
  5809                           ;PIC_Interface_with_XBee.c: 201:   else if(Command_Value > 0x00FF) Length = 17;
  5810                           	
  5811                           l178:
  5812  001056                     	
  5813                           l2901:
  5814  001056                     		movf	((c:_Command_Value+3)),c,w
  5815  001056  5067               	iorwf	((c:_Command_Value+2)),c,w
  5816  001058  1066               	bnz	u3170
  5817  00105A  E108               	decf	((c:_Command_Value+1)),c,w
  5818  00105C  0465               	btfss	status,0
  5819  00105E  A0D8               	goto	u3171
  5820  001060  EF34  F008         	goto	u3170
  5821  001064  EF36  F008         
  5822                           u3171:
  5823  001068                     	goto	l2905
  5824  001068  EF3C  F008         u3170:
  5825  00106C                     	
  5826                           l2903:
  5827  00106C                     	movlw	high(011h)
  5828  00106C  0E00               	movwf	((c:Remote_AT_Command@Length+1)),c
  5829  00106E  6E22               	movlw	low(011h)
  5830  001070  0E11               	movwf	((c:Remote_AT_Command@Length)),c
  5831  001072  6E21               	goto	l182
  5832  001074  EF4C  F008         	line	202
  5833                           ;PIC_Interface_with_XBee.c: 202:   else Length = 16;
  5834                           	
  5835                           l180:
  5836  001078                     	
  5837                           l2905:
  5838  001078                     	movlw	high(010h)
  5839  001078  0E00               	movwf	((c:Remote_AT_Command@Length+1)),c
  5840  00107A  6E22               	movlw	low(010h)
  5841  00107C  0E10               	movwf	((c:Remote_AT_Command@Length)),c
  5842  00107E  6E21               	goto	l182
  5843  001080  EF4C  F008         	
  5844                           l181:
  5845  001084                     	goto	l182
  5846  001084  EF4C  F008         	
  5847                           l179:
  5848  001088                     	goto	l182
  5849  001088  EF4C  F008         	
  5850                           l177:
  5851  00108C                     	line	203
  5852                           ;PIC_Interface_with_XBee.c: 203:  }
  5853                           	goto	l182
  5854  00108C  EF4C  F008         	line	204
  5855                           ;PIC_Interface_with_XBee.c: 204:  else
  5856                           	
  5857                           l175:
  5858  001090                     	line	205
  5859                           	
  5860                           l2907:
  5861  001090                     ;PIC_Interface_with_XBee.c: 205:   Length = 15;
  5862                           	movlw	high(0Fh)
  5863  001090  0E00               	movwf	((c:Remote_AT_Command@Length+1)),c
  5864  001092  6E22               	movlw	low(0Fh)
  5865  001094  0E0F               	movwf	((c:Remote_AT_Command@Length)),c
  5866  001096  6E21               	
  5867                           l182:
  5868  001098                     	line	207
  5869                           ;PIC_Interface_with_XBee.c: 207:  Checksum = 0x17 + 0x01;
  5870                           	movlw	high(018h)
  5871  001098  0E00               	movwf	((c:Remote_AT_Command@Checksum+1)),c
  5872  00109A  6E24               	movlw	low(018h)
  5873  00109C  0E18               	movwf	((c:Remote_AT_Command@Checksum)),c
  5874  00109E  6E23               	line	208
  5875                           ;PIC_Interface_with_XBee.c: 208:  for (int8_t i = 24; i >= 0; i = i-8)
  5876                           	movlw	low(018h)
  5877  0010A0  0E18               	movwf	((c:Remote_AT_Command@i)),c
  5878  0010A2  6E1D               	
  5879                           l2909:
  5880  0010A4                     	btfsc	((c:Remote_AT_Command@i)),c,7
  5881  0010A4  BE1D               	goto	u3180
  5882  0010A6  EF59  F008         	goto	u3181
  5883  0010AA  EF57  F008         
  5884                           u3181:
  5885  0010AE                     	goto	l2913
  5886  0010AE  EF5D  F008         u3180:
  5887  0010B2                     	goto	l2915
  5888  0010B2  EF83  F008         	
  5889                           l2911:
  5890  0010B6                     	goto	l2915
  5891  0010B6  EF83  F008         	
  5892                           l183:
  5893  0010BA                     	line	209
  5894                           	
  5895                           l2913:
  5896  0010BA                     ;PIC_Interface_with_XBee.c: 209:   Checksum = Checksum + (Long_Address_MSB >> i);
  5897                           	movf	((c:Remote_AT_Command@i)),c,w
  5898  0010BA  501D               	movff	(c:Remote_AT_Command@Long_Address_MSB),??_Remote_AT_Command+0+0
  5899  0010BC  C00A  F017         	movff	(c:Remote_AT_Command@Long_Address_MSB+1),??_Remote_AT_Command+0+0+1
  5900  0010C0  C00B  F018         	movff	(c:Remote_AT_Command@Long_Address_MSB+2),??_Remote_AT_Command+0+0+2
  5901  0010C4  C00C  F019         	movff	(c:Remote_AT_Command@Long_Address_MSB+3),??_Remote_AT_Command+0+0+3
  5902  0010C8  C00D  F01A         	incf	wreg
  5903  0010CC  2AE8               	goto	u3190
  5904  0010CE  EF6E  F008         u3195:
  5905  0010D2                     	bcf	status,0
  5906  0010D2  90D8               	rrcf	(??_Remote_AT_Command+0+3),c
  5907  0010D4  321A               	rrcf	(??_Remote_AT_Command+0+2),c
  5908  0010D6  3219               	rrcf	(??_Remote_AT_Command+0+1),c
  5909  0010D8  3218               	rrcf	(??_Remote_AT_Command+0+0),c
  5910  0010DA  3217               u3190:
  5911  0010DC                     	decfsz	wreg
  5912  0010DC  2EE8               	goto	u3195
  5913  0010DE  EF69  F008         	movf	((c:Remote_AT_Command@Checksum)),c,w
  5914  0010E2  5023               	addwf	(??_Remote_AT_Command+0+0),c,w
  5915  0010E4  2417               	movwf	((c:Remote_AT_Command@Checksum)),c
  5916  0010E6  6E23               	movf	((c:Remote_AT_Command@Checksum+1)),c,w
  5917  0010E8  5024               	addwfc	(??_Remote_AT_Command+0+1),c,w
  5918  0010EA  2018               	movwf	1+((c:Remote_AT_Command@Checksum)),c
  5919  0010EC  6E24               	movf	((c:Remote_AT_Command@i)),c,w
  5920  0010EE  501D               	addlw	low(-8)
  5921  0010F0  0FF8               	movwf	((c:Remote_AT_Command@i)),c
  5922  0010F2  6E1D               	btfsc	((c:Remote_AT_Command@i)),c,7
  5923  0010F4  BE1D               	goto	u3200
  5924  0010F6  EF81  F008         	goto	u3201
  5925  0010FA  EF7F  F008         
  5926                           u3201:
  5927  0010FE                     	goto	l2913
  5928  0010FE  EF5D  F008         u3200:
  5929  001102                     	goto	l2915
  5930  001102  EF83  F008         	
  5931                           l184:
  5932  001106                     	line	210
  5933                           	
  5934                           l2915:
  5935  001106                     ;PIC_Interface_with_XBee.c: 210:  for (int8_t i = 24 ; i >= 0; i = i-8)
  5936                           	movlw	low(018h)
  5937  001106  0E18               	movwf	((c:Remote_AT_Command@i_551)),c
  5938  001108  6E1E               	
  5939                           l2917:
  5940  00110A                     	btfsc	((c:Remote_AT_Command@i_551)),c,7
  5941  00110A  BE1E               	goto	u3210
  5942  00110C  EF8C  F008         	goto	u3211
  5943  001110  EF8A  F008         
  5944                           u3211:
  5945  001114                     	goto	l2921
  5946  001114  EF90  F008         u3210:
  5947  001118                     	goto	l2923
  5948  001118  EFB6  F008         	
  5949                           l2919:
  5950  00111C                     	goto	l2923
  5951  00111C  EFB6  F008         	
  5952                           l185:
  5953  001120                     	line	211
  5954                           	
  5955                           l2921:
  5956  001120                     ;PIC_Interface_with_XBee.c: 211:   Checksum = Checksum + (Long_Address_LSB >> i);
  5957                           	movf	((c:Remote_AT_Command@i_551)),c,w
  5958  001120  501E               	movff	(c:Remote_AT_Command@Long_Address_LSB),??_Remote_AT_Command+0+0
  5959  001122  C00E  F017         	movff	(c:Remote_AT_Command@Long_Address_LSB+1),??_Remote_AT_Command+0+0+1
  5960  001126  C00F  F018         	movff	(c:Remote_AT_Command@Long_Address_LSB+2),??_Remote_AT_Command+0+0+2
  5961  00112A  C010  F019         	movff	(c:Remote_AT_Command@Long_Address_LSB+3),??_Remote_AT_Command+0+0+3
  5962  00112E  C011  F01A         	incf	wreg
  5963  001132  2AE8               	goto	u3220
  5964  001134  EFA1  F008         u3225:
  5965  001138                     	bcf	status,0
  5966  001138  90D8               	rrcf	(??_Remote_AT_Command+0+3),c
  5967  00113A  321A               	rrcf	(??_Remote_AT_Command+0+2),c
  5968  00113C  3219               	rrcf	(??_Remote_AT_Command+0+1),c
  5969  00113E  3218               	rrcf	(??_Remote_AT_Command+0+0),c
  5970  001140  3217               u3220:
  5971  001142                     	decfsz	wreg
  5972  001142  2EE8               	goto	u3225
  5973  001144  EF9C  F008         	movf	((c:Remote_AT_Command@Checksum)),c,w
  5974  001148  5023               	addwf	(??_Remote_AT_Command+0+0),c,w
  5975  00114A  2417               	movwf	((c:Remote_AT_Command@Checksum)),c
  5976  00114C  6E23               	movf	((c:Remote_AT_Command@Checksum+1)),c,w
  5977  00114E  5024               	addwfc	(??_Remote_AT_Command+0+1),c,w
  5978  001150  2018               	movwf	1+((c:Remote_AT_Command@Checksum)),c
  5979  001152  6E24               	movf	((c:Remote_AT_Command@i_551)),c,w
  5980  001154  501E               	addlw	low(-8)
  5981  001156  0FF8               	movwf	((c:Remote_AT_Command@i_551)),c
  5982  001158  6E1E               	btfsc	((c:Remote_AT_Command@i_551)),c,7
  5983  00115A  BE1E               	goto	u3230
  5984  00115C  EFB4  F008         	goto	u3231
  5985  001160  EFB2  F008         
  5986                           u3231:
  5987  001164                     	goto	l2921
  5988  001164  EF90  F008         u3230:
  5989  001168                     	goto	l2923
  5990  001168  EFB6  F008         	
  5991                           l186:
  5992  00116C                     	line	213
  5993                           	
  5994                           l2923:
  5995  00116C                     ;PIC_Interface_with_XBee.c: 213:  Checksum = Checksum + (Short_Address >> 8) + Short_Add
                                 ress + 0x02 + ATCommand[0] + ATCommand[1];
  5996                           	movff	(c:Remote_AT_Command@ATCommand),tblptrl
  5997  00116C  C014  FFF6         	movff	(c:Remote_AT_Command@ATCommand+1),tblptrh
  5998  001170  C015  FFF7         	if	0	;tblptru may be non-zero
  5999  001174                     	clrf	tblptru
  6001  001174                     	if	0	;tblptru may be non-zero
  6002  001174                     	global __mediumconst
  6003                           movlw	low highword(__mediumconst)
  6006  001174                     	tblrd	*
  6007  001174  0008               	
  6008                           	movf	tablat,w
  6009  001176  50F5               
  6010                           	movff	(c:Remote_AT_Command@Short_Address),??_Remote_AT_Command+0+0
  6011  001178  C012  F017         	movff	(c:Remote_AT_Command@Short_Address+1),??_Remote_AT_Command+0+0+1
  6012  00117C  C013  F018         	movff	??_Remote_AT_Command+0+1,??_Remote_AT_Command+0+0
  6013  001180  C018  F017         	clrf	(??_Remote_AT_Command+0+1),c
  6014  001184  6A18               	addwf	(??_Remote_AT_Command+0+0),c
  6015  001186  2617               	movlw	0
  6016  001188  0E00               	addwfc	(??_Remote_AT_Command+0+1),c
  6017  00118A  2218               	movlw	01h
  6018  00118C  0E01               	addwf	((c:Remote_AT_Command@ATCommand)),c,w
  6019  00118E  2414               	movwf	(??_Remote_AT_Command+2+0)&0ffh,c
  6020  001190  6E19               	movlw	0
  6021  001192  0E00               	addwfc	((c:Remote_AT_Command@ATCommand+1)),c,w
  6022  001194  2015               	movwf	(??_Remote_AT_Command+2+0+1)&0ffh,c
  6023  001196  6E1A               	movff	??_Remote_AT_Command+2+0,tblptrl
  6024  001198  C019  FFF6         	movff	??_Remote_AT_Command+2+1,tblptrh
  6025  00119C  C01A  FFF7         	if	0	;tblptru may be non-zero
  6026  0011A0                     	clrf	tblptru
  6028  0011A0                     	if	0	;tblptru may be non-zero
  6029  0011A0                     	global __mediumconst
  6030                           movlw	low highword(__mediumconst)
  6033  0011A0                     	tblrd	*
  6034  0011A0  0008               	
  6035                           	movf	tablat,w
  6036  0011A2  50F5               
  6037                           	addwf	(??_Remote_AT_Command+0+0),c
  6038  0011A4  2617               	movlw	0
  6039  0011A6  0E00               	addwfc	(??_Remote_AT_Command+0+1),c
  6040  0011A8  2218               	movf	((c:Remote_AT_Command@Checksum)),c,w
  6041  0011AA  5023               	addwf	(??_Remote_AT_Command+0+0),c
  6042  0011AC  2617               	movf	((c:Remote_AT_Command@Checksum+1)),c,w
  6043  0011AE  5024               	addwfc	(??_Remote_AT_Command+0+1),c
  6044  0011B0  2218               	movf	((c:Remote_AT_Command@Short_Address)),c,w
  6045  0011B2  5012               	addwf	(??_Remote_AT_Command+0+0),c
  6046  0011B4  2617               	movf	((c:Remote_AT_Command@Short_Address+1)),c,w
  6047  0011B6  5013               	addwfc	(??_Remote_AT_Command+0+1),c
  6048  0011B8  2218               	movlw	low(02h)
  6049  0011BA  0E02               	addwf	(??_Remote_AT_Command+0+0),c,w
  6050  0011BC  2417               	movwf	((c:Remote_AT_Command@Checksum)),c
  6051  0011BE  6E23               	movlw	high(02h)
  6052  0011C0  0E00               	addwfc	(??_Remote_AT_Command+0+1),c,w
  6053  0011C2  2018               	movwf	1+((c:Remote_AT_Command@Checksum)),c
  6054  0011C4  6E24               	line	214
  6055                           	
  6056                           l2925:
  6057  0011C6                     ;PIC_Interface_with_XBee.c: 214:  if (action == 1)
  6058                           		decf	((c:Remote_AT_Command@action)),c,w
  6059  0011C6  0416               	btfss	status,2
  6060  0011C8  A4D8               	goto	u3241
  6061  0011CA  EFE9  F008         	goto	u3240
  6062  0011CE  EFEB  F008         
  6063                           u3241:
  6064  0011D2                     	goto	l187
  6065  0011D2  EF10  F009         u3240:
  6066  0011D6                     	line	215
  6067                           	
  6068                           l2927:
  6069  0011D6                     ;PIC_Interface_with_XBee.c: 215:  Checksum = Checksum + (Command_Value >> 24) + (Command
                                 _Value >> 16) + (Command_Value >> 8) + Command_Value ;
  6070                           	movff	(c:_Command_Value),??_Remote_AT_Command+0+0
  6071  0011D6  C064  F017         	movff	(c:_Command_Value+1),??_Remote_AT_Command+0+0+1
  6072  0011DA  C065  F018         	movff	(c:_Command_Value+2),??_Remote_AT_Command+0+0+2
  6073  0011DE  C066  F019         	movff	(c:_Command_Value+3),??_Remote_AT_Command+0+0+3
  6074  0011E2  C067  F01A         	movlw	018h+1
  6075  0011E6  0E19               	goto	u3250
  6076  0011E8  EFFB  F008         u3255:
  6077  0011EC                     	bcf	status,0
  6078  0011EC  90D8               	rrcf	(??_Remote_AT_Command+0+3),c
  6079  0011EE  321A               	rrcf	(??_Remote_AT_Command+0+2),c
  6080  0011F0  3219               	rrcf	(??_Remote_AT_Command+0+1),c
  6081  0011F2  3218               	rrcf	(??_Remote_AT_Command+0+0),c
  6082  0011F4  3217               u3250:
  6083  0011F6                     	decfsz	wreg
  6084  0011F6  2EE8               	goto	u3255
  6085  0011F8  EFF6  F008         	movf	(0+2+(c:_Command_Value)),c,w
  6086  0011FC  5066               	addwf	(??_Remote_AT_Command+0+0),c
  6087  0011FE  2617               	movf	(1+2+(c:_Command_Value)),c,w
  6088  001200  5067               	addwfc	(??_Remote_AT_Command+0+1),c
  6089  001202  2218               	movf	(0+1+(c:_Command_Value)),c,w
  6090  001204  5065               	addwf	(??_Remote_AT_Command+0+0),c
  6091  001206  2617               	movf	(1+1+(c:_Command_Value)),c,w
  6092  001208  5066               	addwfc	(??_Remote_AT_Command+0+1),c
  6093  00120A  2218               	movf	((c:Remote_AT_Command@Checksum)),c,w
  6094  00120C  5023               	addwf	(??_Remote_AT_Command+0+0),c
  6095  00120E  2617               	movf	((c:Remote_AT_Command@Checksum+1)),c,w
  6096  001210  5024               	addwfc	(??_Remote_AT_Command+0+1),c
  6097  001212  2218               	movf	((c:_Command_Value)),c,w
  6098  001214  5064               	addwf	(??_Remote_AT_Command+0+0),c,w
  6099  001216  2417               	movwf	((c:Remote_AT_Command@Checksum)),c
  6100  001218  6E23               	movf	((c:_Command_Value+1)),c,w
  6101  00121A  5065               	addwfc	(??_Remote_AT_Command+0+1),c,w
  6102  00121C  2018               	movwf	1+((c:Remote_AT_Command@Checksum)),c
  6103  00121E  6E24               	
  6104                           l187:
  6105  001220                     	line	216
  6106                           ;PIC_Interface_with_XBee.c: 216:  Checksum = 0xFF - Checksum;
  6107                           	movff	(c:Remote_AT_Command@Checksum),??_Remote_AT_Command+0+0
  6108  001220  C023  F017         	movff	(c:Remote_AT_Command@Checksum+1),??_Remote_AT_Command+0+0+1
  6109  001224  C024  F018         	comf	(??_Remote_AT_Command+0+0),c
  6110  001228  1E17               	comf	(??_Remote_AT_Command+0+1),c
  6111  00122A  1E18               	infsnz	(??_Remote_AT_Command+0+0),c
  6112  00122C  4A17               	incf	(??_Remote_AT_Command+0+1),c
  6113  00122E  2A18               	movlw	low(0FFh)
  6114  001230  0EFF               	addwf	(??_Remote_AT_Command+0+0),c,w
  6115  001232  2417               	movwf	((c:Remote_AT_Command@Checksum)),c
  6116  001234  6E23               	movlw	high(0FFh)
  6117  001236  0E00               	addwfc	(??_Remote_AT_Command+0+1),c,w
  6118  001238  2018               	movwf	1+((c:Remote_AT_Command@Checksum)),c
  6119  00123A  6E24               	line	218
  6120                           	
  6121                           l2929:
  6122  00123C                     ;PIC_Interface_with_XBee.c: 218:  USART_TxChar(0x7E);
  6123                           	movlw	(07Eh)&0ffh
  6124  00123C  0E7E               	
  6125                           	call	_USART_TxChar
  6126  00123E  EC1B  F019         	line	219
  6127                           	
  6128                           l2931:
  6129  001242                     ;PIC_Interface_with_XBee.c: 219:  USART_TxChar(Length >> 8);
  6130                           	movf	((c:Remote_AT_Command@Length+1)),c,w
  6131  001242  5022               	
  6132                           	call	_USART_TxChar
  6133  001244  EC1B  F019         	line	220
  6134                           	
  6135                           l2933:
  6136  001248                     ;PIC_Interface_with_XBee.c: 220:  USART_TxChar(Length);
  6137                           	movf	((c:Remote_AT_Command@Length)),c,w
  6138  001248  5021               	
  6139                           	call	_USART_TxChar
  6140  00124A  EC1B  F019         	line	221
  6141                           	
  6142                           l2935:
  6143  00124E                     ;PIC_Interface_with_XBee.c: 221:  USART_TxChar(0x17);
  6144                           	movlw	(017h)&0ffh
  6145  00124E  0E17               	
  6146                           	call	_USART_TxChar
  6147  001250  EC1B  F019         	line	222
  6148                           	
  6149                           l2937:
  6150  001254                     ;PIC_Interface_with_XBee.c: 222:  USART_TxChar(0x01);
  6151                           	movlw	(01h)&0ffh
  6152  001254  0E01               	
  6153                           	call	_USART_TxChar
  6154  001256  EC1B  F019         	line	223
  6155                           	
  6156                           l2939:
  6157  00125A                     ;PIC_Interface_with_XBee.c: 223:  for (int8_t i = 24 ; i >= 0 ; i = i-8)
  6158                           	movlw	low(018h)
  6159  00125A  0E18               	movwf	((c:Remote_AT_Command@i_552)),c
  6160  00125C  6E1F               	
  6161                           l2941:
  6162  00125E                     	btfsc	((c:Remote_AT_Command@i_552)),c,7
  6163  00125E  BE1F               	goto	u3260
  6164  001260  EF36  F009         	goto	u3261
  6165  001264  EF34  F009         
  6166                           u3261:
  6167  001268                     	goto	l2945
  6168  001268  EF3A  F009         u3260:
  6169  00126C                     	goto	l2951
  6170  00126C  EF5D  F009         	
  6171                           l2943:
  6172  001270                     	goto	l2951
  6173  001270  EF5D  F009         	
  6174                           l188:
  6175  001274                     	line	224
  6176                           	
  6177                           l2945:
  6178  001274                     ;PIC_Interface_with_XBee.c: 224:   USART_TxChar(Long_Address_MSB >> i);
  6179                           	movf	((c:Remote_AT_Command@i_552)),c,w
  6180  001274  501F               	movff	(c:Remote_AT_Command@Long_Address_MSB),??_Remote_AT_Command+0+0
  6181  001276  C00A  F017         	movff	(c:Remote_AT_Command@Long_Address_MSB+1),??_Remote_AT_Command+0+0+1
  6182  00127A  C00B  F018         	movff	(c:Remote_AT_Command@Long_Address_MSB+2),??_Remote_AT_Command+0+0+2
  6183  00127E  C00C  F019         	movff	(c:Remote_AT_Command@Long_Address_MSB+3),??_Remote_AT_Command+0+0+3
  6184  001282  C00D  F01A         	incf	wreg
  6185  001286  2AE8               	goto	u3270
  6186  001288  EF4B  F009         u3275:
  6187  00128C                     	bcf	status,0
  6188  00128C  90D8               	rrcf	(??_Remote_AT_Command+0+3),c
  6189  00128E  321A               	rrcf	(??_Remote_AT_Command+0+2),c
  6190  001290  3219               	rrcf	(??_Remote_AT_Command+0+1),c
  6191  001292  3218               	rrcf	(??_Remote_AT_Command+0+0),c
  6192  001294  3217               u3270:
  6193  001296                     	decfsz	wreg
  6194  001296  2EE8               	goto	u3275
  6195  001298  EF46  F009         	movf	(??_Remote_AT_Command+0+0),c,w
  6196  00129C  5017               	
  6197                           	call	_USART_TxChar
  6198  00129E  EC1B  F019         	
  6199                           l2947:
  6200  0012A2                     	movf	((c:Remote_AT_Command@i_552)),c,w
  6201  0012A2  501F               	addlw	low(-8)
  6202  0012A4  0FF8               	movwf	((c:Remote_AT_Command@i_552)),c
  6203  0012A6  6E1F               	
  6204                           l2949:
  6205  0012A8                     	btfsc	((c:Remote_AT_Command@i_552)),c,7
  6206  0012A8  BE1F               	goto	u3280
  6207  0012AA  EF5B  F009         	goto	u3281
  6208  0012AE  EF59  F009         
  6209                           u3281:
  6210  0012B2                     	goto	l2945
  6211  0012B2  EF3A  F009         u3280:
  6212  0012B6                     	goto	l2951
  6213  0012B6  EF5D  F009         	
  6214                           l189:
  6215  0012BA                     	line	225
  6216                           	
  6217                           l2951:
  6218  0012BA                     ;PIC_Interface_with_XBee.c: 225:  for (int8_t i = 24 ; i >= 0 ; i = i-8)
  6219                           	movlw	low(018h)
  6220  0012BA  0E18               	movwf	((c:Remote_AT_Command@i_553)),c
  6221  0012BC  6E20               	
  6222                           l2953:
  6223  0012BE                     	btfsc	((c:Remote_AT_Command@i_553)),c,7
  6224  0012BE  BE20               	goto	u3290
  6225  0012C0  EF66  F009         	goto	u3291
  6226  0012C4  EF64  F009         
  6227                           u3291:
  6228  0012C8                     	goto	l2957
  6229  0012C8  EF6A  F009         u3290:
  6230  0012CC                     	goto	l2963
  6231  0012CC  EF8D  F009         	
  6232                           l2955:
  6233  0012D0                     	goto	l2963
  6234  0012D0  EF8D  F009         	
  6235                           l190:
  6236  0012D4                     	line	226
  6237                           	
  6238                           l2957:
  6239  0012D4                     ;PIC_Interface_with_XBee.c: 226:   USART_TxChar(Long_Address_LSB >> i);
  6240                           	movf	((c:Remote_AT_Command@i_553)),c,w
  6241  0012D4  5020               	movff	(c:Remote_AT_Command@Long_Address_LSB),??_Remote_AT_Command+0+0
  6242  0012D6  C00E  F017         	movff	(c:Remote_AT_Command@Long_Address_LSB+1),??_Remote_AT_Command+0+0+1
  6243  0012DA  C00F  F018         	movff	(c:Remote_AT_Command@Long_Address_LSB+2),??_Remote_AT_Command+0+0+2
  6244  0012DE  C010  F019         	movff	(c:Remote_AT_Command@Long_Address_LSB+3),??_Remote_AT_Command+0+0+3
  6245  0012E2  C011  F01A         	incf	wreg
  6246  0012E6  2AE8               	goto	u3300
  6247  0012E8  EF7B  F009         u3305:
  6248  0012EC                     	bcf	status,0
  6249  0012EC  90D8               	rrcf	(??_Remote_AT_Command+0+3),c
  6250  0012EE  321A               	rrcf	(??_Remote_AT_Command+0+2),c
  6251  0012F0  3219               	rrcf	(??_Remote_AT_Command+0+1),c
  6252  0012F2  3218               	rrcf	(??_Remote_AT_Command+0+0),c
  6253  0012F4  3217               u3300:
  6254  0012F6                     	decfsz	wreg
  6255  0012F6  2EE8               	goto	u3305
  6256  0012F8  EF76  F009         	movf	(??_Remote_AT_Command+0+0),c,w
  6257  0012FC  5017               	
  6258                           	call	_USART_TxChar
  6259  0012FE  EC1B  F019         	
  6260                           l2959:
  6261  001302                     	movf	((c:Remote_AT_Command@i_553)),c,w
  6262  001302  5020               	addlw	low(-8)
  6263  001304  0FF8               	movwf	((c:Remote_AT_Command@i_553)),c
  6264  001306  6E20               	
  6265                           l2961:
  6266  001308                     	btfsc	((c:Remote_AT_Command@i_553)),c,7
  6267  001308  BE20               	goto	u3310
  6268  00130A  EF8B  F009         	goto	u3311
  6269  00130E  EF89  F009         
  6270                           u3311:
  6271  001312                     	goto	l2957
  6272  001312  EF6A  F009         u3310:
  6273  001316                     	goto	l2963
  6274  001316  EF8D  F009         	
  6275                           l191:
  6276  00131A                     	line	227
  6277                           	
  6278                           l2963:
  6279  00131A                     ;PIC_Interface_with_XBee.c: 227:  USART_TxChar(Short_Address >> 8);
  6280                           	movf	((c:Remote_AT_Command@Short_Address+1)),c,w
  6281  00131A  5013               	
  6282                           	call	_USART_TxChar
  6283  00131C  EC1B  F019         	line	228
  6284                           ;PIC_Interface_with_XBee.c: 228:  USART_TxChar(Short_Address);
  6285                           	movf	((c:Remote_AT_Command@Short_Address)),c,w
  6286  001320  5012               	
  6287                           	call	_USART_TxChar
  6288  001322  EC1B  F019         	line	229
  6289                           	
  6290                           l2965:
  6291  001326                     ;PIC_Interface_with_XBee.c: 229:  USART_TxChar(0x02);
  6292                           	movlw	(02h)&0ffh
  6293  001326  0E02               	
  6294                           	call	_USART_TxChar
  6295  001328  EC1B  F019         	line	230
  6296                           	
  6297                           l2967:
  6298  00132C                     ;PIC_Interface_with_XBee.c: 230:  USART_SendString(ATCommand);
  6299                           		movff	(c:Remote_AT_Command@ATCommand),(c:USART_SendString@str)
  6300  00132C  C014  F008         	movff	(c:Remote_AT_Command@ATCommand+1),(c:USART_SendString@str+1)
  6301  001330  C015  F009         
  6302                           	call	_USART_SendString	;wreg free
  6303  001334  ECBF  F018         	line	231
  6304                           	
  6305                           l2969:
  6306  001338                     ;PIC_Interface_with_XBee.c: 231:     int i=i+1;
  6307                           	movlw	low(01h)
  6308  001338  0E01               	addwf	((c:Remote_AT_Command@i_554)),c,w
  6309  00133A  241B               	movwf	((c:Remote_AT_Command@i_554)),c
  6310  00133C  6E1B               	movlw	high(01h)
  6311  00133E  0E00               	addwfc	((c:Remote_AT_Command@i_554+1)),c,w
  6312  001340  201C               	movwf	1+((c:Remote_AT_Command@i_554)),c
  6313  001342  6E1C               	line	232
  6314                           	
  6315                           l2971:
  6316  001344                     ;PIC_Interface_with_XBee.c: 232:  if(action == 1)
  6317                           		decf	((c:Remote_AT_Command@action)),c,w
  6318  001344  0416               	btfss	status,2
  6319  001346  A4D8               	goto	u3321
  6320  001348  EFA8  F009         	goto	u3320
  6321  00134C  EFAA  F009         
  6322                           u3321:
  6323  001350                     	goto	l192
  6324  001350  EFE1  F009         u3320:
  6325  001354                     	line	234
  6326                           	
  6327                           l2973:
  6328  001354                     ;PIC_Interface_with_XBee.c: 233:  {;PIC_Interface_with_XBee.c: 234:   if(Length == 19)
  6329                           		movlw	19
  6330  001354  0E13               	xorwf	((c:Remote_AT_Command@Length)),c,w
  6331  001356  1821               iorwf	((c:Remote_AT_Command@Length+1)),c,w
  6332  001358  1022               	btfss	status,2
  6333  00135A  A4D8               	goto	u3331
  6334  00135C  EFB2  F009         	goto	u3330
  6335  001360  EFB4  F009         
  6336                           u3331:
  6337  001364                     	goto	l2977
  6338  001364  EFBF  F009         u3330:
  6339  001368                     	line	236
  6340                           	
  6341                           l2975:
  6342  001368                     ;PIC_Interface_with_XBee.c: 235:   {;PIC_Interface_with_XBee.c: 236:    USART_TxChar(Com
                                 mand_Value >> 24);
  6343                           	movf	(0+3+(c:_Command_Value)),c,w
  6344  001368  5067               	
  6345                           	call	_USART_TxChar
  6346  00136A  EC1B  F019         	line	237
  6347                           ;PIC_Interface_with_XBee.c: 237:    USART_TxChar(Command_Value >> 16);
  6348                           	movf	(0+2+(c:_Command_Value)),c,w
  6349  00136E  5066               	
  6350                           	call	_USART_TxChar
  6351  001370  EC1B  F019         	line	238
  6352                           ;PIC_Interface_with_XBee.c: 238:    USART_TxChar(Command_Value >> 8);
  6353                           	movf	(0+1+(c:_Command_Value)),c,w
  6354  001374  5065               	
  6355                           	call	_USART_TxChar
  6356  001376  EC1B  F019         	goto	l2977
  6357  00137A  EFBF  F009         	line	239
  6358                           ;PIC_Interface_with_XBee.c: 239:   }
  6359                           	
  6360                           l193:
  6361  00137E                     	line	240
  6362                           	
  6363                           l2977:
  6364  00137E                     ;PIC_Interface_with_XBee.c: 240:   if(Length == 18)
  6365                           		movlw	18
  6366  00137E  0E12               	xorwf	((c:Remote_AT_Command@Length)),c,w
  6367  001380  1821               iorwf	((c:Remote_AT_Command@Length+1)),c,w
  6368  001382  1022               	btfss	status,2
  6369  001384  A4D8               	goto	u3341
  6370  001386  EFC7  F009         	goto	u3340
  6371  00138A  EFC9  F009         
  6372                           u3341:
  6373  00138E                     	goto	l2981
  6374  00138E  EFD1  F009         u3340:
  6375  001392                     	line	242
  6376                           	
  6377                           l2979:
  6378  001392                     ;PIC_Interface_with_XBee.c: 241:   {;PIC_Interface_with_XBee.c: 242:    USART_TxChar(Com
                                 mand_Value >> 16);
  6379                           	movf	(0+2+(c:_Command_Value)),c,w
  6380  001392  5066               	
  6381                           	call	_USART_TxChar
  6382  001394  EC1B  F019         	line	243
  6383                           ;PIC_Interface_with_XBee.c: 243:    USART_TxChar(Command_Value >> 8);
  6384                           	movf	(0+1+(c:_Command_Value)),c,w
  6385  001398  5065               	
  6386                           	call	_USART_TxChar
  6387  00139A  EC1B  F019         	goto	l2981
  6388  00139E  EFD1  F009         	line	244
  6389                           ;PIC_Interface_with_XBee.c: 244:   }
  6390                           	
  6391                           l194:
  6392  0013A2                     	line	245
  6393                           	
  6394                           l2981:
  6395  0013A2                     ;PIC_Interface_with_XBee.c: 245:   if(Length == 17)
  6396                           		movlw	17
  6397  0013A2  0E11               	xorwf	((c:Remote_AT_Command@Length)),c,w
  6398  0013A4  1821               iorwf	((c:Remote_AT_Command@Length+1)),c,w
  6399  0013A6  1022               	btfss	status,2
  6400  0013A8  A4D8               	goto	u3351
  6401  0013AA  EFD9  F009         	goto	u3350
  6402  0013AE  EFDB  F009         
  6403                           u3351:
  6404  0013B2                     	goto	l195
  6405  0013B2  EFDE  F009         u3350:
  6406  0013B6                     	line	246
  6407                           	
  6408                           l2983:
  6409  0013B6                     ;PIC_Interface_with_XBee.c: 246:    USART_TxChar(Command_Value >> 8);
  6410                           	movf	(0+1+(c:_Command_Value)),c,w
  6411  0013B6  5065               	
  6412                           	call	_USART_TxChar
  6413  0013B8  EC1B  F019         	
  6414                           l195:
  6415  0013BC                     	line	247
  6416                           ;PIC_Interface_with_XBee.c: 247:   USART_TxChar(Command_Value);
  6417                           	movf	((c:_Command_Value)),c,w
  6418  0013BC  5064               	
  6419                           	call	_USART_TxChar
  6420  0013BE  EC1B  F019         	line	248
  6421                           ;PIC_Interface_with_XBee.c: 248:  }
  6422                           	
  6423                           l192:
  6424  0013C2                     	line	249
  6425                           ;PIC_Interface_with_XBee.c: 249:  USART_TxChar(Checksum);
  6426                           	movf	((c:Remote_AT_Command@Checksum)),c,w
  6427  0013C2  5023               	
  6428                           	call	_USART_TxChar
  6429  0013C4  EC1B  F019         	line	251
  6430                           	
  6431                           l196:
  6432  0013C8                     	return	;funcret
  6433  0013C8  0012               	opt stack 0
  6434                           GLOBAL	__end_of_Remote_AT_Command
  6435                           	__end_of_Remote_AT_Command:
  6436  0013CA                     	signat	_Remote_AT_Command,20601
  6437                           	global	_USART_Init
  6438                           
  6439 ;; *************** function _USART_Init *****************
  6440 ;; Defined at:
  6441 ;;		line 8 in file "USART_Source_File.c"
  6442 ;; Parameters:    Size  Location     Type
  6443 ;;  baud_rate       4   75[COMRAM] long 
  6444 ;; Auto vars:     Size  Location     Type
  6445 ;;		None
  6446 ;; Return value:  Size  Location     Type
  6447 ;;                  1    wreg      void 
  6448 ;; Registers used:
  6449 ;;		wreg, status,2, status,0, cstack
  6450 ;; Tracked objects:
  6451 ;;		On entry : 0/0
  6452 ;;		On exit  : 0/0
  6453 ;;		Unchanged: 0/0
  6454 ;; Data sizes:     COMRAM   BANK0   BANK1   BANK2   BANK3   BANK4   BANK5
  6455 ;;      Params:         4       0       0       0       0       0       0
  6456 ;;      Locals:         0       0       0       0       0       0       0
  6457 ;;      Temps:          0       0       0       0       0       0       0
  6458 ;;      Totals:         4       0       0       0       0       0       0
  6459 ;;Total ram usage:        4 bytes
  6460 ;; Hardware stack levels used:    1
  6461 ;; Hardware stack levels required when called:    2
  6462 ;; This function calls:
  6463 ;;		___fladd
  6464 ;;		___fldiv
  6465 ;;		___fltol
  6466 ;;		___xxtofl
  6467 ;; This function is called by:
  6468 ;;		_main
  6469 ;; This function uses a non-reentrant model
  6470 ;;
  6471                           psect	text15,class=CODE,space=0,reloc=2,group=0
  6472                           	file	"USART_Source_File.c"
  6473                           	line	8
  6474                           global __ptext15
  6475                           __ptext15:
  6476  002C48                     psect	text15
  6477                           	file	"USART_Source_File.c"
  6478                           	line	8
  6479                           	global	__size_of_USART_Init
  6480                           	__size_of_USART_Init	equ	__end_of_USART_Init-_USART_Init
  6481  0000                     	
  6482                           _USART_Init:
  6483  002C48                     ;incstack = 0
  6484                           	opt	stack 28
  6485                           	line	10
  6486                           	
  6487                           l3493:
  6488  002C48                     ;USART_Source_File.c: 8: void USART_Init(long baud_rate);USART_Source_File.c: 9: {;USART
                                 _Source_File.c: 10:     TRISC6 = 0;
  6489                           	bcf	c:(31910/8),(31910)&7	;volatile
  6490  002C48  9C94               	line	11
  6491                           ;USART_Source_File.c: 11:     TRISC7 = 1;
  6492                           	bsf	c:(31911/8),(31911)&7	;volatile
  6493  002C4A  8E94               	line	12
  6494                           	
  6495                           l3495:
  6496  002C4C                     ;USART_Source_File.c: 12:     SPBRG = (int)(((float)(8000000/64)/(float)baud_rate)-1);
  6497                           	movlw	low(normalize32(0xbf800000))
  6498  002C4C  0E00               	movwf	((c:___fladd@a)),c
  6499  002C4E  6E32               	movlw	high(normalize32(0xbf800000))
  6500  002C50  0E00               	movwf	((c:___fladd@a+1)),c
  6501  002C52  6E33               	movlw	low highword(normalize32(0xbf800000))
  6502  002C54  0E80               	movwf	((c:___fladd@a+2)),c
  6503  002C56  6E34               	movlw	high highword(normalize32(0xbf800000))
  6504  002C58  0EBF               	movwf	((c:___fladd@a+3)),c
  6505  002C5A  6E35               	movff	(c:USART_Init@baud_rate),(c:___xxtofl@val)
  6506  002C5C  C04C  F007         	movff	(c:USART_Init@baud_rate+1),(c:___xxtofl@val+1)
  6507  002C60  C04D  F008         	movff	(c:USART_Init@baud_rate+2),(c:___xxtofl@val+2)
  6508  002C64  C04E  F009         	movff	(c:USART_Init@baud_rate+3),(c:___xxtofl@val+3)
  6509  002C68  C04F  F00A         	movlw	(01h)&0ffh
  6510  002C6C  0E01               	
  6511                           	call	___xxtofl
  6512  002C6E  ECF5  F00F         	movff	0+?___xxtofl,(c:___fldiv@a)
  6513  002C72  C007  F019         	movff	1+?___xxtofl,(c:___fldiv@a+1)
  6514  002C76  C008  F01A         	movff	2+?___xxtofl,(c:___fldiv@a+2)
  6515  002C7A  C009  F01B         	movff	3+?___xxtofl,(c:___fldiv@a+3)
  6516  002C7E  C00A  F01C         	
  6517                           	movlw	low(normalize32(0x47f42400))
  6518  002C82  0E00               	movwf	((c:___fldiv@b)),c
  6519  002C84  6E15               	movlw	high(normalize32(0x47f42400))
  6520  002C86  0E24               	movwf	((c:___fldiv@b+1)),c
  6521  002C88  6E16               	movlw	low highword(normalize32(0x47f42400))
  6522  002C8A  0EF4               	movwf	((c:___fldiv@b+2)),c
  6523  002C8C  6E17               	movlw	high highword(normalize32(0x47f42400))
  6524  002C8E  0E47               	movwf	((c:___fldiv@b+3)),c
  6525  002C90  6E18               	call	___fldiv	;wreg free
  6526  002C92  ECF5  F005         	movff	0+?___fldiv,(c:___fladd@b)
  6527  002C96  C015  F02E         	movff	1+?___fldiv,(c:___fladd@b+1)
  6528  002C9A  C016  F02F         	movff	2+?___fldiv,(c:___fladd@b+2)
  6529  002C9E  C017  F030         	movff	3+?___fldiv,(c:___fladd@b+3)
  6530  002CA2  C018  F031         	
  6531                           	call	___fladd	;wreg free
  6532  002CA6  EC33  F003         	movff	0+?___fladd,(c:___fltol@f1)
  6533  002CAA  C02E  F042         	movff	1+?___fladd,(c:___fltol@f1+1)
  6534  002CAE  C02F  F043         	movff	2+?___fladd,(c:___fltol@f1+2)
  6535  002CB2  C030  F044         	movff	3+?___fladd,(c:___fltol@f1+3)
  6536  002CB6  C031  F045         	
  6537                           	call	___fltol	;wreg free
  6538  002CBA  EC45  F014         	movf	(0+?___fltol),c,w
  6539  002CBE  5042               	movwf	((c:4015)),c	;volatile
  6540  002CC0  6EAF               	line	13
  6541                           	
  6542                           l3497:
  6543  002CC2                     ;USART_Source_File.c: 13:     TXSTA = 0x20;
  6544                           	movlw	low(020h)
  6545  002CC2  0E20               	movwf	((c:4012)),c	;volatile
  6546  002CC4  6EAC               	line	14
  6547                           	
  6548                           l3499:
  6549  002CC6                     ;USART_Source_File.c: 14:     RCSTA = 0x90;
  6550                           	movlw	low(090h)
  6551  002CC6  0E90               	movwf	((c:4011)),c	;volatile
  6552  002CC8  6EAB               	line	15
  6553                           	
  6554                           l278:
  6555  002CCA                     	return	;funcret
  6556  002CCA  0012               	opt stack 0
  6557                           GLOBAL	__end_of_USART_Init
  6558                           	__end_of_USART_Init:
  6559  002CCC                     	signat	_USART_Init,4217
  6560                           	global	___xxtofl
  6561                           
  6562 ;; *************** function ___xxtofl *****************
  6563 ;; Defined at:
  6564 ;;		line 10 in file "C:\Program Files (x86)\Microchip\xc8\v2.00\pic\sources\c99\common\xxtofl.c"
  6565 ;; Parameters:    Size  Location     Type
  6566 ;;  sign            1    wreg     unsigned char 
  6567 ;;  val             4    6[COMRAM] long 
  6568 ;; Auto vars:     Size  Location     Type
  6569 ;;  sign            1   14[COMRAM] unsigned char 
  6570 ;;  arg             4   16[COMRAM] unsigned long 
  6571 ;;  exp             1   15[COMRAM] unsigned char 
  6572 ;; Return value:  Size  Location     Type
  6573 ;;                  4    6[COMRAM] unsigned char 
  6574 ;; Registers used:
  6575 ;;		wreg, status,2, status,0
  6576 ;; Tracked objects:
  6577 ;;		On entry : 0/0
  6578 ;;		On exit  : 0/0
  6579 ;;		Unchanged: 0/0
  6580 ;; Data sizes:     COMRAM   BANK0   BANK1   BANK2   BANK3   BANK4   BANK5
  6581 ;;      Params:         4       0       0       0       0       0       0
  6582 ;;      Locals:         6       0       0       0       0       0       0
  6583 ;;      Temps:          4       0       0       0       0       0       0
  6584 ;;      Totals:        14       0       0       0       0       0       0
  6585 ;;Total ram usage:       14 bytes
  6586 ;; Hardware stack levels used:    1
  6587 ;; Hardware stack levels required when called:    1
  6588 ;; This function calls:
  6589 ;;		Nothing
  6590 ;; This function is called by:
  6591 ;;		_USART_Init
  6592 ;; This function uses a non-reentrant model
  6593 ;;
  6594                           psect	text16,class=CODE,space=0,reloc=2,group=1
  6595                           	file	"C:\Program Files (x86)\Microchip\xc8\v2.00\pic\sources\c99\common\xxtofl.c"
  6596                           	line	10
  6597                           global __ptext16
  6598                           __ptext16:
  6599  001FEA                     psect	text16
  6600                           	file	"C:\Program Files (x86)\Microchip\xc8\v2.00\pic\sources\c99\common\xxtofl.c"
  6601                           	line	10
  6602                           	global	__size_of___xxtofl
  6603                           	__size_of___xxtofl	equ	__end_of___xxtofl-___xxtofl
  6604  0000                     	
  6605                           ___xxtofl:
  6606  001FEA                     ;incstack = 0
  6607                           	opt	stack 28
  6608                           ;___xxtofl@sign stored from wreg
  6609                           	movwf	((c:___xxtofl@sign)),c
  6610  001FEA  6E0F               	line	15
  6611                           	
  6612                           l3381:
  6613  001FEC                     	movf	((c:___xxtofl@sign)),c,w
  6614  001FEC  500F               	btfsc	status,2
  6615  001FEE  B4D8               	goto	u4061
  6616  001FF0  EFFC  F00F         	goto	u4060
  6617  001FF4  EFFE  F00F         u4061:
  6618  001FF8                     	goto	l1026
  6619  001FF8  EF20  F010         u4060:
  6620  001FFC                     	
  6621                           l3383:
  6622  001FFC                     	btfsc	((c:___xxtofl@val+3)),c,7
  6623  001FFC  BE0A               	goto	u4070
  6624  001FFE  EF05  F010         	goto	u4071
  6625  002002  EF03  F010         
  6626                           u4071:
  6627  002006                     	goto	l1026
  6628  002006  EF20  F010         u4070:
  6629  00200A                     	line	16
  6630                           	
  6631                           l3385:
  6632  00200A                     	movff	(c:___xxtofl@val),??___xxtofl+0+0
  6633  00200A  C007  F00B         	movff	(c:___xxtofl@val+1),??___xxtofl+0+0+1
  6634  00200E  C008  F00C         	movff	(c:___xxtofl@val+2),??___xxtofl+0+0+2
  6635  002012  C009  F00D         	movff	(c:___xxtofl@val+3),??___xxtofl+0+0+3
  6636  002016  C00A  F00E         	comf	(??___xxtofl+0+0),c
  6637  00201A  1E0B               	comf	(??___xxtofl+0+1),c
  6638  00201C  1E0C               	comf	(??___xxtofl+0+2),c
  6639  00201E  1E0D               	comf	(??___xxtofl+0+3),c
  6640  002020  1E0E               	incf	(??___xxtofl+0+0),c
  6641  002022  2A0B               	movlw	0
  6642  002024  0E00               	addwfc	(??___xxtofl+0+1),c
  6643  002026  220C               	addwfc	(??___xxtofl+0+2),c
  6644  002028  220D               	addwfc	(??___xxtofl+0+3),c
  6645  00202A  220E               	movff	??___xxtofl+0+0,(c:___xxtofl@arg)
  6646  00202C  C00B  F011         	movff	??___xxtofl+0+1,(c:___xxtofl@arg+1)
  6647  002030  C00C  F012         	movff	??___xxtofl+0+2,(c:___xxtofl@arg+2)
  6648  002034  C00D  F013         	movff	??___xxtofl+0+3,(c:___xxtofl@arg+3)
  6649  002038  C00E  F014         	line	17
  6650                           	goto	l3387
  6651  00203C  EF2A  F010         	line	18
  6652                           	
  6653                           l1026:
  6654  002040                     	line	19
  6655                           	movff	(c:___xxtofl@val),(c:___xxtofl@arg)
  6656  002040  C007  F011         	movff	(c:___xxtofl@val+1),(c:___xxtofl@arg+1)
  6657  002044  C008  F012         	movff	(c:___xxtofl@val+2),(c:___xxtofl@arg+2)
  6658  002048  C009  F013         	movff	(c:___xxtofl@val+3),(c:___xxtofl@arg+3)
  6659  00204C  C00A  F014         	goto	l3387
  6660  002050  EF2A  F010         	line	20
  6661                           	
  6662                           l1027:
  6663  002054                     	line	21
  6664                           	
  6665                           l3387:
  6666  002054                     	movf	((c:___xxtofl@val)),c,w
  6667  002054  5007               iorwf	((c:___xxtofl@val+1)),c,w
  6668  002056  1008               iorwf	((c:___xxtofl@val+2)),c,w
  6669  002058  1009               iorwf	((c:___xxtofl@val+3)),c,w
  6670  00205A  100A               	btfss	status,2
  6671  00205C  A4D8               	goto	u4081
  6672  00205E  EF33  F010         	goto	u4080
  6673  002062  EF35  F010         
  6674                           u4081:
  6675  002066                     	goto	l3393
  6676  002066  EF41  F010         u4080:
  6677  00206A                     	line	22
  6678                           	
  6679                           l3389:
  6680  00206A                     	movlw	low(normalize32(0x0))
  6681  00206A  0E00               	movwf	((c:?___xxtofl)),c
  6682  00206C  6E07               	movlw	high(normalize32(0x0))
  6683  00206E  0E00               	movwf	((c:?___xxtofl+1)),c
  6684  002070  6E08               	movlw	low highword(normalize32(0x0))
  6685  002072  0E00               	movwf	((c:?___xxtofl+2)),c
  6686  002074  6E09               	movlw	high highword(normalize32(0x0))
  6687  002076  0E00               	movwf	((c:?___xxtofl+3)),c
  6688  002078  6E0A               	goto	l1029
  6689  00207A  EFE2  F010         	
  6690                           l3391:
  6691  00207E                     	goto	l1029
  6692  00207E  EFE2  F010         	
  6693                           l1028:
  6694  002082                     	line	23
  6695                           	
  6696                           l3393:
  6697  002082                     	movlw	low(096h)
  6698  002082  0E96               	movwf	((c:___xxtofl@exp)),c
  6699  002084  6E10               	line	24
  6700                           	goto	l3397
  6701  002086  EF4D  F010         	
  6702                           l1031:
  6703  00208A                     	line	25
  6704                           	
  6705                           l3395:
  6706  00208A                     	incf	((c:___xxtofl@exp)),c
  6707  00208A  2A10               	line	26
  6708                           	bcf	status,0
  6709  00208C  90D8               	rrcf	((c:___xxtofl@arg+3)),c
  6710  00208E  3214               	rrcf	((c:___xxtofl@arg+2)),c
  6711  002090  3213               	rrcf	((c:___xxtofl@arg+1)),c
  6712  002092  3212               	rrcf	((c:___xxtofl@arg)),c
  6713  002094  3211               	goto	l3397
  6714  002096  EF4D  F010         	line	27
  6715                           	
  6716                           l1030:
  6717  00209A                     	line	24
  6718                           	
  6719                           l3397:
  6720  00209A                     	movlw	0
  6721  00209A  0E00               	andwf	((c:___xxtofl@arg)),c,w
  6722  00209C  1411               	movwf	(??___xxtofl+0+0)&0ffh,c
  6723  00209E  6E0B               	movlw	0
  6724  0020A0  0E00               	andwf	((c:___xxtofl@arg+1)),c,w
  6725  0020A2  1412               	movwf	1+(??___xxtofl+0+0)&0ffh,c
  6726  0020A4  6E0C               	
  6727                           	movlw	0
  6728  0020A6  0E00               	andwf	((c:___xxtofl@arg+2)),c,w
  6729  0020A8  1413               	movwf	2+(??___xxtofl+0+0)&0ffh,c
  6730  0020AA  6E0D               	
  6731                           	movlw	0FEh
  6732  0020AC  0EFE               	andwf	((c:___xxtofl@arg+3)),c,w
  6733  0020AE  1414               	movwf	3+(??___xxtofl+0+0)&0ffh,c
  6734  0020B0  6E0E               	movf	(??___xxtofl+0+0),c,w
  6735  0020B2  500B               iorwf	(??___xxtofl+0+1),c,w
  6736  0020B4  100C               iorwf	(??___xxtofl+0+2),c,w
  6737  0020B6  100D               iorwf	(??___xxtofl+0+3),c,w
  6738  0020B8  100E               	btfss	status,2
  6739  0020BA  A4D8               	goto	u4091
  6740  0020BC  EF62  F010         	goto	u4090
  6741  0020C0  EF64  F010         
  6742                           u4091:
  6743  0020C4                     	goto	l3395
  6744  0020C4  EF45  F010         u4090:
  6745  0020C8                     	goto	l1033
  6746  0020C8  EF74  F010         	
  6747                           l1032:
  6748  0020CC                     	line	28
  6749                           	goto	l1033
  6750  0020CC  EF74  F010         	
  6751                           l1034:
  6752  0020D0                     	line	29
  6753                           	
  6754                           l3399:
  6755  0020D0                     	incf	((c:___xxtofl@exp)),c
  6756  0020D0  2A10               	line	30
  6757                           	
  6758                           l3401:
  6759  0020D2                     	movlw	low(01h)
  6760  0020D2  0E01               	addwf	((c:___xxtofl@arg)),c
  6761  0020D4  2611               	movlw	0
  6762  0020D6  0E00               	addwfc	((c:___xxtofl@arg+1)),c
  6763  0020D8  2212               	addwfc	((c:___xxtofl@arg+2)),c
  6764  0020DA  2213               	addwfc	((c:___xxtofl@arg+3)),c
  6765  0020DC  2214               	line	31
  6766                           	
  6767                           l3403:
  6768  0020DE                     	bcf	status,0
  6769  0020DE  90D8               	rrcf	((c:___xxtofl@arg+3)),c
  6770  0020E0  3214               	rrcf	((c:___xxtofl@arg+2)),c
  6771  0020E2  3213               	rrcf	((c:___xxtofl@arg+1)),c
  6772  0020E4  3212               	rrcf	((c:___xxtofl@arg)),c
  6773  0020E6  3211               	line	32
  6774                           	
  6775                           l1033:
  6776  0020E8                     	line	28
  6777                           	movlw	0
  6778  0020E8  0E00               	andwf	((c:___xxtofl@arg)),c,w
  6779  0020EA  1411               	movwf	(??___xxtofl+0+0)&0ffh,c
  6780  0020EC  6E0B               	movlw	0
  6781  0020EE  0E00               	andwf	((c:___xxtofl@arg+1)),c,w
  6782  0020F0  1412               	movwf	1+(??___xxtofl+0+0)&0ffh,c
  6783  0020F2  6E0C               	
  6784                           	movlw	0
  6785  0020F4  0E00               	andwf	((c:___xxtofl@arg+2)),c,w
  6786  0020F6  1413               	movwf	2+(??___xxtofl+0+0)&0ffh,c
  6787  0020F8  6E0D               	
  6788                           	movlw	0FFh
  6789  0020FA  0EFF               	andwf	((c:___xxtofl@arg+3)),c,w
  6790  0020FC  1414               	movwf	3+(??___xxtofl+0+0)&0ffh,c
  6791  0020FE  6E0E               	movf	(??___xxtofl+0+0),c,w
  6792  002100  500B               iorwf	(??___xxtofl+0+1),c,w
  6793  002102  100C               iorwf	(??___xxtofl+0+2),c,w
  6794  002104  100D               iorwf	(??___xxtofl+0+3),c,w
  6795  002106  100E               	btfss	status,2
  6796  002108  A4D8               	goto	u4101
  6797  00210A  EF89  F010         	goto	u4100
  6798  00210E  EF8B  F010         
  6799                           u4101:
  6800  002112                     	goto	l3399
  6801  002112  EF68  F010         u4100:
  6802  002116                     	goto	l3407
  6803  002116  EF97  F010         	
  6804                           l1035:
  6805  00211A                     	line	33
  6806                           	goto	l3407
  6807  00211A  EF97  F010         	
  6808                           l1037:
  6809  00211E                     	line	34
  6810                           	
  6811                           l3405:
  6812  00211E                     	decf	((c:___xxtofl@exp)),c
  6813  00211E  0610               	line	35
  6814                           	bcf	status,0
  6815  002120  90D8               	rlcf	((c:___xxtofl@arg)),c
  6816  002122  3611               	rlcf	((c:___xxtofl@arg+1)),c
  6817  002124  3612               	rlcf	((c:___xxtofl@arg+2)),c
  6818  002126  3613               	rlcf	((c:___xxtofl@arg+3)),c
  6819  002128  3614               	goto	l3407
  6820  00212A  EF97  F010         	line	36
  6821                           	
  6822                           l1036:
  6823  00212E                     	line	33
  6824                           	
  6825                           l3407:
  6826  00212E                     	
  6827                           	btfsc	((c:___xxtofl@arg+2)),c,(23)&7
  6828  00212E  BE13               	goto	u4111
  6829  002130  EF9C  F010         	goto	u4110
  6830  002134  EF9E  F010         u4111:
  6831  002138                     	goto	l1040
  6832  002138  EFA8  F010         u4110:
  6833  00213C                     	
  6834                           l3409:
  6835  00213C                     		movlw	02h-0
  6836  00213C  0E02               	cpfslt	((c:___xxtofl@exp)),c
  6837  00213E  6010               	goto	u4121
  6838  002140  EFA4  F010         	goto	u4120
  6839  002144  EFA6  F010         
  6840                           u4121:
  6841  002148                     	goto	l3405
  6842  002148  EF8F  F010         u4120:
  6843  00214C                     	goto	l1040
  6844  00214C  EFA8  F010         	
  6845                           l1039:
  6846  002150                     	
  6847                           l1040:
  6848  002150                     	line	37
  6849                           	
  6850                           	btfsc	((c:___xxtofl@exp)),c,(0)&7
  6851  002150  B010               	goto	u4131
  6852  002152  EFAD  F010         	goto	u4130
  6853  002156  EFAF  F010         u4131:
  6854  00215A                     	goto	l3413
  6855  00215A  EFB2  F010         u4130:
  6856  00215E                     	line	38
  6857                           	
  6858                           l3411:
  6859  00215E                     	bcf	(0+(23/8)+(c:___xxtofl@arg)),c,(23)&7
  6860  00215E  9E13               	goto	l3413
  6861  002160  EFB2  F010         	
  6862                           l1041:
  6863  002164                     	line	39
  6864                           	
  6865                           l3413:
  6866  002164                     	bcf status,0
  6867  002164  90D8               	rrcf	((c:___xxtofl@exp)),c
  6868  002166  3210               
  6869                           	line	40
  6870                           	
  6871                           l3415:
  6872  002168                     	movff	(c:___xxtofl@exp),??___xxtofl+0+0
  6873  002168  C010  F00B         	clrf	(??___xxtofl+0+0+1)&0ffh,c
  6874  00216C  6A0C               	clrf	(??___xxtofl+0+0+2)&0ffh,c
  6875  00216E  6A0D               	clrf	(??___xxtofl+0+0+3)&0ffh,c
  6876  002170  6A0E               	movff	??___xxtofl+0+0,??___xxtofl+0+3
  6877  002172  C00B  F00E         	clrf	(??___xxtofl+0+2),c
  6878  002176  6A0D               	clrf	(??___xxtofl+0+1),c
  6879  002178  6A0C               	clrf	(??___xxtofl+0+0),c
  6880  00217A  6A0B               	movf	(??___xxtofl+0+0),c,w
  6881  00217C  500B               	iorwf	((c:___xxtofl@arg)),c
  6882  00217E  1211               	movf	(??___xxtofl+0+1),c,w
  6883  002180  500C               	iorwf	((c:___xxtofl@arg+1)),c
  6884  002182  1212               	movf	(??___xxtofl+0+2),c,w
  6885  002184  500D               	iorwf	((c:___xxtofl@arg+2)),c
  6886  002186  1213               	movf	(??___xxtofl+0+3),c,w
  6887  002188  500E               	iorwf	((c:___xxtofl@arg+3)),c
  6888  00218A  1214               
  6889                           	line	41
  6890                           	
  6891                           l3417:
  6892  00218C                     	movf	((c:___xxtofl@sign)),c,w
  6893  00218C  500F               	btfsc	status,2
  6894  00218E  B4D8               	goto	u4141
  6895  002190  EFCC  F010         	goto	u4140
  6896  002194  EFCE  F010         u4141:
  6897  002198                     	goto	l3423
  6898  002198  EFD8  F010         u4140:
  6899  00219C                     	
  6900                           l3419:
  6901  00219C                     	btfsc	((c:___xxtofl@val+3)),c,7
  6902  00219C  BE0A               	goto	u4150
  6903  00219E  EFD5  F010         	goto	u4151
  6904  0021A2  EFD3  F010         
  6905                           u4151:
  6906  0021A6                     	goto	l3423
  6907  0021A6  EFD8  F010         u4150:
  6908  0021AA                     	line	42
  6909                           	
  6910                           l3421:
  6911  0021AA                     	bsf	(0+(31/8)+(c:___xxtofl@arg)),c,(31)&7
  6912  0021AA  8E14               	goto	l3423
  6913  0021AC  EFD8  F010         	
  6914                           l1042:
  6915  0021B0                     	line	43
  6916                           	
  6917                           l3423:
  6918  0021B0                     	movff	(c:___xxtofl@arg),(c:?___xxtofl)
  6919  0021B0  C011  F007         	movff	(c:___xxtofl@arg+1),(c:?___xxtofl+1)
  6920  0021B4  C012  F008         	movff	(c:___xxtofl@arg+2),(c:?___xxtofl+2)
  6921  0021B8  C013  F009         	movff	(c:___xxtofl@arg+3),(c:?___xxtofl+3)
  6922  0021BC  C014  F00A         	goto	l1029
  6923  0021C0  EFE2  F010         	
  6924                           l3425:
  6925  0021C4                     	line	44
  6926                           	
  6927                           l1029:
  6928  0021C4                     	return	;funcret
  6929  0021C4  0012               	opt stack 0
  6930                           GLOBAL	__end_of___xxtofl
  6931                           	__end_of___xxtofl:
  6932  0021C6                     	signat	___xxtofl,8316
  6933                           	global	___fltol
  6934                           
  6935 ;; *************** function ___fltol *****************
  6936 ;; Defined at:
  6937 ;;		line 43 in file "C:\Program Files (x86)\Microchip\xc8\v2.00\pic\sources\c99\common\fltol.c"
  6938 ;; Parameters:    Size  Location     Type
  6939 ;;  f1              4   65[COMRAM] unsigned char 
  6940 ;; Auto vars:     Size  Location     Type
  6941 ;;  exp1            1   74[COMRAM] unsigned char 
  6942 ;;  sign1           1   73[COMRAM] unsigned char 
  6943 ;; Return value:  Size  Location     Type
  6944 ;;                  4   65[COMRAM] long 
  6945 ;; Registers used:
  6946 ;;		wreg, status,2, status,0
  6947 ;; Tracked objects:
  6948 ;;		On entry : 0/0
  6949 ;;		On exit  : 0/0
  6950 ;;		Unchanged: 0/0
  6951 ;; Data sizes:     COMRAM   BANK0   BANK1   BANK2   BANK3   BANK4   BANK5
  6952 ;;      Params:         4       0       0       0       0       0       0
  6953 ;;      Locals:         2       0       0       0       0       0       0
  6954 ;;      Temps:          4       0       0       0       0       0       0
  6955 ;;      Totals:        10       0       0       0       0       0       0
  6956 ;;Total ram usage:       10 bytes
  6957 ;; Hardware stack levels used:    1
  6958 ;; Hardware stack levels required when called:    1
  6959 ;; This function calls:
  6960 ;;		Nothing
  6961 ;; This function is called by:
  6962 ;;		_USART_Init
  6963 ;; This function uses a non-reentrant model
  6964 ;;
  6965                           psect	text17,class=CODE,space=0,reloc=2,group=1
  6966                           	file	"C:\Program Files (x86)\Microchip\xc8\v2.00\pic\sources\c99\common\fltol.c"
  6967                           	line	43
  6968                           global __ptext17
  6969                           __ptext17:
  6970  00288A                     psect	text17
  6971                           	file	"C:\Program Files (x86)\Microchip\xc8\v2.00\pic\sources\c99\common\fltol.c"
  6972                           	line	43
  6973                           	global	__size_of___fltol
  6974                           	__size_of___fltol	equ	__end_of___fltol-___fltol
  6975  0000                     	
  6976                           ___fltol:
  6977  00288A                     ;incstack = 0
  6978                           	opt	stack 28
  6979                           	line	47
  6980                           	
  6981                           l3337:
  6982  00288A                     	rlcf	((c:___fltol@f1+2)),c,w
  6983  00288A  3444               	rlcf	((c:___fltol@f1+3)),c,w
  6984  00288C  3445               	movwf	((c:___fltol@exp1)),c
  6985  00288E  6E4B               	movf	((c:___fltol@exp1)),c,w
  6986  002890  504B               	btfss	status,2
  6987  002892  A4D8               	goto	u3991
  6988  002894  EF4E  F014         	goto	u3990
  6989  002898  EF50  F014         u3991:
  6990  00289C                     	goto	l3343
  6991  00289C  EF5C  F014         u3990:
  6992  0028A0                     	line	48
  6993                           	
  6994                           l3339:
  6995  0028A0                     	movlw	low(0)
  6996  0028A0  0E00               	movwf	((c:?___fltol)),c
  6997  0028A2  6E42               	movlw	high(0)
  6998  0028A4  0E00               	movwf	((c:?___fltol+1)),c
  6999  0028A6  6E43               	movlw	low highword(0)
  7000  0028A8  0E00               	movwf	((c:?___fltol+2)),c
  7001  0028AA  6E44               	movlw	high highword(0)
  7002  0028AC  0E00               	movwf	((c:?___fltol+3)),c
  7003  0028AE  6E45               	goto	l668
  7004  0028B0  EFED  F014         	
  7005                           l3341:
  7006  0028B4                     	goto	l668
  7007  0028B4  EFED  F014         	
  7008                           l667:
  7009  0028B8                     	line	49
  7010                           	
  7011                           l3343:
  7012  0028B8                     	movff	(c:___fltol@f1),??___fltol+0+0
  7013  0028B8  C042  F046         	movff	(c:___fltol@f1+1),??___fltol+0+0+1
  7014  0028BC  C043  F047         	movff	(c:___fltol@f1+2),??___fltol+0+0+2
  7015  0028C0  C044  F048         	movff	(c:___fltol@f1+3),??___fltol+0+0+3
  7016  0028C4  C045  F049         	movlw	01Fh+1
  7017  0028C8  0E20               	goto	u4000
  7018  0028CA  EF6C  F014         u4005:
  7019  0028CE                     	bcf	status,0
  7020  0028CE  90D8               	rrcf	(??___fltol+0+3),c
  7021  0028D0  3249               	rrcf	(??___fltol+0+2),c
  7022  0028D2  3248               	rrcf	(??___fltol+0+1),c
  7023  0028D4  3247               	rrcf	(??___fltol+0+0),c
  7024  0028D6  3246               u4000:
  7025  0028D8                     	decfsz	wreg
  7026  0028D8  2EE8               	goto	u4005
  7027  0028DA  EF67  F014         	movf	(??___fltol+0+0),c,w
  7028  0028DE  5046               	movwf	((c:___fltol@sign1)),c
  7029  0028E0  6E4A               	line	50
  7030                           	
  7031                           l3345:
  7032  0028E2                     	bsf	(0+(23/8)+(c:___fltol@f1)),c,(23)&7
  7033  0028E2  8E44               	line	51
  7034                           	
  7035                           l3347:
  7036  0028E4                     	movlw	0FFh
  7037  0028E4  0EFF               	andwf	((c:___fltol@f1)),c
  7038  0028E6  1642               	movlw	0FFh
  7039  0028E8  0EFF               	andwf	((c:___fltol@f1+1)),c
  7040  0028EA  1643               	movlw	0FFh
  7041  0028EC  0EFF               	andwf	((c:___fltol@f1+2)),c
  7042  0028EE  1644               	movlw	0
  7043  0028F0  0E00               	andwf	((c:___fltol@f1+3)),c
  7044  0028F2  1645               	line	52
  7045                           	
  7046                           l3349:
  7047  0028F4                     	movlw	(096h)&0ffh
  7048  0028F4  0E96               	subwf	((c:___fltol@exp1)),c
  7049  0028F6  5E4B               	line	53
  7050                           	
  7051                           l3351:
  7052  0028F8                     	btfsc	((c:___fltol@exp1)),c,7
  7053  0028F8  BE4B               	goto	u4010
  7054  0028FA  EF83  F014         	goto	u4011
  7055  0028FE  EF81  F014         
  7056                           u4011:
  7057  002902                     	goto	l3363
  7058  002902  EFA7  F014         u4010:
  7059  002906                     	line	54
  7060                           	
  7061                           l3353:
  7062  002906                     		movf	((c:___fltol@exp1)),c,w
  7063  002906  504B               	xorlw	80h
  7064  002908  0A80               	addlw	-(80h^-23)
  7065  00290A  0F97               	btfsc	status,0
  7066  00290C  B0D8               	goto	u4021
  7067  00290E  EF8B  F014         	goto	u4020
  7068  002912  EF8D  F014         
  7069                           u4021:
  7070  002916                     	goto	l3359
  7071  002916  EF9B  F014         u4020:
  7072  00291A                     	line	55
  7073                           	
  7074                           l3355:
  7075  00291A                     	movlw	low(0)
  7076  00291A  0E00               	movwf	((c:?___fltol)),c
  7077  00291C  6E42               	movlw	high(0)
  7078  00291E  0E00               	movwf	((c:?___fltol+1)),c
  7079  002920  6E43               	movlw	low highword(0)
  7080  002922  0E00               	movwf	((c:?___fltol+2)),c
  7081  002924  6E44               	movlw	high highword(0)
  7082  002926  0E00               	movwf	((c:?___fltol+3)),c
  7083  002928  6E45               	goto	l668
  7084  00292A  EFED  F014         	
  7085                           l3357:
  7086  00292E                     	goto	l668
  7087  00292E  EFED  F014         	
  7088                           l670:
  7089  002932                     	goto	l3359
  7090  002932  EF9B  F014         	line	56
  7091                           	
  7092                           l671:
  7093  002936                     	line	57
  7094                           	
  7095                           l3359:
  7096  002936                     	bcf	status,0
  7097  002936  90D8               	rrcf	((c:___fltol@f1+3)),c
  7098  002938  3245               	rrcf	((c:___fltol@f1+2)),c
  7099  00293A  3244               	rrcf	((c:___fltol@f1+1)),c
  7100  00293C  3243               	rrcf	((c:___fltol@f1)),c
  7101  00293E  3242               	
  7102                           l3361:
  7103  002940                     	incfsz	((c:___fltol@exp1)),c
  7104  002940  3E4B               	
  7105                           	goto	l3359
  7106  002942  EF9B  F014         	goto	l3373
  7107  002946  EFD1  F014         	
  7108                           l672:
  7109  00294A                     	line	59
  7110                           	goto	l3373
  7111  00294A  EFD1  F014         	
  7112                           l669:
  7113  00294E                     	line	60
  7114                           	
  7115                           l3363:
  7116  00294E                     		movlw	020h-1
  7117  00294E  0E1F               	cpfsgt	((c:___fltol@exp1)),c
  7118  002950  644B               	goto	u4031
  7119  002952  EFAD  F014         	goto	u4030
  7120  002956  EFAF  F014         
  7121                           u4031:
  7122  00295A                     	goto	l3371
  7123  00295A  EFC5  F014         u4030:
  7124  00295E                     	line	61
  7125                           	
  7126                           l3365:
  7127  00295E                     	movlw	low(0)
  7128  00295E  0E00               	movwf	((c:?___fltol)),c
  7129  002960  6E42               	movlw	high(0)
  7130  002962  0E00               	movwf	((c:?___fltol+1)),c
  7131  002964  6E43               	movlw	low highword(0)
  7132  002966  0E00               	movwf	((c:?___fltol+2)),c
  7133  002968  6E44               	movlw	high highword(0)
  7134  00296A  0E00               	movwf	((c:?___fltol+3)),c
  7135  00296C  6E45               	goto	l668
  7136  00296E  EFED  F014         	
  7137                           l3367:
  7138  002972                     	goto	l668
  7139  002972  EFED  F014         	
  7140                           l674:
  7141  002976                     	line	62
  7142                           	goto	l3371
  7143  002976  EFC5  F014         	
  7144                           l676:
  7145  00297A                     	line	63
  7146                           	
  7147                           l3369:
  7148  00297A                     	bcf	status,0
  7149  00297A  90D8               	rlcf	((c:___fltol@f1)),c
  7150  00297C  3642               	rlcf	((c:___fltol@f1+1)),c
  7151  00297E  3643               	rlcf	((c:___fltol@f1+2)),c
  7152  002980  3644               	rlcf	((c:___fltol@f1+3)),c
  7153  002982  3645               	line	64
  7154                           	decf	((c:___fltol@exp1)),c
  7155  002984  064B               	goto	l3371
  7156  002986  EFC5  F014         	line	65
  7157                           	
  7158                           l675:
  7159  00298A                     	line	62
  7160                           	
  7161                           l3371:
  7162  00298A                     	movf	((c:___fltol@exp1)),c,w
  7163  00298A  504B               	btfss	status,2
  7164  00298C  A4D8               	goto	u4041
  7165  00298E  EFCB  F014         	goto	u4040
  7166  002992  EFCD  F014         u4041:
  7167  002996                     	goto	l3369
  7168  002996  EFBD  F014         u4040:
  7169  00299A                     	goto	l3373
  7170  00299A  EFD1  F014         	
  7171                           l677:
  7172  00299E                     	goto	l3373
  7173  00299E  EFD1  F014         	line	66
  7174                           	
  7175                           l673:
  7176  0029A2                     	line	67
  7177                           	
  7178                           l3373:
  7179  0029A2                     	movf	((c:___fltol@sign1)),c,w
  7180  0029A2  504A               	btfsc	status,2
  7181  0029A4  B4D8               	goto	u4051
  7182  0029A6  EFD7  F014         	goto	u4050
  7183  0029AA  EFD9  F014         u4051:
  7184  0029AE                     	goto	l3377
  7185  0029AE  EFE3  F014         u4050:
  7186  0029B2                     	line	68
  7187                           	
  7188                           l3375:
  7189  0029B2                     	comf	((c:___fltol@f1+3)),c
  7190  0029B2  1E45               	comf	((c:___fltol@f1+2)),c
  7191  0029B4  1E44               	comf	((c:___fltol@f1+1)),c
  7192  0029B6  1E43               	negf	((c:___fltol@f1)),c
  7193  0029B8  6C42               	movlw	0
  7194  0029BA  0E00               	addwfc	((c:___fltol@f1+1)),c
  7195  0029BC  2243               	addwfc	((c:___fltol@f1+2)),c
  7196  0029BE  2244               	addwfc	((c:___fltol@f1+3)),c
  7197  0029C0  2245               	goto	l3377
  7198  0029C2  EFE3  F014         	
  7199                           l678:
  7200  0029C6                     	line	69
  7201                           	
  7202                           l3377:
  7203  0029C6                     	movff	(c:___fltol@f1),(c:?___fltol)
  7204  0029C6  C042  F042         	movff	(c:___fltol@f1+1),(c:?___fltol+1)
  7205  0029CA  C043  F043         	movff	(c:___fltol@f1+2),(c:?___fltol+2)
  7206  0029CE  C044  F044         	movff	(c:___fltol@f1+3),(c:?___fltol+3)
  7207  0029D2  C045  F045         	goto	l668
  7208  0029D6  EFED  F014         	
  7209                           l3379:
  7210  0029DA                     	line	70
  7211                           	
  7212                           l668:
  7213  0029DA                     	return	;funcret
  7214  0029DA  0012               	opt stack 0
  7215                           GLOBAL	__end_of___fltol
  7216                           	__end_of___fltol:
  7217  0029DC                     	signat	___fltol,4220
  7218                           	global	___fldiv
  7219                           
  7220 ;; *************** function ___fldiv *****************
  7221 ;; Defined at:
  7222 ;;		line 11 in file "C:\Program Files (x86)\Microchip\xc8\v2.00\pic\sources\c99\common\sprcdiv.c"
  7223 ;; Parameters:    Size  Location     Type
  7224 ;;  b               4   20[COMRAM] long 
  7225 ;;  a               4   24[COMRAM] long 
  7226 ;; Auto vars:     Size  Location     Type
  7227 ;;  grs             4   39[COMRAM] unsigned long 
  7228 ;;  rem             4   32[COMRAM] unsigned long 
  7229 ;;  new_exp         2   37[COMRAM] short 
  7230 ;;  aexp            1   44[COMRAM] unsigned char 
  7231 ;;  bexp            1   43[COMRAM] unsigned char 
  7232 ;;  sign            1   36[COMRAM] unsigned char 
  7233 ;; Return value:  Size  Location     Type
  7234 ;;                  4   20[COMRAM] unsigned char 
  7235 ;; Registers used:
  7236 ;;		wreg, status,2, status,0
  7237 ;; Tracked objects:
  7238 ;;		On entry : 0/0
  7239 ;;		On exit  : 0/0
  7240 ;;		Unchanged: 0/0
  7241 ;; Data sizes:     COMRAM   BANK0   BANK1   BANK2   BANK3   BANK4   BANK5
  7242 ;;      Params:         8       0       0       0       0       0       0
  7243 ;;      Locals:        13       0       0       0       0       0       0
  7244 ;;      Temps:          4       0       0       0       0       0       0
  7245 ;;      Totals:        25       0       0       0       0       0       0
  7246 ;;Total ram usage:       25 bytes
  7247 ;; Hardware stack levels used:    1
  7248 ;; Hardware stack levels required when called:    1
  7249 ;; This function calls:
  7250 ;;		Nothing
  7251 ;; This function is called by:
  7252 ;;		_USART_Init
  7253 ;; This function uses a non-reentrant model
  7254 ;;
  7255                           psect	text18,class=CODE,space=0,reloc=2,group=1
  7256                           	file	"C:\Program Files (x86)\Microchip\xc8\v2.00\pic\sources\c99\common\sprcdiv.c"
  7257                           	line	11
  7258                           global __ptext18
  7259                           __ptext18:
  7260  000BEA                     psect	text18
  7261                           	file	"C:\Program Files (x86)\Microchip\xc8\v2.00\pic\sources\c99\common\sprcdiv.c"
  7262                           	line	11
  7263                           	global	__size_of___fldiv
  7264                           	__size_of___fldiv	equ	__end_of___fldiv-___fldiv
  7265  0000                     	
  7266                           ___fldiv:
  7267  000BEA                     ;incstack = 0
  7268                           	opt	stack 28
  7269                           	line	26
  7270                           	
  7271                           l3199:
  7272  000BEA                     	movf	(0+((c:___fldiv@b)+03h)),c,w
  7273  000BEA  5018               	andlw	low(080h)
  7274  000BEC  0B80               	movwf	((c:___fldiv@sign)),c
  7275  000BEE  6E25               	line	27
  7276                           	movf	(0+((c:___fldiv@b)+03h)),c,w
  7277  000BF0  5018               	addwf	(0+((c:___fldiv@b)+03h)),c,w
  7278  000BF2  2418               	movwf	((c:___fldiv@bexp)),c
  7279  000BF4  6E2C               	line	28
  7280                           	
  7281                           l3201:
  7282  000BF6                     	
  7283                           	btfss	(0+((c:___fldiv@b)+02h)),c,(7)&7
  7284  000BF6  AE17               	goto	u3761
  7285  000BF8  EF00  F006         	goto	u3760
  7286  000BFC  EF02  F006         u3761:
  7287  000C00                     	goto	l3205
  7288  000C00  EF05  F006         u3760:
  7289  000C04                     	line	29
  7290                           	
  7291                           l3203:
  7292  000C04                     	bsf	(0+(0/8)+(c:___fldiv@bexp)),c,(0)&7
  7293  000C04  802C               	goto	l3205
  7294  000C06  EF05  F006         	line	30
  7295                           	
  7296                           l944:
  7297  000C0A                     	line	33
  7298                           	
  7299                           l3205:
  7300  000C0A                     	movf	((c:___fldiv@bexp)),c,w
  7301  000C0A  502C               	btfsc	status,2
  7302  000C0C  B4D8               	goto	u3771
  7303  000C0E  EF0B  F006         	goto	u3770
  7304  000C12  EF0D  F006         u3771:
  7305  000C16                     	goto	l3215
  7306  000C16  EF24  F006         u3770:
  7307  000C1A                     	line	35
  7308                           	
  7309                           l3207:
  7310  000C1A                     		incf	((c:___fldiv@bexp)),c,w
  7311  000C1A  282C               	btfss	status,2
  7312  000C1C  A4D8               	goto	u3781
  7313  000C1E  EF13  F006         	goto	u3780
  7314  000C22  EF15  F006         
  7315                           u3781:
  7316  000C26                     	goto	l3211
  7317  000C26  EF1F  F006         u3780:
  7318  000C2A                     	line	37
  7319                           	
  7320                           l3209:
  7321  000C2A                     	movlw	low(normalize32(0x0))
  7322  000C2A  0E00               	movwf	((c:___fldiv@b)),c
  7323  000C2C  6E15               	movlw	high(normalize32(0x0))
  7324  000C2E  0E00               	movwf	((c:___fldiv@b+1)),c
  7325  000C30  6E16               	movlw	low highword(normalize32(0x0))
  7326  000C32  0E00               	movwf	((c:___fldiv@b+2)),c
  7327  000C34  6E17               	movlw	high highword(normalize32(0x0))
  7328  000C36  0E00               	movwf	((c:___fldiv@b+3)),c
  7329  000C38  6E18               	goto	l3211
  7330  000C3A  EF1F  F006         	line	38
  7331                           	
  7332                           l946:
  7333  000C3E                     	line	40
  7334                           	
  7335                           l3211:
  7336  000C3E                     	bsf	(0+(23/8)+(c:___fldiv@b)),c,(23)&7
  7337  000C3E  8E17               	line	42
  7338                           	
  7339                           l3213:
  7340  000C40                     	movlw	low(0)
  7341  000C40  0E00               	movwf	(0+((c:___fldiv@b)+03h)),c
  7342  000C42  6E18               	line	43
  7343                           	goto	l3217
  7344  000C44  EF2E  F006         	line	44
  7345                           	
  7346                           l945:
  7347  000C48                     	line	46
  7348                           	
  7349                           l3215:
  7350  000C48                     	movlw	low(normalize32(0x0))
  7351  000C48  0E00               	movwf	((c:___fldiv@b)),c
  7352  000C4A  6E15               	movlw	high(normalize32(0x0))
  7353  000C4C  0E00               	movwf	((c:___fldiv@b+1)),c
  7354  000C4E  6E16               	movlw	low highword(normalize32(0x0))
  7355  000C50  0E00               	movwf	((c:___fldiv@b+2)),c
  7356  000C52  6E17               	movlw	high highword(normalize32(0x0))
  7357  000C54  0E00               	movwf	((c:___fldiv@b+3)),c
  7358  000C56  6E18               	goto	l3217
  7359  000C58  EF2E  F006         	line	47
  7360                           	
  7361                           l947:
  7362  000C5C                     	line	49
  7363                           	
  7364                           l3217:
  7365  000C5C                     	movf	(0+((c:___fldiv@a)+03h)),c,w
  7366  000C5C  501C               	andlw	low(080h)
  7367  000C5E  0B80               	xorwf	((c:___fldiv@sign)),c
  7368  000C60  1A25               	line	50
  7369                           	
  7370                           l3219:
  7371  000C62                     	movf	(0+((c:___fldiv@a)+03h)),c,w
  7372  000C62  501C               	addwf	(0+((c:___fldiv@a)+03h)),c,w
  7373  000C64  241C               	movwf	((c:___fldiv@aexp)),c
  7374  000C66  6E2D               	line	51
  7375                           	
  7376                           l3221:
  7377  000C68                     	
  7378                           	btfss	(0+((c:___fldiv@a)+02h)),c,(7)&7
  7379  000C68  AE1B               	goto	u3791
  7380  000C6A  EF39  F006         	goto	u3790
  7381  000C6E  EF3B  F006         u3791:
  7382  000C72                     	goto	l3225
  7383  000C72  EF3E  F006         u3790:
  7384  000C76                     	line	52
  7385                           	
  7386                           l3223:
  7387  000C76                     	bsf	(0+(0/8)+(c:___fldiv@aexp)),c,(0)&7
  7388  000C76  802D               	goto	l3225
  7389  000C78  EF3E  F006         	line	53
  7390                           	
  7391                           l948:
  7392  000C7C                     	line	56
  7393                           	
  7394                           l3225:
  7395  000C7C                     	movf	((c:___fldiv@aexp)),c,w
  7396  000C7C  502D               	btfsc	status,2
  7397  000C7E  B4D8               	goto	u3801
  7398  000C80  EF44  F006         	goto	u3800
  7399  000C84  EF46  F006         u3801:
  7400  000C88                     	goto	l3235
  7401  000C88  EF5D  F006         u3800:
  7402  000C8C                     	line	58
  7403                           	
  7404                           l3227:
  7405  000C8C                     		incf	((c:___fldiv@aexp)),c,w
  7406  000C8C  282D               	btfss	status,2
  7407  000C8E  A4D8               	goto	u3811
  7408  000C90  EF4C  F006         	goto	u3810
  7409  000C94  EF4E  F006         
  7410                           u3811:
  7411  000C98                     	goto	l3231
  7412  000C98  EF58  F006         u3810:
  7413  000C9C                     	line	60
  7414                           	
  7415                           l3229:
  7416  000C9C                     	movlw	low(normalize32(0x0))
  7417  000C9C  0E00               	movwf	((c:___fldiv@a)),c
  7418  000C9E  6E19               	movlw	high(normalize32(0x0))
  7419  000CA0  0E00               	movwf	((c:___fldiv@a+1)),c
  7420  000CA2  6E1A               	movlw	low highword(normalize32(0x0))
  7421  000CA4  0E00               	movwf	((c:___fldiv@a+2)),c
  7422  000CA6  6E1B               	movlw	high highword(normalize32(0x0))
  7423  000CA8  0E00               	movwf	((c:___fldiv@a+3)),c
  7424  000CAA  6E1C               	goto	l3231
  7425  000CAC  EF58  F006         	line	61
  7426                           	
  7427                           l950:
  7428  000CB0                     	line	63
  7429                           	
  7430                           l3231:
  7431  000CB0                     	bsf	(0+(23/8)+(c:___fldiv@a)),c,(23)&7
  7432  000CB0  8E1B               	line	65
  7433                           	
  7434                           l3233:
  7435  000CB2                     	movlw	low(0)
  7436  000CB2  0E00               	movwf	(0+((c:___fldiv@a)+03h)),c
  7437  000CB4  6E1C               	line	66
  7438                           	goto	l3237
  7439  000CB6  EF67  F006         	line	67
  7440                           	
  7441                           l949:
  7442  000CBA                     	line	69
  7443                           	
  7444                           l3235:
  7445  000CBA                     	movlw	low(normalize32(0x0))
  7446  000CBA  0E00               	movwf	((c:___fldiv@a)),c
  7447  000CBC  6E19               	movlw	high(normalize32(0x0))
  7448  000CBE  0E00               	movwf	((c:___fldiv@a+1)),c
  7449  000CC0  6E1A               	movlw	low highword(normalize32(0x0))
  7450  000CC2  0E00               	movwf	((c:___fldiv@a+2)),c
  7451  000CC4  6E1B               	movlw	high highword(normalize32(0x0))
  7452  000CC6  0E00               	movwf	((c:___fldiv@a+3)),c
  7453  000CC8  6E1C               	goto	l3237
  7454  000CCA  EF67  F006         	line	70
  7455                           	
  7456                           l951:
  7457  000CCE                     	line	75
  7458                           	
  7459                           l3237:
  7460  000CCE                     	movf	((c:___fldiv@a)),c,w
  7461  000CCE  5019               iorwf	((c:___fldiv@a+1)),c,w
  7462  000CD0  101A               iorwf	((c:___fldiv@a+2)),c,w
  7463  000CD2  101B               iorwf	((c:___fldiv@a+3)),c,w
  7464  000CD4  101C               	btfss	status,2
  7465  000CD6  A4D8               	goto	u3821
  7466  000CD8  EF70  F006         	goto	u3820
  7467  000CDC  EF72  F006         
  7468                           u3821:
  7469  000CE0                     	goto	l3249
  7470  000CE0  EF8C  F006         u3820:
  7471  000CE4                     	line	76
  7472                           	
  7473                           l3239:
  7474  000CE4                     	movlw	low(0)
  7475  000CE4  0E00               	movwf	((c:___fldiv@b)),c
  7476  000CE6  6E15               	movlw	high(0)
  7477  000CE8  0E00               	movwf	((c:___fldiv@b+1)),c
  7478  000CEA  6E16               	movlw	low highword(0)
  7479  000CEC  0E00               	movwf	((c:___fldiv@b+2)),c
  7480  000CEE  6E17               	movlw	high highword(0)
  7481  000CF0  0E00               	movwf	((c:___fldiv@b+3)),c
  7482  000CF2  6E18               	line	77
  7483                           	
  7484                           l3241:
  7485  000CF4                     	movlw	low(07F80h)
  7486  000CF4  0E80               	iorwf	(0+((c:___fldiv@b)+02h)),c
  7487  000CF6  1217               	movlw	high(07F80h)
  7488  000CF8  0E7F               	iorwf	(1+((c:___fldiv@b)+02h)),c
  7489  000CFA  1218               	line	78
  7490                           	
  7491                           l3243:
  7492  000CFC                     	movf	((c:___fldiv@sign)),c,w
  7493  000CFC  5025               	iorwf	(0+((c:___fldiv@b)+03h)),c
  7494  000CFE  1218               	line	79
  7495                           	
  7496                           l3245:
  7497  000D00                     	movff	(c:___fldiv@b),(c:?___fldiv)
  7498  000D00  C015  F015         	movff	(c:___fldiv@b+1),(c:?___fldiv+1)
  7499  000D04  C016  F016         	movff	(c:___fldiv@b+2),(c:?___fldiv+2)
  7500  000D08  C017  F017         	movff	(c:___fldiv@b+3),(c:?___fldiv+3)
  7501  000D0C  C018  F018         	goto	l953
  7502  000D10  EF04  F008         	
  7503                           l3247:
  7504  000D14                     	goto	l953
  7505  000D14  EF04  F008         	line	80
  7506                           	
  7507                           l952:
  7508  000D18                     	line	83
  7509                           	
  7510                           l3249:
  7511  000D18                     	movf	((c:___fldiv@bexp)),c,w
  7512  000D18  502C               	btfss	status,2
  7513  000D1A  A4D8               	goto	u3831
  7514  000D1C  EF92  F006         	goto	u3830
  7515  000D20  EF94  F006         u3831:
  7516  000D24                     	goto	l3257
  7517  000D24  EFA8  F006         u3830:
  7518  000D28                     	line	84
  7519                           	
  7520                           l3251:
  7521  000D28                     	movlw	low(0)
  7522  000D28  0E00               	movwf	((c:___fldiv@b)),c
  7523  000D2A  6E15               	movlw	high(0)
  7524  000D2C  0E00               	movwf	((c:___fldiv@b+1)),c
  7525  000D2E  6E16               	movlw	low highword(0)
  7526  000D30  0E00               	movwf	((c:___fldiv@b+2)),c
  7527  000D32  6E17               	movlw	high highword(0)
  7528  000D34  0E00               	movwf	((c:___fldiv@b+3)),c
  7529  000D36  6E18               	line	85
  7530                           	
  7531                           l3253:
  7532  000D38                     	movff	(c:___fldiv@b),(c:?___fldiv)
  7533  000D38  C015  F015         	movff	(c:___fldiv@b+1),(c:?___fldiv+1)
  7534  000D3C  C016  F016         	movff	(c:___fldiv@b+2),(c:?___fldiv+2)
  7535  000D40  C017  F017         	movff	(c:___fldiv@b+3),(c:?___fldiv+3)
  7536  000D44  C018  F018         	goto	l953
  7537  000D48  EF04  F008         	
  7538                           l3255:
  7539  000D4C                     	goto	l953
  7540  000D4C  EF04  F008         	line	86
  7541                           	
  7542                           l954:
  7543  000D50                     	line	89
  7544                           	
  7545                           l3257:
  7546  000D50                     	movf	((c:___fldiv@aexp)),c,w
  7547  000D50  502D               	movwf	(??___fldiv+0+0)&0ffh,c
  7548  000D52  6E1D               	clrf	(??___fldiv+0+0+1)&0ffh,c
  7549  000D54  6A1E               
  7550                           	comf	(??___fldiv+0+0),c
  7551  000D56  1E1D               	comf	(??___fldiv+0+1),c
  7552  000D58  1E1E               	infsnz	(??___fldiv+0+0),c
  7553  000D5A  4A1D               	incf	(??___fldiv+0+1),c
  7554  000D5C  2A1E               	movf	((c:___fldiv@bexp)),c,w
  7555  000D5E  502C               	movwf	(??___fldiv+2+0)&0ffh,c
  7556  000D60  6E1F               	clrf	(??___fldiv+2+0+1)&0ffh,c
  7557  000D62  6A20               
  7558                           	movf	(??___fldiv+0+0),c,w
  7559  000D64  501D               	addwf	(??___fldiv+2+0),c
  7560  000D66  261F               	movf	(??___fldiv+0+1),c,w
  7561  000D68  501E               	addwfc	(??___fldiv+2+1),c
  7562  000D6A  2220               	movlw	low(07Fh)
  7563  000D6C  0E7F               	addwf	(??___fldiv+2+0),c,w
  7564  000D6E  241F               	movwf	((c:___fldiv@new_exp)),c
  7565  000D70  6E26               	movlw	high(07Fh)
  7566  000D72  0E00               	addwfc	(??___fldiv+2+1),c,w
  7567  000D74  2020               	movwf	1+((c:___fldiv@new_exp)),c
  7568  000D76  6E27               	line	92
  7569                           	
  7570                           l3259:
  7571  000D78                     	movff	(c:___fldiv@b),(c:___fldiv@rem)
  7572  000D78  C015  F021         	movff	(c:___fldiv@b+1),(c:___fldiv@rem+1)
  7573  000D7C  C016  F022         	movff	(c:___fldiv@b+2),(c:___fldiv@rem+2)
  7574  000D80  C017  F023         	movff	(c:___fldiv@b+3),(c:___fldiv@rem+3)
  7575  000D84  C018  F024         	line	93
  7576                           	
  7577                           l3261:
  7578  000D88                     	movlw	low(0)
  7579  000D88  0E00               	movwf	((c:___fldiv@b)),c
  7580  000D8A  6E15               	movlw	high(0)
  7581  000D8C  0E00               	movwf	((c:___fldiv@b+1)),c
  7582  000D8E  6E16               	movlw	low highword(0)
  7583  000D90  0E00               	movwf	((c:___fldiv@b+2)),c
  7584  000D92  6E17               	movlw	high highword(0)
  7585  000D94  0E00               	movwf	((c:___fldiv@b+3)),c
  7586  000D96  6E18               	line	94
  7587                           	
  7588                           l3263:
  7589  000D98                     	movlw	low(0)
  7590  000D98  0E00               	movwf	((c:___fldiv@grs)),c
  7591  000D9A  6E28               	movlw	high(0)
  7592  000D9C  0E00               	movwf	((c:___fldiv@grs+1)),c
  7593  000D9E  6E29               	movlw	low highword(0)
  7594  000DA0  0E00               	movwf	((c:___fldiv@grs+2)),c
  7595  000DA2  6E2A               	movlw	high highword(0)
  7596  000DA4  0E00               	movwf	((c:___fldiv@grs+3)),c
  7597  000DA6  6E2B               	line	96
  7598                           	
  7599                           l3265:
  7600  000DA8                     	movlw	low(0)
  7601  000DA8  0E00               	movwf	((c:___fldiv@aexp)),c
  7602  000DAA  6E2D               	line	97
  7603                           	goto	l955
  7604  000DAC  EF14  F007         	
  7605                           l956:
  7606  000DB0                     	line	100
  7607                           	
  7608                           l3267:
  7609  000DB0                     	movf	((c:___fldiv@aexp)),c,w
  7610  000DB0  502D               	btfsc	status,2
  7611  000DB2  B4D8               	goto	u3841
  7612  000DB4  EFDE  F006         	goto	u3840
  7613  000DB8  EFE0  F006         u3841:
  7614  000DBC                     	goto	l3275
  7615  000DBC  EFF9  F006         u3840:
  7616  000DC0                     	line	101
  7617                           	
  7618                           l3269:
  7619  000DC0                     	bcf	status,0
  7620  000DC0  90D8               	rlcf	((c:___fldiv@rem)),c
  7621  000DC2  3621               	rlcf	((c:___fldiv@rem+1)),c
  7622  000DC4  3622               	rlcf	((c:___fldiv@rem+2)),c
  7623  000DC6  3623               	rlcf	((c:___fldiv@rem+3)),c
  7624  000DC8  3624               	line	102
  7625                           	bcf	status,0
  7626  000DCA  90D8               	rlcf	((c:___fldiv@b)),c
  7627  000DCC  3615               	rlcf	((c:___fldiv@b+1)),c
  7628  000DCE  3616               	rlcf	((c:___fldiv@b+2)),c
  7629  000DD0  3617               	rlcf	((c:___fldiv@b+3)),c
  7630  000DD2  3618               	line	103
  7631                           	
  7632                           l3271:
  7633  000DD4                     	
  7634                           	btfss	((c:___fldiv@grs+3)),c,(31)&7
  7635  000DD4  AE2B               	goto	u3851
  7636  000DD6  EFEF  F006         	goto	u3850
  7637  000DDA  EFF1  F006         u3851:
  7638  000DDE                     	goto	l958
  7639  000DDE  EFF2  F006         u3850:
  7640  000DE2                     	line	104
  7641                           	
  7642                           l3273:
  7643  000DE2                     	bsf	(0+(0/8)+(c:___fldiv@b)),c,(0)&7
  7644  000DE2  8015               	line	105
  7645                           	
  7646                           l958:
  7647  000DE4                     	line	106
  7648                           	bcf	status,0
  7649  000DE4  90D8               	rlcf	((c:___fldiv@grs)),c
  7650  000DE6  3628               	rlcf	((c:___fldiv@grs+1)),c
  7651  000DE8  3629               	rlcf	((c:___fldiv@grs+2)),c
  7652  000DEA  362A               	rlcf	((c:___fldiv@grs+3)),c
  7653  000DEC  362B               	goto	l3275
  7654  000DEE  EFF9  F006         	line	107
  7655                           	
  7656                           l957:
  7657  000DF2                     	line	112
  7658                           	
  7659                           l3275:
  7660  000DF2                     		movf	((c:___fldiv@a)),c,w
  7661  000DF2  5019               	subwf	((c:___fldiv@rem)),c,w
  7662  000DF4  5C21               	movf	((c:___fldiv@a+1)),c,w
  7663  000DF6  501A               	subwfb	((c:___fldiv@rem+1)),c,w
  7664  000DF8  5822               	movf	((c:___fldiv@a+2)),c,w
  7665  000DFA  501B               	subwfb	((c:___fldiv@rem+2)),c,w
  7666  000DFC  5823               	movf	((c:___fldiv@a+3)),c,w
  7667  000DFE  501C               	subwfb	((c:___fldiv@rem+3)),c,w
  7668  000E00  5824               	btfss	status,0
  7669  000E02  A0D8               	goto	u3861
  7670  000E04  EF06  F007         	goto	u3860
  7671  000E08  EF08  F007         
  7672                           u3861:
  7673  000E0C                     	goto	l3281
  7674  000E0C  EF13  F007         u3860:
  7675  000E10                     	line	115
  7676                           	
  7677                           l3277:
  7678  000E10                     	bsf	(0+(30/8)+(c:___fldiv@grs)),c,(30)&7
  7679  000E10  8C2B               	line	116
  7680                           	
  7681                           l3279:
  7682  000E12                     	movf	((c:___fldiv@a)),c,w
  7683  000E12  5019               	subwf	((c:___fldiv@rem)),c
  7684  000E14  5E21               	movf	((c:___fldiv@a+1)),c,w
  7685  000E16  501A               	subwfb	((c:___fldiv@rem+1)),c
  7686  000E18  5A22               	movf	((c:___fldiv@a+2)),c,w
  7687  000E1A  501B               	subwfb	((c:___fldiv@rem+2)),c
  7688  000E1C  5A23               	movf	((c:___fldiv@a+3)),c,w
  7689  000E1E  501C               	subwfb	((c:___fldiv@rem+3)),c
  7690  000E20  5A24               	goto	l3281
  7691  000E22  EF13  F007         	line	117
  7692                           	
  7693                           l959:
  7694  000E26                     	line	118
  7695                           	
  7696                           l3281:
  7697  000E26                     	incf	((c:___fldiv@aexp)),c
  7698  000E26  2A2D               	line	119
  7699                           	
  7700                           l955:
  7701  000E28                     	line	97
  7702                           		movlw	01Ah-1
  7703  000E28  0E19               	cpfsgt	((c:___fldiv@aexp)),c
  7704  000E2A  642D               	goto	u3871
  7705  000E2C  EF1A  F007         	goto	u3870
  7706  000E30  EF1C  F007         
  7707                           u3871:
  7708  000E34                     	goto	l3267
  7709  000E34  EFD8  F006         u3870:
  7710  000E38                     	goto	l3283
  7711  000E38  EF1E  F007         	
  7712                           l960:
  7713  000E3C                     	line	122
  7714                           	
  7715                           l3283:
  7716  000E3C                     	movf	((c:___fldiv@rem)),c,w
  7717  000E3C  5021               iorwf	((c:___fldiv@rem+1)),c,w
  7718  000E3E  1022               iorwf	((c:___fldiv@rem+2)),c,w
  7719  000E40  1023               iorwf	((c:___fldiv@rem+3)),c,w
  7720  000E42  1024               	btfsc	status,2
  7721  000E44  B4D8               	goto	u3881
  7722  000E46  EF27  F007         	goto	u3880
  7723  000E4A  EF29  F007         
  7724                           u3881:
  7725  000E4E                     	goto	l3293
  7726  000E4E  EF45  F007         u3880:
  7727  000E52                     	line	123
  7728                           	
  7729                           l3285:
  7730  000E52                     	bsf	(0+(0/8)+(c:___fldiv@grs)),c,(0)&7
  7731  000E52  8028               	goto	l3293
  7732  000E54  EF45  F007         	line	124
  7733                           	
  7734                           l961:
  7735  000E58                     	line	127
  7736                           	goto	l3293
  7737  000E58  EF45  F007         	
  7738                           l963:
  7739  000E5C                     	line	128
  7740                           	
  7741                           l3287:
  7742  000E5C                     	bcf	status,0
  7743  000E5C  90D8               	rlcf	((c:___fldiv@b)),c
  7744  000E5E  3615               	rlcf	((c:___fldiv@b+1)),c
  7745  000E60  3616               	rlcf	((c:___fldiv@b+2)),c
  7746  000E62  3617               	rlcf	((c:___fldiv@b+3)),c
  7747  000E64  3618               	line	129
  7748                           	
  7749                           l3289:
  7750  000E66                     	
  7751                           	btfss	((c:___fldiv@grs+3)),c,(31)&7
  7752  000E66  AE2B               	goto	u3891
  7753  000E68  EF38  F007         	goto	u3890
  7754  000E6C  EF3A  F007         u3891:
  7755  000E70                     	goto	l964
  7756  000E70  EF3B  F007         u3890:
  7757  000E74                     	line	130
  7758                           	
  7759                           l3291:
  7760  000E74                     	bsf	(0+(0/8)+(c:___fldiv@b)),c,(0)&7
  7761  000E74  8015               	line	131
  7762                           	
  7763                           l964:
  7764  000E76                     	line	132
  7765                           	bcf	status,0
  7766  000E76  90D8               	rlcf	((c:___fldiv@grs)),c
  7767  000E78  3628               	rlcf	((c:___fldiv@grs+1)),c
  7768  000E7A  3629               	rlcf	((c:___fldiv@grs+2)),c
  7769  000E7C  362A               	rlcf	((c:___fldiv@grs+3)),c
  7770  000E7E  362B               	line	133
  7771                           	decf	((c:___fldiv@new_exp)),c
  7772  000E80  0626               	btfss	status,0
  7773  000E82  A0D8               	decf	((c:___fldiv@new_exp+1)),c
  7774  000E84  0627               	goto	l3293
  7775  000E86  EF45  F007         	line	134
  7776                           	
  7777                           l962:
  7778  000E8A                     	line	127
  7779                           	
  7780                           l3293:
  7781  000E8A                     	
  7782                           	btfss	((c:___fldiv@b+2)),c,(23)&7
  7783  000E8A  AE17               	goto	u3901
  7784  000E8C  EF4A  F007         	goto	u3900
  7785  000E90  EF4C  F007         u3901:
  7786  000E94                     	goto	l3287
  7787  000E94  EF2E  F007         u3900:
  7788  000E98                     	goto	l3295
  7789  000E98  EF4E  F007         	
  7790                           l965:
  7791  000E9C                     	line	139
  7792                           	
  7793                           l3295:
  7794  000E9C                     	movlw	low(0)
  7795  000E9C  0E00               	movwf	((c:___fldiv@aexp)),c
  7796  000E9E  6E2D               	line	140
  7797                           	
  7798                           l3297:
  7799  000EA0                     	
  7800                           	btfss	((c:___fldiv@grs+3)),c,(31)&7
  7801  000EA0  AE2B               	goto	u3911
  7802  000EA2  EF55  F007         	goto	u3910
  7803  000EA6  EF57  F007         u3911:
  7804  000EAA                     	goto	l966
  7805  000EAA  EF7F  F007         u3910:
  7806  000EAE                     	line	141
  7807                           	
  7808                           l3299:
  7809  000EAE                     	movlw	0FFh
  7810  000EAE  0EFF               	andwf	((c:___fldiv@grs)),c,w
  7811  000EB0  1428               	movwf	(??___fldiv+0+0)&0ffh,c
  7812  000EB2  6E1D               	movlw	0FFh
  7813  000EB4  0EFF               	andwf	((c:___fldiv@grs+1)),c,w
  7814  000EB6  1429               	movwf	1+(??___fldiv+0+0)&0ffh,c
  7815  000EB8  6E1E               	
  7816                           	movlw	0FFh
  7817  000EBA  0EFF               	andwf	((c:___fldiv@grs+2)),c,w
  7818  000EBC  142A               	movwf	2+(??___fldiv+0+0)&0ffh,c
  7819  000EBE  6E1F               	
  7820                           	movlw	07Fh
  7821  000EC0  0E7F               	andwf	((c:___fldiv@grs+3)),c,w
  7822  000EC2  142B               	movwf	3+(??___fldiv+0+0)&0ffh,c
  7823  000EC4  6E20               	movf	(??___fldiv+0+0),c,w
  7824  000EC6  501D               iorwf	(??___fldiv+0+1),c,w
  7825  000EC8  101E               iorwf	(??___fldiv+0+2),c,w
  7826  000ECA  101F               iorwf	(??___fldiv+0+3),c,w
  7827  000ECC  1020               	btfsc	status,2
  7828  000ECE  B4D8               	goto	u3921
  7829  000ED0  EF6C  F007         	goto	u3920
  7830  000ED4  EF6E  F007         
  7831                           u3921:
  7832  000ED8                     	goto	l967
  7833  000ED8  EF72  F007         u3920:
  7834  000EDC                     	line	142
  7835                           	
  7836                           l3301:
  7837  000EDC                     	movlw	low(01h)
  7838  000EDC  0E01               	movwf	((c:___fldiv@aexp)),c
  7839  000EDE  6E2D               	line	143
  7840                           	goto	l966
  7841  000EE0  EF7F  F007         	line	144
  7842                           	
  7843                           l967:
  7844  000EE4                     	line	145
  7845                           	
  7846                           	btfss	((c:___fldiv@b)),c,(0)&7
  7847  000EE4  A015               	goto	u3931
  7848  000EE6  EF77  F007         	goto	u3930
  7849  000EEA  EF79  F007         u3931:
  7850  000EEE                     	goto	l966
  7851  000EEE  EF7F  F007         u3930:
  7852  000EF2                     	line	146
  7853                           	
  7854                           l3303:
  7855  000EF2                     	movlw	low(01h)
  7856  000EF2  0E01               	movwf	((c:___fldiv@aexp)),c
  7857  000EF4  6E2D               	goto	l966
  7858  000EF6  EF7F  F007         	line	147
  7859                           	
  7860                           l969:
  7861  000EFA                     	goto	l966
  7862  000EFA  EF7F  F007         	line	148
  7863                           	
  7864                           l968:
  7865  000EFE                     	line	149
  7866                           	
  7867                           l966:
  7868  000EFE                     	line	150
  7869                           	movf	((c:___fldiv@aexp)),c,w
  7870  000EFE  502D               	btfsc	status,2
  7871  000F00  B4D8               	goto	u3941
  7872  000F02  EF85  F007         	goto	u3940
  7873  000F06  EF87  F007         u3941:
  7874  000F0A                     	goto	l3313
  7875  000F0A  EFAF  F007         u3940:
  7876  000F0E                     	line	151
  7877                           	
  7878                           l3305:
  7879  000F0E                     	movlw	low(01h)
  7880  000F0E  0E01               	addwf	((c:___fldiv@b)),c
  7881  000F10  2615               	movlw	0
  7882  000F12  0E00               	addwfc	((c:___fldiv@b+1)),c
  7883  000F14  2216               	addwfc	((c:___fldiv@b+2)),c
  7884  000F16  2217               	addwfc	((c:___fldiv@b+3)),c
  7885  000F18  2218               	line	152
  7886                           	
  7887                           l3307:
  7888  000F1A                     	
  7889                           	btfss	((c:___fldiv@b+3)),c,(24)&7
  7890  000F1A  A018               	goto	u3951
  7891  000F1C  EF92  F007         	goto	u3950
  7892  000F20  EF94  F007         u3951:
  7893  000F24                     	goto	l3313
  7894  000F24  EFAF  F007         u3950:
  7895  000F28                     	line	153
  7896                           	
  7897                           l3309:
  7898  000F28                     	movff	(c:___fldiv@b),??___fldiv+0+0
  7899  000F28  C015  F01D         	movff	(c:___fldiv@b+1),??___fldiv+0+0+1
  7900  000F2C  C016  F01E         	movff	(c:___fldiv@b+2),??___fldiv+0+0+2
  7901  000F30  C017  F01F         	movff	(c:___fldiv@b+3),??___fldiv+0+0+3
  7902  000F34  C018  F020         	rlcf	(??___fldiv+0+3),c,w
  7903  000F38  3420               	rrcf	(??___fldiv+0+3),c
  7904  000F3A  3220               	rrcf	(??___fldiv+0+2),c
  7905  000F3C  321F               	rrcf	(??___fldiv+0+1),c
  7906  000F3E  321E               	rrcf	(??___fldiv+0+0),c
  7907  000F40  321D               	movff	??___fldiv+0+0,(c:___fldiv@b)
  7908  000F42  C01D  F015         	movff	??___fldiv+0+1,(c:___fldiv@b+1)
  7909  000F46  C01E  F016         	movff	??___fldiv+0+2,(c:___fldiv@b+2)
  7910  000F4A  C01F  F017         	movff	??___fldiv+0+3,(c:___fldiv@b+3)
  7911  000F4E  C020  F018         	line	154
  7912                           	
  7913                           l3311:
  7914  000F52                     	infsnz	((c:___fldiv@new_exp)),c
  7915  000F52  4A26               	incf	((c:___fldiv@new_exp+1)),c
  7916  000F54  2A27               	goto	l3313
  7917  000F56  EFAF  F007         	line	155
  7918                           	
  7919                           l971:
  7920  000F5A                     	goto	l3313
  7921  000F5A  EFAF  F007         	line	156
  7922                           	
  7923                           l970:
  7924  000F5E                     	line	159
  7925                           	
  7926                           l3313:
  7927  000F5E                     	btfsc	((c:___fldiv@new_exp+1)),c,7
  7928  000F5E  BE27               	goto	u3961
  7929  000F60  EFBA  F007         	movf	((c:___fldiv@new_exp+1)),c,w
  7930  000F64  5027               	bnz	u3960
  7931  000F66  E108               	incf	((c:___fldiv@new_exp)),c,w
  7932  000F68  2826               	btfss	status,0
  7933  000F6A  A0D8               	goto	u3961
  7934  000F6C  EFBA  F007         	goto	u3960
  7935  000F70  EFBC  F007         
  7936                           u3961:
  7937  000F74                     	goto	l3317
  7938  000F74  EFC9  F007         u3960:
  7939  000F78                     	line	160
  7940                           	
  7941                           l3315:
  7942  000F78                     	movlw	high(0FFh)
  7943  000F78  0E00               	movwf	((c:___fldiv@new_exp+1)),c
  7944  000F7A  6E27               	setf	((c:___fldiv@new_exp)),c
  7945  000F7C  6826               	line	161
  7946                           	movlw	low(0)
  7947  000F7E  0E00               	movwf	((c:___fldiv@b)),c
  7948  000F80  6E15               	movlw	high(0)
  7949  000F82  0E00               	movwf	((c:___fldiv@b+1)),c
  7950  000F84  6E16               	movlw	low highword(0)
  7951  000F86  0E00               	movwf	((c:___fldiv@b+2)),c
  7952  000F88  6E17               	movlw	high highword(0)
  7953  000F8A  0E00               	movwf	((c:___fldiv@b+3)),c
  7954  000F8C  6E18               	goto	l3317
  7955  000F8E  EFC9  F007         	line	162
  7956                           	
  7957                           l972:
  7958  000F92                     	line	165
  7959                           	
  7960                           l3317:
  7961  000F92                     	btfsc	((c:___fldiv@new_exp+1)),c,7
  7962  000F92  BE27               	goto	u3970
  7963  000F94  EFD6  F007         	movf	((c:___fldiv@new_exp+1)),c,w
  7964  000F98  5027               	bnz	u3971
  7965  000F9A  E106               	decf	((c:___fldiv@new_exp)),c,w
  7966  000F9C  0426               	btfsc	status,0
  7967  000F9E  B0D8               	goto	u3971
  7968  000FA0  EFD4  F007         	goto	u3970
  7969  000FA4  EFD6  F007         
  7970                           u3971:
  7971  000FA8                     	goto	l3321
  7972  000FA8  EFE6  F007         u3970:
  7973  000FAC                     	line	166
  7974                           	
  7975                           l3319:
  7976  000FAC                     	movlw	high(0)
  7977  000FAC  0E00               	movwf	((c:___fldiv@new_exp+1)),c
  7978  000FAE  6E27               	movlw	low(0)
  7979  000FB0  0E00               	movwf	((c:___fldiv@new_exp)),c
  7980  000FB2  6E26               	line	167
  7981                           	movlw	low(0)
  7982  000FB4  0E00               	movwf	((c:___fldiv@b)),c
  7983  000FB6  6E15               	movlw	high(0)
  7984  000FB8  0E00               	movwf	((c:___fldiv@b+1)),c
  7985  000FBA  6E16               	movlw	low highword(0)
  7986  000FBC  0E00               	movwf	((c:___fldiv@b+2)),c
  7987  000FBE  6E17               	movlw	high highword(0)
  7988  000FC0  0E00               	movwf	((c:___fldiv@b+3)),c
  7989  000FC2  6E18               	line	169
  7990                           	movlw	low(0)
  7991  000FC4  0E00               	movwf	((c:___fldiv@sign)),c
  7992  000FC6  6E25               	goto	l3321
  7993  000FC8  EFE6  F007         	line	170
  7994                           	
  7995                           l973:
  7996  000FCC                     	line	173
  7997                           	
  7998                           l3321:
  7999  000FCC                     	movff	(c:___fldiv@new_exp),(c:___fldiv@bexp)
  8000  000FCC  C026  F02C         	line	175
  8001                           	
  8002                           l3323:
  8003  000FD0                     	
  8004                           	btfss	((c:___fldiv@bexp)),c,(0)&7
  8005  000FD0  A02C               	goto	u3981
  8006  000FD2  EFED  F007         	goto	u3980
  8007  000FD6  EFEF  F007         u3981:
  8008  000FDA                     	goto	l3327
  8009  000FDA  EFF2  F007         u3980:
  8010  000FDE                     	line	176
  8011                           	
  8012                           l3325:
  8013  000FDE                     	bsf	(0+(7/8)+0+((c:___fldiv@b)+02h)),c,(7)&7
  8014  000FDE  8E17               	line	177
  8015                           	goto	l3329
  8016  000FE0  EFF5  F007         	line	179
  8017                           	
  8018                           l974:
  8019  000FE4                     	line	180
  8020                           	
  8021                           l3327:
  8022  000FE4                     	bcf	(0+(7/8)+0+((c:___fldiv@b)+02h)),c,(7)&7
  8023  000FE4  9E17               	goto	l3329
  8024  000FE6  EFF5  F007         	line	181
  8025                           	
  8026                           l975:
  8027  000FEA                     	line	182
  8028                           	
  8029                           l3329:
  8030  000FEA                     	bcf	status,0
  8031  000FEA  90D8               	rrcf	((c:___fldiv@bexp)),c,w
  8032  000FEC  302C               	movwf	(0+((c:___fldiv@b)+03h)),c
  8033  000FEE  6E18               	line	183
  8034                           	
  8035                           l3331:
  8036  000FF0                     	movf	((c:___fldiv@sign)),c,w
  8037  000FF0  5025               	iorwf	(0+((c:___fldiv@b)+03h)),c
  8038  000FF2  1218               	line	184
  8039                           	
  8040                           l3333:
  8041  000FF4                     	movff	(c:___fldiv@b),(c:?___fldiv)
  8042  000FF4  C015  F015         	movff	(c:___fldiv@b+1),(c:?___fldiv+1)
  8043  000FF8  C016  F016         	movff	(c:___fldiv@b+2),(c:?___fldiv+2)
  8044  000FFC  C017  F017         	movff	(c:___fldiv@b+3),(c:?___fldiv+3)
  8045  001000  C018  F018         	goto	l953
  8046  001004  EF04  F008         	
  8047                           l3335:
  8048  001008                     	line	185
  8049                           	
  8050                           l953:
  8051  001008                     	return	;funcret
  8052  001008  0012               	opt stack 0
  8053                           GLOBAL	__end_of___fldiv
  8054                           	__end_of___fldiv:
  8055  00100A                     	signat	___fldiv,8316
  8056                           	global	___fladd
  8057                           
  8058 ;; *************** function ___fladd *****************
  8059 ;; Defined at:
  8060 ;;		line 10 in file "C:\Program Files (x86)\Microchip\xc8\v2.00\pic\sources\c99\common\sprcadd.c"
  8061 ;; Parameters:    Size  Location     Type
  8062 ;;  b               4   45[COMRAM] unsigned char 
  8063 ;;  a               4   49[COMRAM] unsigned char 
  8064 ;; Auto vars:     Size  Location     Type
  8065 ;;  grs             1   64[COMRAM] unsigned char 
  8066 ;;  bexp            1   63[COMRAM] unsigned char 
  8067 ;;  aexp            1   62[COMRAM] unsigned char 
  8068 ;;  signs           1   61[COMRAM] unsigned char 
  8069 ;; Return value:  Size  Location     Type
  8070 ;;                  4   45[COMRAM] unsigned char 
  8071 ;; Registers used:
  8072 ;;		wreg, status,2, status,0
  8073 ;; Tracked objects:
  8074 ;;		On entry : 0/0
  8075 ;;		On exit  : 0/0
  8076 ;;		Unchanged: 0/0
  8077 ;; Data sizes:     COMRAM   BANK0   BANK1   BANK2   BANK3   BANK4   BANK5
  8078 ;;      Params:         8       0       0       0       0       0       0
  8079 ;;      Locals:         4       0       0       0       0       0       0
  8080 ;;      Temps:          8       0       0       0       0       0       0
  8081 ;;      Totals:        20       0       0       0       0       0       0
  8082 ;;Total ram usage:       20 bytes
  8083 ;; Hardware stack levels used:    1
  8084 ;; Hardware stack levels required when called:    1
  8085 ;; This function calls:
  8086 ;;		Nothing
  8087 ;; This function is called by:
  8088 ;;		_USART_Init
  8089 ;; This function uses a non-reentrant model
  8090 ;;
  8091                           psect	text19,class=CODE,space=0,reloc=2,group=1
  8092                           	file	"C:\Program Files (x86)\Microchip\xc8\v2.00\pic\sources\c99\common\sprcadd.c"
  8093                           	line	10
  8094                           global __ptext19
  8095                           __ptext19:
  8096  000666                     psect	text19
  8097                           	file	"C:\Program Files (x86)\Microchip\xc8\v2.00\pic\sources\c99\common\sprcadd.c"
  8098                           	line	10
  8099                           	global	__size_of___fladd
  8100                           	__size_of___fladd	equ	__end_of___fladd-___fladd
  8101  0000                     	
  8102                           ___fladd:
  8103  000666                     ;incstack = 0
  8104                           	opt	stack 28
  8105                           	line	21
  8106                           	
  8107                           l2997:
  8108  000666                     	movf	(0+((c:___fladd@b)+03h)),c,w
  8109  000666  5031               	andlw	low(080h)
  8110  000668  0B80               	movwf	((c:___fladd@signs)),c
  8111  00066A  6E3E               	line	22
  8112                           	movf	(0+((c:___fladd@b)+03h)),c,w
  8113  00066C  5031               	addwf	(0+((c:___fladd@b)+03h)),c,w
  8114  00066E  2431               	movwf	((c:___fladd@bexp)),c
  8115  000670  6E40               	line	23
  8116                           	
  8117                           l2999:
  8118  000672                     	
  8119                           	btfss	(0+((c:___fladd@b)+02h)),c,(7)&7
  8120  000672  AE30               	goto	u3371
  8121  000674  EF3E  F003         	goto	u3370
  8122  000678  EF40  F003         u3371:
  8123  00067C                     	goto	l3003
  8124  00067C  EF43  F003         u3370:
  8125  000680                     	line	24
  8126                           	
  8127                           l3001:
  8128  000680                     	bsf	(0+(0/8)+(c:___fladd@bexp)),c,(0)&7
  8129  000680  8040               	goto	l3003
  8130  000682  EF43  F003         	line	25
  8131                           	
  8132                           l887:
  8133  000686                     	line	28
  8134                           	
  8135                           l3003:
  8136  000686                     	movf	((c:___fladd@bexp)),c,w
  8137  000686  5040               	btfsc	status,2
  8138  000688  B4D8               	goto	u3381
  8139  00068A  EF49  F003         	goto	u3380
  8140  00068E  EF4B  F003         u3381:
  8141  000692                     	goto	l3013
  8142  000692  EF62  F003         u3380:
  8143  000696                     	line	30
  8144                           	
  8145                           l3005:
  8146  000696                     		incf	((c:___fladd@bexp)),c,w
  8147  000696  2840               	btfss	status,2
  8148  000698  A4D8               	goto	u3391
  8149  00069A  EF51  F003         	goto	u3390
  8150  00069E  EF53  F003         
  8151                           u3391:
  8152  0006A2                     	goto	l3009
  8153  0006A2  EF5D  F003         u3390:
  8154  0006A6                     	line	32
  8155                           	
  8156                           l3007:
  8157  0006A6                     	movlw	low(normalize32(0x0))
  8158  0006A6  0E00               	movwf	((c:___fladd@b)),c
  8159  0006A8  6E2E               	movlw	high(normalize32(0x0))
  8160  0006AA  0E00               	movwf	((c:___fladd@b+1)),c
  8161  0006AC  6E2F               	movlw	low highword(normalize32(0x0))
  8162  0006AE  0E00               	movwf	((c:___fladd@b+2)),c
  8163  0006B0  6E30               	movlw	high highword(normalize32(0x0))
  8164  0006B2  0E00               	movwf	((c:___fladd@b+3)),c
  8165  0006B4  6E31               	goto	l3009
  8166  0006B6  EF5D  F003         	line	33
  8167                           	
  8168                           l889:
  8169  0006BA                     	line	35
  8170                           	
  8171                           l3009:
  8172  0006BA                     	bsf	(0+(23/8)+(c:___fladd@b)),c,(23)&7
  8173  0006BA  8E30               	line	37
  8174                           	
  8175                           l3011:
  8176  0006BC                     	movlw	low(0)
  8177  0006BC  0E00               	movwf	(0+((c:___fladd@b)+03h)),c
  8178  0006BE  6E31               	line	38
  8179                           	goto	l3015
  8180  0006C0  EF6C  F003         	line	39
  8181                           	
  8182                           l888:
  8183  0006C4                     	line	41
  8184                           	
  8185                           l3013:
  8186  0006C4                     	movlw	low(normalize32(0x0))
  8187  0006C4  0E00               	movwf	((c:___fladd@b)),c
  8188  0006C6  6E2E               	movlw	high(normalize32(0x0))
  8189  0006C8  0E00               	movwf	((c:___fladd@b+1)),c
  8190  0006CA  6E2F               	movlw	low highword(normalize32(0x0))
  8191  0006CC  0E00               	movwf	((c:___fladd@b+2)),c
  8192  0006CE  6E30               	movlw	high highword(normalize32(0x0))
  8193  0006D0  0E00               	movwf	((c:___fladd@b+3)),c
  8194  0006D2  6E31               	goto	l3015
  8195  0006D4  EF6C  F003         	line	42
  8196                           	
  8197                           l890:
  8198  0006D8                     	line	44
  8199                           	
  8200                           l3015:
  8201  0006D8                     	movf	(0+((c:___fladd@a)+03h)),c,w
  8202  0006D8  5035               	andlw	low(080h)
  8203  0006DA  0B80               	movwf	((c:___fladd@aexp)),c
  8204  0006DC  6E3F               	line	46
  8205                           	
  8206                           l3017:
  8207  0006DE                     	movf	((c:___fladd@signs)),c,w
  8208  0006DE  503E               xorwf	((c:___fladd@aexp)),c,w
  8209  0006E0  183F               	btfsc	status,2
  8210  0006E2  B4D8               	goto	u3401
  8211  0006E4  EF76  F003         	goto	u3400
  8212  0006E8  EF78  F003         
  8213                           u3401:
  8214  0006EC                     	goto	l3021
  8215  0006EC  EF7B  F003         u3400:
  8216  0006F0                     	line	47
  8217                           	
  8218                           l3019:
  8219  0006F0                     	bsf	(0+(6/8)+(c:___fladd@signs)),c,(6)&7
  8220  0006F0  8C3E               	goto	l3021
  8221  0006F2  EF7B  F003         	line	48
  8222                           	
  8223                           l891:
  8224  0006F6                     	line	49
  8225                           	
  8226                           l3021:
  8227  0006F6                     	movf	(0+((c:___fladd@a)+03h)),c,w
  8228  0006F6  5035               	addwf	(0+((c:___fladd@a)+03h)),c,w
  8229  0006F8  2435               	movwf	((c:___fladd@aexp)),c
  8230  0006FA  6E3F               	line	50
  8231                           	
  8232                           l3023:
  8233  0006FC                     	
  8234                           	btfss	(0+((c:___fladd@a)+02h)),c,(7)&7
  8235  0006FC  AE34               	goto	u3411
  8236  0006FE  EF83  F003         	goto	u3410
  8237  000702  EF85  F003         u3411:
  8238  000706                     	goto	l3027
  8239  000706  EF88  F003         u3410:
  8240  00070A                     	line	51
  8241                           	
  8242                           l3025:
  8243  00070A                     	bsf	(0+(0/8)+(c:___fladd@aexp)),c,(0)&7
  8244  00070A  803F               	goto	l3027
  8245  00070C  EF88  F003         	line	52
  8246                           	
  8247                           l892:
  8248  000710                     	line	55
  8249                           	
  8250                           l3027:
  8251  000710                     	movf	((c:___fladd@aexp)),c,w
  8252  000710  503F               	btfsc	status,2
  8253  000712  B4D8               	goto	u3421
  8254  000714  EF8E  F003         	goto	u3420
  8255  000718  EF90  F003         u3421:
  8256  00071C                     	goto	l3037
  8257  00071C  EFA7  F003         u3420:
  8258  000720                     	line	57
  8259                           	
  8260                           l3029:
  8261  000720                     		incf	((c:___fladd@aexp)),c,w
  8262  000720  283F               	btfss	status,2
  8263  000722  A4D8               	goto	u3431
  8264  000724  EF96  F003         	goto	u3430
  8265  000728  EF98  F003         
  8266                           u3431:
  8267  00072C                     	goto	l3033
  8268  00072C  EFA2  F003         u3430:
  8269  000730                     	line	59
  8270                           	
  8271                           l3031:
  8272  000730                     	movlw	low(normalize32(0x0))
  8273  000730  0E00               	movwf	((c:___fladd@a)),c
  8274  000732  6E32               	movlw	high(normalize32(0x0))
  8275  000734  0E00               	movwf	((c:___fladd@a+1)),c
  8276  000736  6E33               	movlw	low highword(normalize32(0x0))
  8277  000738  0E00               	movwf	((c:___fladd@a+2)),c
  8278  00073A  6E34               	movlw	high highword(normalize32(0x0))
  8279  00073C  0E00               	movwf	((c:___fladd@a+3)),c
  8280  00073E  6E35               	goto	l3033
  8281  000740  EFA2  F003         	line	60
  8282                           	
  8283                           l894:
  8284  000744                     	line	62
  8285                           	
  8286                           l3033:
  8287  000744                     	bsf	(0+(23/8)+(c:___fladd@a)),c,(23)&7
  8288  000744  8E34               	line	64
  8289                           	
  8290                           l3035:
  8291  000746                     	movlw	low(0)
  8292  000746  0E00               	movwf	(0+((c:___fladd@a)+03h)),c
  8293  000748  6E35               	line	65
  8294                           	goto	l3039
  8295  00074A  EFB1  F003         	line	66
  8296                           	
  8297                           l893:
  8298  00074E                     	line	68
  8299                           	
  8300                           l3037:
  8301  00074E                     	movlw	low(normalize32(0x0))
  8302  00074E  0E00               	movwf	((c:___fladd@a)),c
  8303  000750  6E32               	movlw	high(normalize32(0x0))
  8304  000752  0E00               	movwf	((c:___fladd@a+1)),c
  8305  000754  6E33               	movlw	low highword(normalize32(0x0))
  8306  000756  0E00               	movwf	((c:___fladd@a+2)),c
  8307  000758  6E34               	movlw	high highword(normalize32(0x0))
  8308  00075A  0E00               	movwf	((c:___fladd@a+3)),c
  8309  00075C  6E35               	goto	l3039
  8310  00075E  EFB1  F003         	line	69
  8311                           	
  8312                           l895:
  8313  000762                     	line	75
  8314                           	
  8315                           l3039:
  8316  000762                     		movf	((c:___fladd@bexp)),c,w
  8317  000762  5040               	subwf	((c:___fladd@aexp)),c,w
  8318  000764  5C3F               	btfsc	status,0
  8319  000766  B0D8               	goto	u3441
  8320  000768  EFB8  F003         	goto	u3440
  8321  00076C  EFBA  F003         
  8322                           u3441:
  8323  000770                     	goto	l3075
  8324  000770  EFE5  F003         u3440:
  8325  000774                     	line	77
  8326                           	
  8327                           l3041:
  8328  000774                     	
  8329                           	btfss	((c:___fladd@signs)),c,(6)&7
  8330  000774  AC3E               	goto	u3451
  8331  000776  EFBF  F003         	goto	u3450
  8332  00077A  EFC1  F003         u3451:
  8333  00077E                     	goto	l3045
  8334  00077E  EFC5  F003         u3450:
  8335  000782                     	line	78
  8336                           	
  8337                           l3043:
  8338  000782                     	movlw	(080h)&0ffh
  8339  000782  0E80               	xorwf	((c:___fladd@signs)),c
  8340  000784  1A3E               	goto	l3045
  8341  000786  EFC5  F003         	line	79
  8342                           	
  8343                           l897:
  8344  00078A                     	line	81
  8345                           	
  8346                           l3045:
  8347  00078A                     	movff	(c:___fladd@bexp),(c:___fladd@grs)
  8348  00078A  C040  F041         	line	82
  8349                           	
  8350                           l3047:
  8351  00078E                     	movff	(c:___fladd@aexp),(c:___fladd@bexp)
  8352  00078E  C03F  F040         	line	83
  8353                           	
  8354                           l3049:
  8355  000792                     	movff	(c:___fladd@grs),(c:___fladd@aexp)
  8356  000792  C041  F03F         	line	84
  8357                           	
  8358                           l3051:
  8359  000796                     	movff	(c:___fladd@b),(c:___fladd@grs)
  8360  000796  C02E  F041         	line	85
  8361                           	
  8362                           l3053:
  8363  00079A                     	movff	(c:___fladd@a),(c:___fladd@b)
  8364  00079A  C032  F02E         	line	86
  8365                           	
  8366                           l3055:
  8367  00079E                     	movff	(c:___fladd@grs),(c:___fladd@a)
  8368  00079E  C041  F032         	line	87
  8369                           	
  8370                           l3057:
  8371  0007A2                     	movff	0+((c:___fladd@b)+01h),(c:___fladd@grs)
  8372  0007A2  C02F  F041         	line	88
  8373                           	
  8374                           l3059:
  8375  0007A6                     	movff	0+((c:___fladd@a)+01h),0+((c:___fladd@b)+01h)
  8376  0007A6  C033  F02F         	line	89
  8377                           	
  8378                           l3061:
  8379  0007AA                     	movff	(c:___fladd@grs),0+((c:___fladd@a)+01h)
  8380  0007AA  C041  F033         	line	90
  8381                           	
  8382                           l3063:
  8383  0007AE                     	movff	0+((c:___fladd@b)+02h),(c:___fladd@grs)
  8384  0007AE  C030  F041         	line	91
  8385                           	
  8386                           l3065:
  8387  0007B2                     	movff	0+((c:___fladd@a)+02h),0+((c:___fladd@b)+02h)
  8388  0007B2  C034  F030         	line	92
  8389                           	
  8390                           l3067:
  8391  0007B6                     	movff	(c:___fladd@grs),0+((c:___fladd@a)+02h)
  8392  0007B6  C041  F034         	line	93
  8393                           	
  8394                           l3069:
  8395  0007BA                     	movff	0+((c:___fladd@b)+03h),(c:___fladd@grs)
  8396  0007BA  C031  F041         	line	94
  8397                           	
  8398                           l3071:
  8399  0007BE                     	movff	0+((c:___fladd@a)+03h),0+((c:___fladd@b)+03h)
  8400  0007BE  C035  F031         	line	95
  8401                           	
  8402                           l3073:
  8403  0007C2                     	movff	(c:___fladd@grs),0+((c:___fladd@a)+03h)
  8404  0007C2  C041  F035         	goto	l3075
  8405  0007C6  EFE5  F003         	line	96
  8406                           	
  8407                           l896:
  8408  0007CA                     	line	98
  8409                           	
  8410                           l3075:
  8411  0007CA                     	movlw	low(0)
  8412  0007CA  0E00               	movwf	((c:___fladd@grs)),c
  8413  0007CC  6E41               	line	100
  8414                           	
  8415                           l3077:
  8416  0007CE                     	movf	((c:___fladd@bexp)),c,w
  8417  0007CE  5040               	movwf	(??___fladd+0+0)&0ffh,c
  8418  0007D0  6E36               	clrf	(??___fladd+0+0+1)&0ffh,c
  8419  0007D2  6A37               
  8420                           	comf	(??___fladd+0+0),c
  8421  0007D4  1E36               	comf	(??___fladd+0+1),c
  8422  0007D6  1E37               	infsnz	(??___fladd+0+0),c
  8423  0007D8  4A36               	incf	(??___fladd+0+1),c
  8424  0007DA  2A37               	movf	((c:___fladd@aexp)),c,w
  8425  0007DC  503F               	movwf	(??___fladd+2+0)&0ffh,c
  8426  0007DE  6E38               	clrf	(??___fladd+2+0+1)&0ffh,c
  8427  0007E0  6A39               
  8428                           	movf	(??___fladd+0+0),c,w
  8429  0007E2  5036               	addwf	(??___fladd+2+0),c
  8430  0007E4  2638               	movf	(??___fladd+0+1),c,w
  8431  0007E6  5037               	addwfc	(??___fladd+2+1),c
  8432  0007E8  2239               	btfsc	(??___fladd+2+1),c,7
  8433  0007EA  BE39               	goto	u3461
  8434  0007EC  EF01  F004         	movf	(??___fladd+2+1),c,w
  8435  0007F0  5039               	bnz	u3460
  8436  0007F2  E109               	movlw	26
  8437  0007F4  0E1A               	subwf	 (??___fladd+2+0),c,w
  8438  0007F6  5C38               	btfss	status,0
  8439  0007F8  A0D8               	goto	u3461
  8440  0007FA  EF01  F004         	goto	u3460
  8441  0007FE  EF03  F004         
  8442                           u3461:
  8443  000802                     	goto	l900
  8444  000802  EF40  F004         u3460:
  8445  000806                     	line	101
  8446                           	
  8447                           l3079:
  8448  000806                     	movf	((c:___fladd@b)),c,w
  8449  000806  502E               iorwf	((c:___fladd@b+1)),c,w
  8450  000808  102F               iorwf	((c:___fladd@b+2)),c,w
  8451  00080A  1030               iorwf	((c:___fladd@b+3)),c,w
  8452  00080C  1031               	btfss	status,2
  8453  00080E  A4D8               	goto	u3471
  8454  000810  EF0C  F004         	goto	u3470
  8455  000814  EF0F  F004         
  8456                           u3471:
  8457  000818                     	movlw	1
  8458  000818  0E01               	goto	u3480
  8459  00081A  EF10  F004         u3470:
  8460  00081E                     	movlw	0
  8461  00081E  0E00               u3480:
  8462  000820                     	movwf	((c:___fladd@grs)),c
  8463  000820  6E41               	line	102
  8464                           	
  8465                           l3081:
  8466  000822                     	movlw	low(0)
  8467  000822  0E00               	movwf	((c:___fladd@b)),c
  8468  000824  6E2E               	movlw	high(0)
  8469  000826  0E00               	movwf	((c:___fladd@b+1)),c
  8470  000828  6E2F               	movlw	low highword(0)
  8471  00082A  0E00               	movwf	((c:___fladd@b+2)),c
  8472  00082C  6E30               	movlw	high highword(0)
  8473  00082E  0E00               	movwf	((c:___fladd@b+3)),c
  8474  000830  6E31               	line	103
  8475                           	
  8476                           l3083:
  8477  000832                     	movff	(c:___fladd@aexp),(c:___fladd@bexp)
  8478  000832  C03F  F040         	line	104
  8479                           	goto	l899
  8480  000836  EF4B  F004         	line	105
  8481                           	
  8482                           l898:
  8483  00083A                     	line	106
  8484                           	goto	l900
  8485  00083A  EF40  F004         	
  8486                           l901:
  8487  00083E                     	line	109
  8488                           	
  8489                           	btfss	((c:___fladd@grs)),c,(0)&7
  8490  00083E  A041               	goto	u3491
  8491  000840  EF24  F004         	goto	u3490
  8492  000844  EF26  F004         u3491:
  8493  000848                     	goto	l3087
  8494  000848  EF2C  F004         u3490:
  8495  00084C                     	line	110
  8496                           	
  8497                           l3085:
  8498  00084C                     	bcf	status,0
  8499  00084C  90D8               	rrcf	((c:___fladd@grs)),c,w
  8500  00084E  3041               	iorlw	low(01h)
  8501  000850  0901               	movwf	((c:___fladd@grs)),c
  8502  000852  6E41               	line	111
  8503                           	goto	l3089
  8504  000854  EF30  F004         	line	112
  8505                           	
  8506                           l902:
  8507  000858                     	line	113
  8508                           	
  8509                           l3087:
  8510  000858                     	bcf status,0
  8511  000858  90D8               	rrcf	((c:___fladd@grs)),c
  8512  00085A  3241               
  8513                           	goto	l3089
  8514  00085C  EF30  F004         	line	114
  8515                           	
  8516                           l903:
  8517  000860                     	line	115
  8518                           	
  8519                           l3089:
  8520  000860                     	
  8521                           	btfss	((c:___fladd@b)),c,(0)&7
  8522  000860  A02E               	goto	u3501
  8523  000862  EF35  F004         	goto	u3500
  8524  000866  EF37  F004         u3501:
  8525  00086A                     	goto	l3093
  8526  00086A  EF3A  F004         u3500:
  8527  00086E                     	line	116
  8528                           	
  8529                           l3091:
  8530  00086E                     	bsf	(0+(7/8)+(c:___fladd@grs)),c,(7)&7
  8531  00086E  8E41               	goto	l3093
  8532  000870  EF3A  F004         	line	117
  8533                           	
  8534                           l904:
  8535  000874                     	line	118
  8536                           	
  8537                           l3093:
  8538  000874                     	rlcf	((c:___fladd@b+3)),c,w
  8539  000874  3431               	rrcf	((c:___fladd@b+3)),c
  8540  000876  3231               	rrcf	((c:___fladd@b+2)),c
  8541  000878  3230               	rrcf	((c:___fladd@b+1)),c
  8542  00087A  322F               	rrcf	((c:___fladd@b)),c
  8543  00087C  322E               	line	119
  8544                           	
  8545                           l3095:
  8546  00087E                     	incf	((c:___fladd@bexp)),c
  8547  00087E  2A40               	line	120
  8548                           	
  8549                           l900:
  8550  000880                     	line	106
  8551                           		movf	((c:___fladd@aexp)),c,w
  8552  000880  503F               	subwf	((c:___fladd@bexp)),c,w
  8553  000882  5C40               	btfss	status,0
  8554  000884  A0D8               	goto	u3511
  8555  000886  EF47  F004         	goto	u3510
  8556  00088A  EF49  F004         
  8557                           u3511:
  8558  00088E                     	goto	l901
  8559  00088E  EF1F  F004         u3510:
  8560  000892                     	goto	l899
  8561  000892  EF4B  F004         	
  8562                           l905:
  8563  000896                     	line	121
  8564                           	
  8565                           l899:
  8566  000896                     	line	124
  8567                           	
  8568                           	btfsc	((c:___fladd@signs)),c,(6)&7
  8569  000896  BC3E               	goto	u3521
  8570  000898  EF50  F004         	goto	u3520
  8571  00089C  EF52  F004         u3521:
  8572  0008A0                     	goto	l3121
  8573  0008A0  EF9A  F004         u3520:
  8574  0008A4                     	line	127
  8575                           	
  8576                           l3097:
  8577  0008A4                     	movf	((c:___fladd@bexp)),c,w
  8578  0008A4  5040               	btfss	status,2
  8579  0008A6  A4D8               	goto	u3531
  8580  0008A8  EF58  F004         	goto	u3530
  8581  0008AC  EF5A  F004         u3531:
  8582  0008B0                     	goto	l3103
  8583  0008B0  EF66  F004         u3530:
  8584  0008B4                     	line	128
  8585                           	
  8586                           l3099:
  8587  0008B4                     	movlw	low(normalize32(0x0))
  8588  0008B4  0E00               	movwf	((c:?___fladd)),c
  8589  0008B6  6E2E               	movlw	high(normalize32(0x0))
  8590  0008B8  0E00               	movwf	((c:?___fladd+1)),c
  8591  0008BA  6E2F               	movlw	low highword(normalize32(0x0))
  8592  0008BC  0E00               	movwf	((c:?___fladd+2)),c
  8593  0008BE  6E30               	movlw	high highword(normalize32(0x0))
  8594  0008C0  0E00               	movwf	((c:?___fladd+3)),c
  8595  0008C2  6E31               	goto	l908
  8596  0008C4  EFF4  F005         	
  8597                           l3101:
  8598  0008C8                     	goto	l908
  8599  0008C8  EFF4  F005         	line	129
  8600                           	
  8601                           l907:
  8602  0008CC                     	line	132
  8603                           	
  8604                           l3103:
  8605  0008CC                     	movf	((c:___fladd@a)),c,w
  8606  0008CC  5032               	addwf	((c:___fladd@b)),c
  8607  0008CE  262E               	movf	((c:___fladd@a+1)),c,w
  8608  0008D0  5033               	addwfc	((c:___fladd@b+1)),c
  8609  0008D2  222F               	movf	((c:___fladd@a+2)),c,w
  8610  0008D4  5034               	addwfc	((c:___fladd@b+2)),c
  8611  0008D6  2230               	movf	((c:___fladd@a+3)),c,w
  8612  0008D8  5035               	addwfc	((c:___fladd@b+3)),c
  8613  0008DA  2231               	line	134
  8614                           	
  8615                           l3105:
  8616  0008DC                     	
  8617                           	btfss	((c:___fladd@b+3)),c,(24)&7
  8618  0008DC  A031               	goto	u3541
  8619  0008DE  EF73  F004         	goto	u3540
  8620  0008E2  EF75  F004         u3541:
  8621  0008E6                     	goto	l3157
  8622  0008E6  EF4A  F005         u3540:
  8623  0008EA                     	line	135
  8624                           	
  8625                           l3107:
  8626  0008EA                     	
  8627                           	btfss	((c:___fladd@grs)),c,(0)&7
  8628  0008EA  A041               	goto	u3551
  8629  0008EC  EF7A  F004         	goto	u3550
  8630  0008F0  EF7C  F004         u3551:
  8631  0008F4                     	goto	l3111
  8632  0008F4  EF82  F004         u3550:
  8633  0008F8                     	line	136
  8634                           	
  8635                           l3109:
  8636  0008F8                     	bcf	status,0
  8637  0008F8  90D8               	rrcf	((c:___fladd@grs)),c,w
  8638  0008FA  3041               	iorlw	low(01h)
  8639  0008FC  0901               	movwf	((c:___fladd@grs)),c
  8640  0008FE  6E41               	line	137
  8641                           	goto	l3113
  8642  000900  EF86  F004         	line	138
  8643                           	
  8644                           l910:
  8645  000904                     	line	139
  8646                           	
  8647                           l3111:
  8648  000904                     	bcf status,0
  8649  000904  90D8               	rrcf	((c:___fladd@grs)),c
  8650  000906  3241               
  8651                           	goto	l3113
  8652  000908  EF86  F004         	line	140
  8653                           	
  8654                           l911:
  8655  00090C                     	line	141
  8656                           	
  8657                           l3113:
  8658  00090C                     	
  8659                           	btfss	((c:___fladd@b)),c,(0)&7
  8660  00090C  A02E               	goto	u3561
  8661  00090E  EF8B  F004         	goto	u3560
  8662  000912  EF8D  F004         u3561:
  8663  000916                     	goto	l3117
  8664  000916  EF90  F004         u3560:
  8665  00091A                     	line	142
  8666                           	
  8667                           l3115:
  8668  00091A                     	bsf	(0+(7/8)+(c:___fladd@grs)),c,(7)&7
  8669  00091A  8E41               	goto	l3117
  8670  00091C  EF90  F004         	line	143
  8671                           	
  8672                           l912:
  8673  000920                     	line	144
  8674                           	
  8675                           l3117:
  8676  000920                     	rlcf	((c:___fladd@b+3)),c,w
  8677  000920  3431               	rrcf	((c:___fladd@b+3)),c
  8678  000922  3231               	rrcf	((c:___fladd@b+2)),c
  8679  000924  3230               	rrcf	((c:___fladd@b+1)),c
  8680  000926  322F               	rrcf	((c:___fladd@b)),c
  8681  000928  322E               	line	145
  8682                           	
  8683                           l3119:
  8684  00092A                     	incf	((c:___fladd@bexp)),c
  8685  00092A  2A40               	goto	l3157
  8686  00092C  EF4A  F005         	line	146
  8687                           	
  8688                           l909:
  8689  000930                     	line	148
  8690                           	goto	l3157
  8691  000930  EF4A  F005         	line	149
  8692                           	
  8693                           l906:
  8694  000934                     	line	153
  8695                           	
  8696                           l3121:
  8697  000934                     		movf	((c:___fladd@a)),c,w
  8698  000934  5032               	subwf	((c:___fladd@b)),c,w
  8699  000936  5C2E               	movf	((c:___fladd@a+1)),c,w
  8700  000938  5033               	subwfb	((c:___fladd@b+1)),c,w
  8701  00093A  582F               	movf	((c:___fladd@a+2)),c,w
  8702  00093C  5034               	subwfb	((c:___fladd@b+2)),c,w
  8703  00093E  5830               	movf	((c:___fladd@b+3)),c,w
  8704  000940  5031               	xorlw	80h
  8705  000942  0A80               	movwf	(??___fladd+0+0)&0ffh,c
  8706  000944  6E36               	movf	((c:___fladd@a+3)),c,w
  8707  000946  5035               	xorlw	80h
  8708  000948  0A80               	subwfb	(??___fladd+0+0)&0ffh,c,w
  8709  00094A  5836               	btfsc	status,0
  8710  00094C  B0D8               	goto	u3571
  8711  00094E  EFAB  F004         	goto	u3570
  8712  000952  EFAD  F004         
  8713                           u3571:
  8714  000956                     	goto	l3131
  8715  000956  EFEB  F004         u3570:
  8716  00095A                     	line	154
  8717                           	
  8718                           l3123:
  8719  00095A                     	movff	(c:___fladd@b),??___fladd+0+0
  8720  00095A  C02E  F036         	movff	(c:___fladd@b+1),??___fladd+0+0+1
  8721  00095E  C02F  F037         	movff	(c:___fladd@b+2),??___fladd+0+0+2
  8722  000962  C030  F038         	movff	(c:___fladd@b+3),??___fladd+0+0+3
  8723  000966  C031  F039         	comf	(??___fladd+0+0),c
  8724  00096A  1E36               	comf	(??___fladd+0+1),c
  8725  00096C  1E37               	comf	(??___fladd+0+2),c
  8726  00096E  1E38               	comf	(??___fladd+0+3),c
  8727  000970  1E39               	incf	(??___fladd+0+0),c
  8728  000972  2A36               	movlw	0
  8729  000974  0E00               	addwfc	(??___fladd+0+1),c
  8730  000976  2237               	addwfc	(??___fladd+0+2),c
  8731  000978  2238               	addwfc	(??___fladd+0+3),c
  8732  00097A  2239               	movf	((c:___fladd@a)),c,w
  8733  00097C  5032               	addwf	(??___fladd+0+0),c,w
  8734  00097E  2436               	movwf	(??___fladd+4+0)&0ffh,c
  8735  000980  6E3A               	movf	((c:___fladd@a+1)),c,w
  8736  000982  5033               	addwfc	(??___fladd+0+1),c,w
  8737  000984  2037               	movwf	1+(??___fladd+4+0)&0ffh,c
  8738  000986  6E3B               	
  8739                           	movf	((c:___fladd@a+2)),c,w
  8740  000988  5034               	addwfc	(??___fladd+0+2),c,w
  8741  00098A  2038               	movwf	2+(??___fladd+4+0)&0ffh,c
  8742  00098C  6E3C               	
  8743                           	movf	((c:___fladd@a+3)),c,w
  8744  00098E  5035               	addwfc	(??___fladd+0+3),c,w
  8745  000990  2039               	movwf	3+(??___fladd+4+0)&0ffh,c
  8746  000992  6E3D               	movlw	0FFh
  8747  000994  0EFF               	addwf	(??___fladd+4+0),c,w
  8748  000996  243A               	movwf	((c:___fladd@b)),c
  8749  000998  6E2E               	movlw	0FFh
  8750  00099A  0EFF               	addwfc	(??___fladd+4+1),c,w
  8751  00099C  203B               	movwf	1+((c:___fladd@b)),c
  8752  00099E  6E2F               	
  8753                           	movlw	0FFh
  8754  0009A0  0EFF               	addwfc	(??___fladd+4+2),c,w
  8755  0009A2  203C               	movwf	2+((c:___fladd@b)),c
  8756  0009A4  6E30               	
  8757                           	movlw	0FFh
  8758  0009A6  0EFF               	addwfc	(??___fladd+4+3),c,w
  8759  0009A8  203D               	movwf	3+((c:___fladd@b)),c
  8760  0009AA  6E31               	line	155
  8761                           	movlw	(080h)&0ffh
  8762  0009AC  0E80               	xorwf	((c:___fladd@signs)),c
  8763  0009AE  1A3E               	line	156
  8764                           	
  8765                           l3125:
  8766  0009B0                     	negf	((c:___fladd@grs)),c
  8767  0009B0  6C41               	line	157
  8768                           	
  8769                           l3127:
  8770  0009B2                     	movf	((c:___fladd@grs)),c,w
  8771  0009B2  5041               	btfss	status,2
  8772  0009B4  A4D8               	goto	u3581
  8773  0009B6  EFDF  F004         	goto	u3580
  8774  0009BA  EFE1  F004         u3581:
  8775  0009BE                     	goto	l916
  8776  0009BE  EFF3  F004         u3580:
  8777  0009C2                     	line	158
  8778                           	
  8779                           l3129:
  8780  0009C2                     	movlw	low(01h)
  8781  0009C2  0E01               	addwf	((c:___fladd@b)),c
  8782  0009C4  262E               	movlw	0
  8783  0009C6  0E00               	addwfc	((c:___fladd@b+1)),c
  8784  0009C8  222F               	addwfc	((c:___fladd@b+2)),c
  8785  0009CA  2230               	addwfc	((c:___fladd@b+3)),c
  8786  0009CC  2231               	goto	l916
  8787  0009CE  EFF3  F004         	line	159
  8788                           	
  8789                           l915:
  8790  0009D2                     	line	160
  8791                           	goto	l916
  8792  0009D2  EFF3  F004         	line	161
  8793                           	
  8794                           l914:
  8795  0009D6                     	line	162
  8796                           	
  8797                           l3131:
  8798  0009D6                     	movf	((c:___fladd@a)),c,w
  8799  0009D6  5032               	subwf	((c:___fladd@b)),c
  8800  0009D8  5E2E               	movf	((c:___fladd@a+1)),c,w
  8801  0009DA  5033               	subwfb	((c:___fladd@b+1)),c
  8802  0009DC  5A2F               	movf	((c:___fladd@a+2)),c,w
  8803  0009DE  5034               	subwfb	((c:___fladd@b+2)),c
  8804  0009E0  5A30               	movf	((c:___fladd@a+3)),c,w
  8805  0009E2  5035               	subwfb	((c:___fladd@b+3)),c
  8806  0009E4  5A31               	line	163
  8807                           	
  8808                           l916:
  8809  0009E6                     	line	166
  8810                           	movf	((c:___fladd@b)),c,w
  8811  0009E6  502E               iorwf	((c:___fladd@b+1)),c,w
  8812  0009E8  102F               iorwf	((c:___fladd@b+2)),c,w
  8813  0009EA  1030               iorwf	((c:___fladd@b+3)),c,w
  8814  0009EC  1031               	btfss	status,2
  8815  0009EE  A4D8               	goto	u3591
  8816  0009F0  EFFC  F004         	goto	u3590
  8817  0009F4  EFFE  F004         
  8818                           u3591:
  8819  0009F8                     	goto	l3155
  8820  0009F8  EF3F  F005         u3590:
  8821  0009FC                     	
  8822                           l3133:
  8823  0009FC                     	movf	((c:___fladd@grs)),c,w
  8824  0009FC  5041               	btfss	status,2
  8825  0009FE  A4D8               	goto	u3601
  8826  000A00  EF04  F005         	goto	u3600
  8827  000A04  EF06  F005         u3601:
  8828  000A08                     	goto	l3155
  8829  000A08  EF3F  F005         u3600:
  8830  000A0C                     	line	167
  8831                           	
  8832                           l3135:
  8833  000A0C                     	movlw	low(normalize32(0x0))
  8834  000A0C  0E00               	movwf	((c:?___fladd)),c
  8835  000A0E  6E2E               	movlw	high(normalize32(0x0))
  8836  000A10  0E00               	movwf	((c:?___fladd+1)),c
  8837  000A12  6E2F               	movlw	low highword(normalize32(0x0))
  8838  000A14  0E00               	movwf	((c:?___fladd+2)),c
  8839  000A16  6E30               	movlw	high highword(normalize32(0x0))
  8840  000A18  0E00               	movwf	((c:?___fladd+3)),c
  8841  000A1A  6E31               	goto	l908
  8842  000A1C  EFF4  F005         	
  8843                           l3137:
  8844  000A20                     	goto	l908
  8845  000A20  EFF4  F005         	line	168
  8846                           	
  8847                           l917:
  8848  000A24                     	line	171
  8849                           	goto	l3155
  8850  000A24  EF3F  F005         	
  8851                           l919:
  8852  000A28                     	line	172
  8853                           	
  8854                           l3139:
  8855  000A28                     	bcf	status,0
  8856  000A28  90D8               	rlcf	((c:___fladd@b)),c
  8857  000A2A  362E               	rlcf	((c:___fladd@b+1)),c
  8858  000A2C  362F               	rlcf	((c:___fladd@b+2)),c
  8859  000A2E  3630               	rlcf	((c:___fladd@b+3)),c
  8860  000A30  3631               	line	173
  8861                           	
  8862                           l3141:
  8863  000A32                     	
  8864                           	btfss	((c:___fladd@grs)),c,(7)&7
  8865  000A32  AE41               	goto	u3611
  8866  000A34  EF1E  F005         	goto	u3610
  8867  000A38  EF20  F005         u3611:
  8868  000A3C                     	goto	l3145
  8869  000A3C  EF23  F005         u3610:
  8870  000A40                     	line	174
  8871                           	
  8872                           l3143:
  8873  000A40                     	bsf	(0+(0/8)+(c:___fladd@b)),c,(0)&7
  8874  000A40  802E               	goto	l3145
  8875  000A42  EF23  F005         	line	175
  8876                           	
  8877                           l920:
  8878  000A46                     	line	176
  8879                           	
  8880                           l3145:
  8881  000A46                     	
  8882                           	btfss	((c:___fladd@grs)),c,(0)&7
  8883  000A46  A041               	goto	u3621
  8884  000A48  EF28  F005         	goto	u3620
  8885  000A4C  EF2A  F005         u3621:
  8886  000A50                     	goto	l3149
  8887  000A50  EF2E  F005         u3620:
  8888  000A54                     	line	177
  8889                           	
  8890                           l3147:
  8891  000A54                     	bsf	status,0
  8892  000A54  80D8               	
  8893                           	rlcf	((c:___fladd@grs)),c
  8894  000A56  3641               	line	178
  8895                           	goto	l3151
  8896  000A58  EF32  F005         	line	179
  8897                           	
  8898                           l921:
  8899  000A5C                     	line	180
  8900                           	
  8901                           l3149:
  8902  000A5C                     	bcf status,0
  8903  000A5C  90D8               	rlcf	((c:___fladd@grs)),c
  8904  000A5E  3641               
  8905                           	goto	l3151
  8906  000A60  EF32  F005         	line	181
  8907                           	
  8908                           l922:
  8909  000A64                     	line	182
  8910                           	
  8911                           l3151:
  8912  000A64                     	movf	((c:___fladd@bexp)),c,w
  8913  000A64  5040               	btfsc	status,2
  8914  000A66  B4D8               	goto	u3631
  8915  000A68  EF38  F005         	goto	u3630
  8916  000A6C  EF3A  F005         u3631:
  8917  000A70                     	goto	l3155
  8918  000A70  EF3F  F005         u3630:
  8919  000A74                     	line	183
  8920                           	
  8921                           l3153:
  8922  000A74                     	decf	((c:___fladd@bexp)),c
  8923  000A74  0640               	goto	l3155
  8924  000A76  EF3F  F005         	line	184
  8925                           	
  8926                           l923:
  8927  000A7A                     	goto	l3155
  8928  000A7A  EF3F  F005         	line	185
  8929                           	
  8930                           l918:
  8931  000A7E                     	line	171
  8932                           	
  8933                           l3155:
  8934  000A7E                     	
  8935                           	btfss	((c:___fladd@b+2)),c,(23)&7
  8936  000A7E  AE30               	goto	u3641
  8937  000A80  EF44  F005         	goto	u3640
  8938  000A84  EF46  F005         u3641:
  8939  000A88                     	goto	l3139
  8940  000A88  EF14  F005         u3640:
  8941  000A8C                     	goto	l3157
  8942  000A8C  EF4A  F005         	
  8943                           l924:
  8944  000A90                     	goto	l3157
  8945  000A90  EF4A  F005         	line	186
  8946                           	
  8947                           l913:
  8948  000A94                     	line	192
  8949                           	
  8950                           l3157:
  8951  000A94                     	movlw	low(0)
  8952  000A94  0E00               	movwf	((c:___fladd@aexp)),c
  8953  000A96  6E3F               	line	193
  8954                           	
  8955                           l3159:
  8956  000A98                     	
  8957                           	btfss	((c:___fladd@grs)),c,(7)&7
  8958  000A98  AE41               	goto	u3651
  8959  000A9A  EF51  F005         	goto	u3650
  8960  000A9E  EF53  F005         u3651:
  8961  000AA2                     	goto	l925
  8962  000AA2  EF6F  F005         u3650:
  8963  000AA6                     	line	194
  8964                           	
  8965                           l3161:
  8966  000AA6                     	movff	(c:___fladd@grs),??___fladd+0+0
  8967  000AA6  C041  F036         	movlw	07Fh
  8968  000AAA  0E7F               	andwf	(??___fladd+0+0),c
  8969  000AAC  1636               	btfsc	status,2
  8970  000AAE  B4D8               	goto	u3661
  8971  000AB0  EF5C  F005         	goto	u3660
  8972  000AB4  EF5E  F005         u3661:
  8973  000AB8                     	goto	l926
  8974  000AB8  EF62  F005         u3660:
  8975  000ABC                     	line	195
  8976                           	
  8977                           l3163:
  8978  000ABC                     	movlw	low(01h)
  8979  000ABC  0E01               	movwf	((c:___fladd@aexp)),c
  8980  000ABE  6E3F               	line	196
  8981                           	goto	l925
  8982  000AC0  EF6F  F005         	line	197
  8983                           	
  8984                           l926:
  8985  000AC4                     	line	198
  8986                           	
  8987                           	btfss	((c:___fladd@b)),c,(0)&7
  8988  000AC4  A02E               	goto	u3671
  8989  000AC6  EF67  F005         	goto	u3670
  8990  000ACA  EF69  F005         u3671:
  8991  000ACE                     	goto	l925
  8992  000ACE  EF6F  F005         u3670:
  8993  000AD2                     	line	199
  8994                           	
  8995                           l3165:
  8996  000AD2                     	movlw	low(01h)
  8997  000AD2  0E01               	movwf	((c:___fladd@aexp)),c
  8998  000AD4  6E3F               	goto	l925
  8999  000AD6  EF6F  F005         	line	200
  9000                           	
  9001                           l928:
  9002  000ADA                     	goto	l925
  9003  000ADA  EF6F  F005         	line	201
  9004                           	
  9005                           l927:
  9006  000ADE                     	line	202
  9007                           	
  9008                           l925:
  9009  000ADE                     	line	203
  9010                           	movf	((c:___fladd@aexp)),c,w
  9011  000ADE  503F               	btfsc	status,2
  9012  000AE0  B4D8               	goto	u3681
  9013  000AE2  EF75  F005         	goto	u3680
  9014  000AE6  EF77  F005         u3681:
  9015  000AEA                     	goto	l3175
  9016  000AEA  EFA8  F005         u3680:
  9017  000AEE                     	line	204
  9018                           	
  9019                           l3167:
  9020  000AEE                     	movlw	low(01h)
  9021  000AEE  0E01               	addwf	((c:___fladd@b)),c
  9022  000AF0  262E               	movlw	0
  9023  000AF2  0E00               	addwfc	((c:___fladd@b+1)),c
  9024  000AF4  222F               	addwfc	((c:___fladd@b+2)),c
  9025  000AF6  2230               	addwfc	((c:___fladd@b+3)),c
  9026  000AF8  2231               	line	205
  9027                           	
  9028                           l3169:
  9029  000AFA                     	
  9030                           	btfss	((c:___fladd@b+3)),c,(24)&7
  9031  000AFA  A031               	goto	u3691
  9032  000AFC  EF82  F005         	goto	u3690
  9033  000B00  EF84  F005         u3691:
  9034  000B04                     	goto	l3175
  9035  000B04  EFA8  F005         u3690:
  9036  000B08                     	line	206
  9037                           	
  9038                           l3171:
  9039  000B08                     	movff	(c:___fladd@b),??___fladd+0+0
  9040  000B08  C02E  F036         	movff	(c:___fladd@b+1),??___fladd+0+0+1
  9041  000B0C  C02F  F037         	movff	(c:___fladd@b+2),??___fladd+0+0+2
  9042  000B10  C030  F038         	movff	(c:___fladd@b+3),??___fladd+0+0+3
  9043  000B14  C031  F039         	rlcf	(??___fladd+0+3),c,w
  9044  000B18  3439               	rrcf	(??___fladd+0+3),c
  9045  000B1A  3239               	rrcf	(??___fladd+0+2),c
  9046  000B1C  3238               	rrcf	(??___fladd+0+1),c
  9047  000B1E  3237               	rrcf	(??___fladd+0+0),c
  9048  000B20  3236               	movff	??___fladd+0+0,(c:___fladd@b)
  9049  000B22  C036  F02E         	movff	??___fladd+0+1,(c:___fladd@b+1)
  9050  000B26  C037  F02F         	movff	??___fladd+0+2,(c:___fladd@b+2)
  9051  000B2A  C038  F030         	movff	??___fladd+0+3,(c:___fladd@b+3)
  9052  000B2E  C039  F031         	line	207
  9053                           		incf	((c:___fladd@bexp)),c,w
  9054  000B32  2840               	btfsc	status,2
  9055  000B34  B4D8               	goto	u3701
  9056  000B36  EF9F  F005         	goto	u3700
  9057  000B3A  EFA1  F005         
  9058                           u3701:
  9059  000B3E                     	goto	l3175
  9060  000B3E  EFA8  F005         u3700:
  9061  000B42                     	line	208
  9062                           	
  9063                           l3173:
  9064  000B42                     	incf	((c:___fladd@bexp)),c
  9065  000B42  2A40               	goto	l3175
  9066  000B44  EFA8  F005         	line	209
  9067                           	
  9068                           l931:
  9069  000B48                     	goto	l3175
  9070  000B48  EFA8  F005         	line	210
  9071                           	
  9072                           l930:
  9073  000B4C                     	goto	l3175
  9074  000B4C  EFA8  F005         	line	211
  9075                           	
  9076                           l929:
  9077  000B50                     	line	215
  9078                           	
  9079                           l3175:
  9080  000B50                     		incf	((c:___fladd@bexp)),c,w
  9081  000B50  2840               	btfsc	status,2
  9082  000B52  B4D8               	goto	u3711
  9083  000B54  EFAE  F005         	goto	u3710
  9084  000B58  EFB0  F005         
  9085                           u3711:
  9086  000B5C                     	goto	l3179
  9087  000B5C  EFBA  F005         u3710:
  9088  000B60                     	
  9089                           l3177:
  9090  000B60                     	movf	((c:___fladd@bexp)),c,w
  9091  000B60  5040               	btfss	status,2
  9092  000B62  A4D8               	goto	u3721
  9093  000B64  EFB6  F005         	goto	u3720
  9094  000B68  EFB8  F005         u3721:
  9095  000B6C                     	goto	l3183
  9096  000B6C  EFD0  F005         u3720:
  9097  000B70                     	goto	l3179
  9098  000B70  EFBA  F005         	
  9099                           l934:
  9100  000B74                     	line	216
  9101                           	
  9102                           l3179:
  9103  000B74                     	movlw	low(0)
  9104  000B74  0E00               	movwf	((c:___fladd@b)),c
  9105  000B76  6E2E               	movlw	high(0)
  9106  000B78  0E00               	movwf	((c:___fladd@b+1)),c
  9107  000B7A  6E2F               	movlw	low highword(0)
  9108  000B7C  0E00               	movwf	((c:___fladd@b+2)),c
  9109  000B7E  6E30               	movlw	high highword(0)
  9110  000B80  0E00               	movwf	((c:___fladd@b+3)),c
  9111  000B82  6E31               	line	218
  9112                           	movf	((c:___fladd@bexp)),c,w
  9113  000B84  5040               	btfss	status,2
  9114  000B86  A4D8               	goto	u3731
  9115  000B88  EFC8  F005         	goto	u3730
  9116  000B8C  EFCA  F005         u3731:
  9117  000B90                     	goto	l3183
  9118  000B90  EFD0  F005         u3730:
  9119  000B94                     	line	219
  9120                           	
  9121                           l3181:
  9122  000B94                     	movlw	low(0)
  9123  000B94  0E00               	movwf	((c:___fladd@signs)),c
  9124  000B96  6E3E               	goto	l3183
  9125  000B98  EFD0  F005         	line	220
  9126                           	
  9127                           l935:
  9128  000B9C                     	goto	l3183
  9129  000B9C  EFD0  F005         	line	221
  9130                           	
  9131                           l932:
  9132  000BA0                     	line	225
  9133                           	
  9134                           l3183:
  9135  000BA0                     	
  9136                           	btfss	((c:___fladd@bexp)),c,(0)&7
  9137  000BA0  A040               	goto	u3741
  9138  000BA2  EFD5  F005         	goto	u3740
  9139  000BA6  EFD7  F005         u3741:
  9140  000BAA                     	goto	l3187
  9141  000BAA  EFDA  F005         u3740:
  9142  000BAE                     	line	226
  9143                           	
  9144                           l3185:
  9145  000BAE                     	bsf	(0+(7/8)+0+((c:___fladd@b)+02h)),c,(7)&7
  9146  000BAE  8E30               	line	227
  9147                           	goto	l3189
  9148  000BB0  EFDD  F005         	line	229
  9149                           	
  9150                           l936:
  9151  000BB4                     	line	230
  9152                           	
  9153                           l3187:
  9154  000BB4                     	bcf	(0+(7/8)+0+((c:___fladd@b)+02h)),c,(7)&7
  9155  000BB4  9E30               	goto	l3189
  9156  000BB6  EFDD  F005         	line	231
  9157                           	
  9158                           l937:
  9159  000BBA                     	line	232
  9160                           	
  9161                           l3189:
  9162  000BBA                     	bcf	status,0
  9163  000BBA  90D8               	rrcf	((c:___fladd@bexp)),c,w
  9164  000BBC  3040               	movwf	(0+((c:___fladd@b)+03h)),c
  9165  000BBE  6E31               	line	233
  9166                           	
  9167                           l3191:
  9168  000BC0                     	
  9169                           	btfss	((c:___fladd@signs)),c,(7)&7
  9170  000BC0  AE3E               	goto	u3751
  9171  000BC2  EFE5  F005         	goto	u3750
  9172  000BC6  EFE7  F005         u3751:
  9173  000BCA                     	goto	l3195
  9174  000BCA  EFEA  F005         u3750:
  9175  000BCE                     	line	234
  9176                           	
  9177                           l3193:
  9178  000BCE                     	bsf	(0+(7/8)+0+((c:___fladd@b)+03h)),c,(7)&7
  9179  000BCE  8E31               	goto	l3195
  9180  000BD0  EFEA  F005         	line	235
  9181                           	
  9182                           l938:
  9183  000BD4                     	line	236
  9184                           	
  9185                           l3195:
  9186  000BD4                     	movff	(c:___fladd@b),(c:?___fladd)
  9187  000BD4  C02E  F02E         	movff	(c:___fladd@b+1),(c:?___fladd+1)
  9188  000BD8  C02F  F02F         	movff	(c:___fladd@b+2),(c:?___fladd+2)
  9189  000BDC  C030  F030         	movff	(c:___fladd@b+3),(c:?___fladd+3)
  9190  000BE0  C031  F031         	goto	l908
  9191  000BE4  EFF4  F005         	
  9192                           l3197:
  9193  000BE8                     	line	237
  9194                           	
  9195                           l908:
  9196  000BE8                     	return	;funcret
  9197  000BE8  0012               	opt stack 0
  9198                           GLOBAL	__end_of___fladd
  9199                           	__end_of___fladd:
  9200  000BEA                     	signat	___fladd,8316
  9201                           	global	_SetTo_Broadcast
  9202                           
  9203 ;; *************** function _SetTo_Broadcast *****************
  9204 ;; Defined at:
  9205 ;;		line 348 in file "PIC_Interface_with_XBee.c"
  9206 ;; Parameters:    Size  Location     Type
  9207 ;;		None
  9208 ;; Auto vars:     Size  Location     Type
  9209 ;;		None
  9210 ;; Return value:  Size  Location     Type
  9211 ;;                  1    wreg      void 
  9212 ;; Registers used:
  9213 ;;		wreg, status,2, status,0, tblptrl, tblptrh, tblptru, cstack
  9214 ;; Tracked objects:
  9215 ;;		On entry : 0/0
  9216 ;;		On exit  : 0/0
  9217 ;;		Unchanged: 0/0
  9218 ;; Data sizes:     COMRAM   BANK0   BANK1   BANK2   BANK3   BANK4   BANK5
  9219 ;;      Params:         0       0       0       0       0       0       0
  9220 ;;      Locals:         0       0       0       0       0       0       0
  9221 ;;      Temps:          0       0       0       0       0       0       0
  9222 ;;      Totals:         0       0       0       0       0       0       0
  9223 ;;Total ram usage:        0 bytes
  9224 ;; Hardware stack levels used:    1
  9225 ;; Hardware stack levels required when called:    5
  9226 ;; This function calls:
  9227 ;;		_MSdelay
  9228 ;;		_Write_AT_Command
  9229 ;; This function is called by:
  9230 ;;		_main
  9231 ;; This function uses a non-reentrant model
  9232 ;;
  9233                           psect	text20,class=CODE,space=0,reloc=2,group=0
  9234                           	file	"PIC_Interface_with_XBee.c"
  9235                           	line	348
  9236                           global __ptext20
  9237                           __ptext20:
  9238  002F56                     psect	text20
  9239                           	file	"PIC_Interface_with_XBee.c"
  9240                           	line	348
  9241                           	global	__size_of_SetTo_Broadcast
  9242                           	__size_of_SetTo_Broadcast	equ	__end_of_SetTo_Broadcast-_SetTo_Broadcast
  9243  0000                     	
  9244                           _SetTo_Broadcast:
  9245  002F56                     ;incstack = 0
  9246                           	opt	stack 25
  9247                           	line	350
  9248                           	
  9249                           l3485:
  9250  002F56                     ;PIC_Interface_with_XBee.c: 350:  MSdelay(500);
  9251                           	movlw	high(01F4h)
  9252  002F56  0E01               	movwf	((c:MSdelay@val+1)),c
  9253  002F58  6E08               	movlw	low(01F4h)
  9254  002F5A  0EF4               	movwf	((c:MSdelay@val)),c
  9255  002F5C  6E07               	call	_MSdelay	;wreg free
  9256  002F5E  ECDE  F016         	line	351
  9257                           	
  9258                           l3487:
  9259  002F62                     ;PIC_Interface_with_XBee.c: 351:  Write_AT_Command("DH", 0x00000000);
  9260                           		movlw	low(STR_1)
  9261  002F62  0E5B               	movwf	((c:Write_AT_Command@ATCommand)),c
  9262  002F64  6E15               	movlw	high(STR_1)
  9263  002F66  0E06               	movwf	((c:Write_AT_Command@ATCommand+1)),c
  9264  002F68  6E16               
  9265                           	movlw	low(0)
  9266  002F6A  0E00               	movwf	((c:Write_AT_Command@_CommandValue)),c
  9267  002F6C  6E17               	movlw	high(0)
  9268  002F6E  0E00               	movwf	((c:Write_AT_Command@_CommandValue+1)),c
  9269  002F70  6E18               	movlw	low highword(0)
  9270  002F72  0E00               	movwf	((c:Write_AT_Command@_CommandValue+2)),c
  9271  002F74  6E19               	movlw	high highword(0)
  9272  002F76  0E00               	movwf	((c:Write_AT_Command@_CommandValue+3)),c
  9273  002F78  6E1A               	call	_Write_AT_Command	;wreg free
  9274  002F7A  EC0A  F019         	line	352
  9275                           	
  9276                           l3489:
  9277  002F7E                     ;PIC_Interface_with_XBee.c: 352:  MSdelay(500);
  9278                           	movlw	high(01F4h)
  9279  002F7E  0E01               	movwf	((c:MSdelay@val+1)),c
  9280  002F80  6E08               	movlw	low(01F4h)
  9281  002F82  0EF4               	movwf	((c:MSdelay@val)),c
  9282  002F84  6E07               	call	_MSdelay	;wreg free
  9283  002F86  ECDE  F016         	line	353
  9284                           ;PIC_Interface_with_XBee.c: 353:  Write_AT_Command("DL", 0x0000FFFF);
  9285                           		movlw	low(STR_2)
  9286  002F8A  0E5E               	movwf	((c:Write_AT_Command@ATCommand)),c
  9287  002F8C  6E15               	movlw	high(STR_2)
  9288  002F8E  0E06               	movwf	((c:Write_AT_Command@ATCommand+1)),c
  9289  002F90  6E16               
  9290                           	movlw	low(0FFFFh)
  9291  002F92  0EFF               	movwf	((c:Write_AT_Command@_CommandValue)),c
  9292  002F94  6E17               	movlw	high(0FFFFh)
  9293  002F96  0EFF               	movwf	((c:Write_AT_Command@_CommandValue+1)),c
  9294  002F98  6E18               	movlw	low highword(0FFFFh)
  9295  002F9A  0E00               	movwf	((c:Write_AT_Command@_CommandValue+2)),c
  9296  002F9C  6E19               	movlw	high highword(0FFFFh)
  9297  002F9E  0E00               	movwf	((c:Write_AT_Command@_CommandValue+3)),c
  9298  002FA0  6E1A               	call	_Write_AT_Command	;wreg free
  9299  002FA2  EC0A  F019         	line	354
  9300                           	
  9301                           l3491:
  9302  002FA6                     ;PIC_Interface_with_XBee.c: 354:  MSdelay(500);
  9303                           	movlw	high(01F4h)
  9304  002FA6  0E01               	movwf	((c:MSdelay@val+1)),c
  9305  002FA8  6E08               	movlw	low(01F4h)
  9306  002FAA  0EF4               	movwf	((c:MSdelay@val)),c
  9307  002FAC  6E07               	call	_MSdelay	;wreg free
  9308  002FAE  ECDE  F016         	line	355
  9309                           	
  9310                           l233:
  9311  002FB2                     	return	;funcret
  9312  002FB2  0012               	opt stack 0
  9313                           GLOBAL	__end_of_SetTo_Broadcast
  9314                           	__end_of_SetTo_Broadcast:
  9315  002FB4                     	signat	_SetTo_Broadcast,89
  9316                           	global	_Write_AT_Command
  9317                           
  9318 ;; *************** function _Write_AT_Command *****************
  9319 ;; Defined at:
  9320 ;;		line 306 in file "PIC_Interface_with_XBee.c"
  9321 ;; Parameters:    Size  Location     Type
  9322 ;;  ATCommand       2   20[COMRAM] PTR unsigned char 
  9323 ;;		 -> STR_2(3), STR_1(3), 
  9324 ;;  _CommandValu    4   22[COMRAM] unsigned long 
  9325 ;; Auto vars:     Size  Location     Type
  9326 ;;		None
  9327 ;; Return value:  Size  Location     Type
  9328 ;;                  1    wreg      void 
  9329 ;; Registers used:
  9330 ;;		wreg, status,2, status,0, tblptrl, tblptrh, tblptru, cstack
  9331 ;; Tracked objects:
  9332 ;;		On entry : 0/0
  9333 ;;		On exit  : 0/0
  9334 ;;		Unchanged: 0/0
  9335 ;; Data sizes:     COMRAM   BANK0   BANK1   BANK2   BANK3   BANK4   BANK5
  9336 ;;      Params:         6       0       0       0       0       0       0
  9337 ;;      Locals:         0       0       0       0       0       0       0
  9338 ;;      Temps:          0       0       0       0       0       0       0
  9339 ;;      Totals:         6       0       0       0       0       0       0
  9340 ;;Total ram usage:        6 bytes
  9341 ;; Hardware stack levels used:    1
  9342 ;; Hardware stack levels required when called:    4
  9343 ;; This function calls:
  9344 ;;		_AT_Command
  9345 ;; This function is called by:
  9346 ;;		_SetTo_Broadcast
  9347 ;; This function uses a non-reentrant model
  9348 ;;
  9349                           psect	text21,class=CODE,space=0,reloc=2,group=0
  9350                           	line	306
  9351                           global __ptext21
  9352                           __ptext21:
  9353  003214                     psect	text21
  9354                           	file	"PIC_Interface_with_XBee.c"
  9355                           	line	306
  9356                           	global	__size_of_Write_AT_Command
  9357                           	__size_of_Write_AT_Command	equ	__end_of_Write_AT_Command-_Write_AT_Command
  9358  0000                     	
  9359                           _Write_AT_Command:
  9360  003214                     ;incstack = 0
  9361                           	opt	stack 25
  9362                           	line	308
  9363                           	
  9364                           l2985:
  9365  003214                     ;PIC_Interface_with_XBee.c: 306: void Write_AT_Command(char* ATCommand, uint32_t _Comman
                                 dValue);PIC_Interface_with_XBee.c: 307: {;PIC_Interface_with_XBee.c: 308:  Command_Value
                                  = _CommandValue;
  9366                           	movff	(c:Write_AT_Command@_CommandValue),(c:_Command_Value)
  9367  003214  C017  F064         	movff	(c:Write_AT_Command@_CommandValue+1),(c:_Command_Value+1)
  9368  003218  C018  F065         	movff	(c:Write_AT_Command@_CommandValue+2),(c:_Command_Value+2)
  9369  00321C  C019  F066         	movff	(c:Write_AT_Command@_CommandValue+3),(c:_Command_Value+3)
  9370  003220  C01A  F067         	line	309
  9371                           	
  9372                           l2987:
  9373  003224                     ;PIC_Interface_with_XBee.c: 309:  AT_Command(ATCommand, 1);
  9374                           		movff	(c:Write_AT_Command@ATCommand),(c:AT_Command@ATCommand)
  9375  003224  C015  F00A         	movff	(c:Write_AT_Command@ATCommand+1),(c:AT_Command@ATCommand+1)
  9376  003228  C016  F00B         
  9377                           	movlw	low(01h)
  9378  00322C  0E01               	movwf	((c:AT_Command@action)),c
  9379  00322E  6E0C               	call	_AT_Command	;wreg free
  9380  003230  ECFC  F00E         	line	310
  9381                           	
  9382                           l215:
  9383  003234                     	return	;funcret
  9384  003234  0012               	opt stack 0
  9385                           GLOBAL	__end_of_Write_AT_Command
  9386                           	__end_of_Write_AT_Command:
  9387  003236                     	signat	_Write_AT_Command,8313
  9388                           	global	_AT_Command
  9389                           
  9390 ;; *************** function _AT_Command *****************
  9391 ;; Defined at:
  9392 ;;		line 253 in file "PIC_Interface_with_XBee.c"
  9393 ;; Parameters:    Size  Location     Type
  9394 ;;  ATCommand       2    9[COMRAM] PTR const unsigned char 
  9395 ;;		 -> STR_2(3), STR_1(3), 
  9396 ;;  action          1   11[COMRAM] _Bool 
  9397 ;; Auto vars:     Size  Location     Type
  9398 ;;  Length          2   18[COMRAM] unsigned short 
  9399 ;;  Checksum        2   16[COMRAM] unsigned short 
  9400 ;; Return value:  Size  Location     Type
  9401 ;;                  1    wreg      void 
  9402 ;; Registers used:
  9403 ;;		wreg, status,2, status,0, tblptrl, tblptrh, tblptru, cstack
  9404 ;; Tracked objects:
  9405 ;;		On entry : 0/0
  9406 ;;		On exit  : 0/0
  9407 ;;		Unchanged: 0/0
  9408 ;; Data sizes:     COMRAM   BANK0   BANK1   BANK2   BANK3   BANK4   BANK5
  9409 ;;      Params:         3       0       0       0       0       0       0
  9410 ;;      Locals:         4       0       0       0       0       0       0
  9411 ;;      Temps:          4       0       0       0       0       0       0
  9412 ;;      Totals:        11       0       0       0       0       0       0
  9413 ;;Total ram usage:       11 bytes
  9414 ;; Hardware stack levels used:    1
  9415 ;; Hardware stack levels required when called:    3
  9416 ;; This function calls:
  9417 ;;		_USART_SendString
  9418 ;;		_USART_TxChar
  9419 ;; This function is called by:
  9420 ;;		_Write_AT_Command
  9421 ;;		_Read_AT_Command
  9422 ;; This function uses a non-reentrant model
  9423 ;;
  9424                           psect	text22,class=CODE,space=0,reloc=2,group=0
  9425                           	line	253
  9426                           global __ptext22
  9427                           __ptext22:
  9428  001DF8                     psect	text22
  9429                           	file	"PIC_Interface_with_XBee.c"
  9430                           	line	253
  9431                           	global	__size_of_AT_Command
  9432                           	__size_of_AT_Command	equ	__end_of_AT_Command-_AT_Command
  9433  0000                     	
  9434                           _AT_Command:
  9435  001DF8                     ;incstack = 0
  9436                           	opt	stack 25
  9437                           	line	256
  9438                           	
  9439                           l2673:
  9440  001DF8                     ;PIC_Interface_with_XBee.c: 253: void AT_Command(const char* ATCommand, _Bool action);PI
                                 C_Interface_with_XBee.c: 254: {;PIC_Interface_with_XBee.c: 255:  uint16_t Length,Checksu
                                 m;;PIC_Interface_with_XBee.c: 256:  if (action == 1)
  9441                           		decf	((c:AT_Command@action)),c,w
  9442  001DF8  040C               	btfss	status,2
  9443  001DFA  A4D8               	goto	u2731
  9444  001DFC  EF02  F00F         	goto	u2730
  9445  001E00  EF04  F00F         
  9446                           u2731:
  9447  001E04                     	goto	l2689
  9448  001E04  EF3F  F00F         u2730:
  9449  001E08                     	line	260
  9450                           	
  9451                           l2675:
  9452  001E08                     ;PIC_Interface_with_XBee.c: 257:  {;PIC_Interface_with_XBee.c: 260:   if(Command_Value >
                                  0x00FFFFFF) Length = 8;
  9453                           		decf	((c:_Command_Value+3)),c,w
  9454  001E08  0467               	btfss	status,0
  9455  001E0A  A0D8               	goto	u2741
  9456  001E0C  EF0A  F00F         	goto	u2740
  9457  001E10  EF0C  F00F         
  9458                           u2741:
  9459  001E14                     	goto	l2679
  9460  001E14  EF12  F00F         u2740:
  9461  001E18                     	
  9462                           l2677:
  9463  001E18                     	movlw	high(08h)
  9464  001E18  0E00               	movwf	((c:AT_Command@Length+1)),c
  9465  001E1A  6E14               	movlw	low(08h)
  9466  001E1C  0E08               	movwf	((c:AT_Command@Length)),c
  9467  001E1E  6E13               	goto	l2691
  9468  001E20  EF45  F00F         	line	261
  9469                           ;PIC_Interface_with_XBee.c: 261:   else if(Command_Value > 0x00FFFF) Length = 7;
  9470                           	
  9471                           l200:
  9472  001E24                     	
  9473                           l2679:
  9474  001E24                     		movf	((c:_Command_Value+3)),c,w
  9475  001E24  5067               	bnz	u2750
  9476  001E26  E108               	decf	((c:_Command_Value+2)),c,w
  9477  001E28  0466               	btfss	status,0
  9478  001E2A  A0D8               	goto	u2751
  9479  001E2C  EF1A  F00F         	goto	u2750
  9480  001E30  EF1C  F00F         
  9481                           u2751:
  9482  001E34                     	goto	l2683
  9483  001E34  EF22  F00F         u2750:
  9484  001E38                     	
  9485                           l2681:
  9486  001E38                     	movlw	high(07h)
  9487  001E38  0E00               	movwf	((c:AT_Command@Length+1)),c
  9488  001E3A  6E14               	movlw	low(07h)
  9489  001E3C  0E07               	movwf	((c:AT_Command@Length)),c
  9490  001E3E  6E13               	goto	l2691
  9491  001E40  EF45  F00F         	line	262
  9492                           ;PIC_Interface_with_XBee.c: 262:   else if(Command_Value > 0x00FF) Length = 6;
  9493                           	
  9494                           l202:
  9495  001E44                     	
  9496                           l2683:
  9497  001E44                     		movf	((c:_Command_Value+3)),c,w
  9498  001E44  5067               	iorwf	((c:_Command_Value+2)),c,w
  9499  001E46  1066               	bnz	u2760
  9500  001E48  E108               	decf	((c:_Command_Value+1)),c,w
  9501  001E4A  0465               	btfss	status,0
  9502  001E4C  A0D8               	goto	u2761
  9503  001E4E  EF2B  F00F         	goto	u2760
  9504  001E52  EF2D  F00F         
  9505                           u2761:
  9506  001E56                     	goto	l2687
  9507  001E56  EF33  F00F         u2760:
  9508  001E5A                     	
  9509                           l2685:
  9510  001E5A                     	movlw	high(06h)
  9511  001E5A  0E00               	movwf	((c:AT_Command@Length+1)),c
  9512  001E5C  6E14               	movlw	low(06h)
  9513  001E5E  0E06               	movwf	((c:AT_Command@Length)),c
  9514  001E60  6E13               	goto	l2691
  9515  001E62  EF45  F00F         	line	263
  9516                           ;PIC_Interface_with_XBee.c: 263:   else Length = 5;
  9517                           	
  9518                           l204:
  9519  001E66                     	
  9520                           l2687:
  9521  001E66                     	movlw	high(05h)
  9522  001E66  0E00               	movwf	((c:AT_Command@Length+1)),c
  9523  001E68  6E14               	movlw	low(05h)
  9524  001E6A  0E05               	movwf	((c:AT_Command@Length)),c
  9525  001E6C  6E13               	goto	l2691
  9526  001E6E  EF45  F00F         	
  9527                           l205:
  9528  001E72                     	goto	l2691
  9529  001E72  EF45  F00F         	
  9530                           l203:
  9531  001E76                     	goto	l2691
  9532  001E76  EF45  F00F         	
  9533                           l201:
  9534  001E7A                     	line	264
  9535                           ;PIC_Interface_with_XBee.c: 264:  }
  9536                           	goto	l2691
  9537  001E7A  EF45  F00F         	line	265
  9538                           ;PIC_Interface_with_XBee.c: 265:  else
  9539                           	
  9540                           l199:
  9541  001E7E                     	line	266
  9542                           	
  9543                           l2689:
  9544  001E7E                     ;PIC_Interface_with_XBee.c: 266:   Length = 4;
  9545                           	movlw	high(04h)
  9546  001E7E  0E00               	movwf	((c:AT_Command@Length+1)),c
  9547  001E80  6E14               	movlw	low(04h)
  9548  001E82  0E04               	movwf	((c:AT_Command@Length)),c
  9549  001E84  6E13               	goto	l2691
  9550  001E86  EF45  F00F         	
  9551                           l206:
  9552  001E8A                     	line	271
  9553                           	
  9554                           l2691:
  9555  001E8A                     ;PIC_Interface_with_XBee.c: 271:  Checksum = 0x08 + 0x01 + ATCommand[0] + ATCommand[1];

  9556                           	movff	(c:AT_Command@ATCommand),tblptrl
  9557  001E8A  C00A  FFF6         	movff	(c:AT_Command@ATCommand+1),tblptrh
  9558  001E8E  C00B  FFF7         	if	0	;tblptru may be non-zero
  9559  001E92                     	clrf	tblptru
  9561  001E92                     	if	0	;tblptru may be non-zero
  9562  001E92                     	global __mediumconst
  9563                           movlw	low highword(__mediumconst)
  9566  001E92                     	tblrd	*
  9567  001E92  0008               	
  9568                           	movf	tablat,w
  9569  001E94  50F5               	movwf	(??_AT_Command+0+0)&0ffh,c
  9570  001E96  6E0D               	clrf	(??_AT_Command+0+0+1)&0ffh,c
  9571  001E98  6A0E               
  9572                           	movlw	01h
  9573  001E9A  0E01               	addwf	((c:AT_Command@ATCommand)),c,w
  9574  001E9C  240A               	movwf	(??_AT_Command+2+0)&0ffh,c
  9575  001E9E  6E0F               	movlw	0
  9576  001EA0  0E00               	addwfc	((c:AT_Command@ATCommand+1)),c,w
  9577  001EA2  200B               	movwf	(??_AT_Command+2+0+1)&0ffh,c
  9578  001EA4  6E10               	movff	??_AT_Command+2+0,tblptrl
  9579  001EA6  C00F  FFF6         	movff	??_AT_Command+2+1,tblptrh
  9580  001EAA  C010  FFF7         	if	0	;tblptru may be non-zero
  9581  001EAE                     	clrf	tblptru
  9583  001EAE                     	if	0	;tblptru may be non-zero
  9584  001EAE                     	global __mediumconst
  9585                           movlw	low highword(__mediumconst)
  9588  001EAE                     	tblrd	*
  9589  001EAE  0008               	
  9590                           	movf	tablat,w
  9591  001EB0  50F5               
  9592                           	addwf	(??_AT_Command+0+0),c
  9593  001EB2  260D               	movlw	0
  9594  001EB4  0E00               	addwfc	(??_AT_Command+0+1),c
  9595  001EB6  220E               	movlw	low(09h)
  9596  001EB8  0E09               	addwf	(??_AT_Command+0+0),c,w
  9597  001EBA  240D               	movwf	((c:AT_Command@Checksum)),c
  9598  001EBC  6E11               	movlw	high(09h)
  9599  001EBE  0E00               	addwfc	(??_AT_Command+0+1),c,w
  9600  001EC0  200E               	movwf	1+((c:AT_Command@Checksum)),c
  9601  001EC2  6E12               	line	272
  9602                           	
  9603                           l2693:
  9604  001EC4                     ;PIC_Interface_with_XBee.c: 272:  if (action == 1)
  9605                           		decf	((c:AT_Command@action)),c,w
  9606  001EC4  040C               	btfss	status,2
  9607  001EC6  A4D8               	goto	u2771
  9608  001EC8  EF68  F00F         	goto	u2770
  9609  001ECC  EF6A  F00F         
  9610                           u2771:
  9611  001ED0                     	goto	l207
  9612  001ED0  EF8F  F00F         u2770:
  9613  001ED4                     	line	273
  9614                           	
  9615                           l2695:
  9616  001ED4                     ;PIC_Interface_with_XBee.c: 273:  Checksum = Checksum + (Command_Value >> 24) + (Command
                                 _Value >> 16) + (Command_Value >> 8) + Command_Value ;
  9617                           	movff	(c:_Command_Value),??_AT_Command+0+0
  9618  001ED4  C064  F00D         	movff	(c:_Command_Value+1),??_AT_Command+0+0+1
  9619  001ED8  C065  F00E         	movff	(c:_Command_Value+2),??_AT_Command+0+0+2
  9620  001EDC  C066  F00F         	movff	(c:_Command_Value+3),??_AT_Command+0+0+3
  9621  001EE0  C067  F010         	movlw	018h+1
  9622  001EE4  0E19               	goto	u2780
  9623  001EE6  EF7A  F00F         u2785:
  9624  001EEA                     	bcf	status,0
  9625  001EEA  90D8               	rrcf	(??_AT_Command+0+3),c
  9626  001EEC  3210               	rrcf	(??_AT_Command+0+2),c
  9627  001EEE  320F               	rrcf	(??_AT_Command+0+1),c
  9628  001EF0  320E               	rrcf	(??_AT_Command+0+0),c
  9629  001EF2  320D               u2780:
  9630  001EF4                     	decfsz	wreg
  9631  001EF4  2EE8               	goto	u2785
  9632  001EF6  EF75  F00F         	movf	(0+2+(c:_Command_Value)),c,w
  9633  001EFA  5066               	addwf	(??_AT_Command+0+0),c
  9634  001EFC  260D               	movf	(1+2+(c:_Command_Value)),c,w
  9635  001EFE  5067               	addwfc	(??_AT_Command+0+1),c
  9636  001F00  220E               	movf	(0+1+(c:_Command_Value)),c,w
  9637  001F02  5065               	addwf	(??_AT_Command+0+0),c
  9638  001F04  260D               	movf	(1+1+(c:_Command_Value)),c,w
  9639  001F06  5066               	addwfc	(??_AT_Command+0+1),c
  9640  001F08  220E               	movf	((c:AT_Command@Checksum)),c,w
  9641  001F0A  5011               	addwf	(??_AT_Command+0+0),c
  9642  001F0C  260D               	movf	((c:AT_Command@Checksum+1)),c,w
  9643  001F0E  5012               	addwfc	(??_AT_Command+0+1),c
  9644  001F10  220E               	movf	((c:_Command_Value)),c,w
  9645  001F12  5064               	addwf	(??_AT_Command+0+0),c,w
  9646  001F14  240D               	movwf	((c:AT_Command@Checksum)),c
  9647  001F16  6E11               	movf	((c:_Command_Value+1)),c,w
  9648  001F18  5065               	addwfc	(??_AT_Command+0+1),c,w
  9649  001F1A  200E               	movwf	1+((c:AT_Command@Checksum)),c
  9650  001F1C  6E12               	
  9651                           l207:
  9652  001F1E                     	line	274
  9653                           ;PIC_Interface_with_XBee.c: 274:  Checksum = 0xFF - Checksum;
  9654                           	movff	(c:AT_Command@Checksum),??_AT_Command+0+0
  9655  001F1E  C011  F00D         	movff	(c:AT_Command@Checksum+1),??_AT_Command+0+0+1
  9656  001F22  C012  F00E         	comf	(??_AT_Command+0+0),c
  9657  001F26  1E0D               	comf	(??_AT_Command+0+1),c
  9658  001F28  1E0E               	infsnz	(??_AT_Command+0+0),c
  9659  001F2A  4A0D               	incf	(??_AT_Command+0+1),c
  9660  001F2C  2A0E               	movlw	low(0FFh)
  9661  001F2E  0EFF               	addwf	(??_AT_Command+0+0),c,w
  9662  001F30  240D               	movwf	((c:AT_Command@Checksum)),c
  9663  001F32  6E11               	movlw	high(0FFh)
  9664  001F34  0E00               	addwfc	(??_AT_Command+0+1),c,w
  9665  001F36  200E               	movwf	1+((c:AT_Command@Checksum)),c
  9666  001F38  6E12               	line	277
  9667                           	
  9668                           l2697:
  9669  001F3A                     ;PIC_Interface_with_XBee.c: 277:  USART_TxChar(0x7E);
  9670                           	movlw	(07Eh)&0ffh
  9671  001F3A  0E7E               	
  9672                           	call	_USART_TxChar
  9673  001F3C  EC1B  F019         	line	278
  9674                           	
  9675                           l2699:
  9676  001F40                     ;PIC_Interface_with_XBee.c: 278:  USART_TxChar(Length >> 8);
  9677                           	movf	((c:AT_Command@Length+1)),c,w
  9678  001F40  5014               	
  9679                           	call	_USART_TxChar
  9680  001F42  EC1B  F019         	line	279
  9681                           	
  9682                           l2701:
  9683  001F46                     ;PIC_Interface_with_XBee.c: 279:  USART_TxChar(Length);
  9684                           	movf	((c:AT_Command@Length)),c,w
  9685  001F46  5013               	
  9686                           	call	_USART_TxChar
  9687  001F48  EC1B  F019         	line	280
  9688                           	
  9689                           l2703:
  9690  001F4C                     ;PIC_Interface_with_XBee.c: 280:  USART_TxChar(0x08);
  9691                           	movlw	(08h)&0ffh
  9692  001F4C  0E08               	
  9693                           	call	_USART_TxChar
  9694  001F4E  EC1B  F019         	line	281
  9695                           	
  9696                           l2705:
  9697  001F52                     ;PIC_Interface_with_XBee.c: 281:  USART_TxChar(0x01);
  9698                           	movlw	(01h)&0ffh
  9699  001F52  0E01               	
  9700                           	call	_USART_TxChar
  9701  001F54  EC1B  F019         	line	282
  9702                           	
  9703                           l2707:
  9704  001F58                     ;PIC_Interface_with_XBee.c: 282:  USART_SendString(ATCommand);
  9705                           		movff	(c:AT_Command@ATCommand),(c:USART_SendString@str)
  9706  001F58  C00A  F008         	movff	(c:AT_Command@ATCommand+1),(c:USART_SendString@str+1)
  9707  001F5C  C00B  F009         
  9708                           	call	_USART_SendString	;wreg free
  9709  001F60  ECBF  F018         	line	285
  9710                           	
  9711                           l2709:
  9712  001F64                     ;PIC_Interface_with_XBee.c: 285:  if(action == 1)
  9713                           		decf	((c:AT_Command@action)),c,w
  9714  001F64  040C               	btfss	status,2
  9715  001F66  A4D8               	goto	u2791
  9716  001F68  EFB8  F00F         	goto	u2790
  9717  001F6C  EFBA  F00F         
  9718                           u2791:
  9719  001F70                     	goto	l208
  9720  001F70  EFF1  F00F         u2790:
  9721  001F74                     	line	287
  9722                           	
  9723                           l2711:
  9724  001F74                     ;PIC_Interface_with_XBee.c: 286:  {;PIC_Interface_with_XBee.c: 287:   if(Length == 8)
  9725                           		movlw	8
  9726  001F74  0E08               	xorwf	((c:AT_Command@Length)),c,w
  9727  001F76  1813               iorwf	((c:AT_Command@Length+1)),c,w
  9728  001F78  1014               	btfss	status,2
  9729  001F7A  A4D8               	goto	u2801
  9730  001F7C  EFC2  F00F         	goto	u2800
  9731  001F80  EFC4  F00F         
  9732                           u2801:
  9733  001F84                     	goto	l2715
  9734  001F84  EFCF  F00F         u2800:
  9735  001F88                     	line	289
  9736                           	
  9737                           l2713:
  9738  001F88                     ;PIC_Interface_with_XBee.c: 288:   {;PIC_Interface_with_XBee.c: 289:    USART_TxChar(Com
                                 mand_Value >> 24);
  9739                           	movf	(0+3+(c:_Command_Value)),c,w
  9740  001F88  5067               	
  9741                           	call	_USART_TxChar
  9742  001F8A  EC1B  F019         	line	290
  9743                           ;PIC_Interface_with_XBee.c: 290:    USART_TxChar(Command_Value >> 16);
  9744                           	movf	(0+2+(c:_Command_Value)),c,w
  9745  001F8E  5066               	
  9746                           	call	_USART_TxChar
  9747  001F90  EC1B  F019         	line	291
  9748                           ;PIC_Interface_with_XBee.c: 291:    USART_TxChar(Command_Value >> 8);
  9749                           	movf	(0+1+(c:_Command_Value)),c,w
  9750  001F94  5065               	
  9751                           	call	_USART_TxChar
  9752  001F96  EC1B  F019         	goto	l2715
  9753  001F9A  EFCF  F00F         	line	292
  9754                           ;PIC_Interface_with_XBee.c: 292:   }
  9755                           	
  9756                           l209:
  9757  001F9E                     	line	293
  9758                           	
  9759                           l2715:
  9760  001F9E                     ;PIC_Interface_with_XBee.c: 293:   if(Length == 7)
  9761                           		movlw	7
  9762  001F9E  0E07               	xorwf	((c:AT_Command@Length)),c,w
  9763  001FA0  1813               iorwf	((c:AT_Command@Length+1)),c,w
  9764  001FA2  1014               	btfss	status,2
  9765  001FA4  A4D8               	goto	u2811
  9766  001FA6  EFD7  F00F         	goto	u2810
  9767  001FAA  EFD9  F00F         
  9768                           u2811:
  9769  001FAE                     	goto	l2719
  9770  001FAE  EFE1  F00F         u2810:
  9771  001FB2                     	line	295
  9772                           	
  9773                           l2717:
  9774  001FB2                     ;PIC_Interface_with_XBee.c: 294:   {;PIC_Interface_with_XBee.c: 295:    USART_TxChar(Com
                                 mand_Value >> 16);
  9775                           	movf	(0+2+(c:_Command_Value)),c,w
  9776  001FB2  5066               	
  9777                           	call	_USART_TxChar
  9778  001FB4  EC1B  F019         	line	296
  9779                           ;PIC_Interface_with_XBee.c: 296:    USART_TxChar(Command_Value >> 8);
  9780                           	movf	(0+1+(c:_Command_Value)),c,w
  9781  001FB8  5065               	
  9782                           	call	_USART_TxChar
  9783  001FBA  EC1B  F019         	goto	l2719
  9784  001FBE  EFE1  F00F         	line	297
  9785                           ;PIC_Interface_with_XBee.c: 297:   }
  9786                           	
  9787                           l210:
  9788  001FC2                     	line	298
  9789                           	
  9790                           l2719:
  9791  001FC2                     ;PIC_Interface_with_XBee.c: 298:   if(Length == 6)
  9792                           		movlw	6
  9793  001FC2  0E06               	xorwf	((c:AT_Command@Length)),c,w
  9794  001FC4  1813               iorwf	((c:AT_Command@Length+1)),c,w
  9795  001FC6  1014               	btfss	status,2
  9796  001FC8  A4D8               	goto	u2821
  9797  001FCA  EFE9  F00F         	goto	u2820
  9798  001FCE  EFEB  F00F         
  9799                           u2821:
  9800  001FD2                     	goto	l211
  9801  001FD2  EFEE  F00F         u2820:
  9802  001FD6                     	line	299
  9803                           	
  9804                           l2721:
  9805  001FD6                     ;PIC_Interface_with_XBee.c: 299:    USART_TxChar(Command_Value >> 8);
  9806                           	movf	(0+1+(c:_Command_Value)),c,w
  9807  001FD6  5065               	
  9808                           	call	_USART_TxChar
  9809  001FD8  EC1B  F019         	
  9810                           l211:
  9811  001FDC                     	line	301
  9812                           ;PIC_Interface_with_XBee.c: 301:   USART_TxChar(Command_Value);
  9813                           	movf	((c:_Command_Value)),c,w
  9814  001FDC  5064               	
  9815                           	call	_USART_TxChar
  9816  001FDE  EC1B  F019         	line	302
  9817                           ;PIC_Interface_with_XBee.c: 302:  }
  9818                           	
  9819                           l208:
  9820  001FE2                     	line	303
  9821                           ;PIC_Interface_with_XBee.c: 303:  USART_TxChar(Checksum);
  9822                           	movf	((c:AT_Command@Checksum)),c,w
  9823  001FE2  5011               	
  9824                           	call	_USART_TxChar
  9825  001FE4  EC1B  F019         	line	304
  9826                           	
  9827                           l212:
  9828  001FE8                     	return	;funcret
  9829  001FE8  0012               	opt stack 0
  9830                           GLOBAL	__end_of_AT_Command
  9831                           	__end_of_AT_Command:
  9832  001FEA                     	signat	_AT_Command,8313
  9833                           	global	_USART_SendString
  9834                           
  9835 ;; *************** function _USART_SendString *****************
  9836 ;; Defined at:
  9837 ;;		line 30 in file "USART_Source_File.c"
  9838 ;; Parameters:    Size  Location     Type
  9839 ;;  str             2    7[COMRAM] PTR const unsigned char 
  9840 ;;		 -> STR_8(3), STR_2(3), STR_1(3), 
  9841 ;; Auto vars:     Size  Location     Type
  9842 ;;		None
  9843 ;; Return value:  Size  Location     Type
  9844 ;;                  1    wreg      void 
  9845 ;; Registers used:
  9846 ;;		wreg, status,2, status,0, tblptrl, tblptrh, tblptru, cstack
  9847 ;; Tracked objects:
  9848 ;;		On entry : 0/0
  9849 ;;		On exit  : 0/0
  9850 ;;		Unchanged: 0/0
  9851 ;; Data sizes:     COMRAM   BANK0   BANK1   BANK2   BANK3   BANK4   BANK5
  9852 ;;      Params:         2       0       0       0       0       0       0
  9853 ;;      Locals:         0       0       0       0       0       0       0
  9854 ;;      Temps:          0       0       0       0       0       0       0
  9855 ;;      Totals:         2       0       0       0       0       0       0
  9856 ;;Total ram usage:        2 bytes
  9857 ;; Hardware stack levels used:    1
  9858 ;; Hardware stack levels required when called:    2
  9859 ;; This function calls:
  9860 ;;		_USART_TxChar
  9861 ;; This function is called by:
  9862 ;;		_Remote_AT_Command
  9863 ;;		_AT_Command
  9864 ;; This function uses a non-reentrant model
  9865 ;;
  9866                           psect	text23,class=CODE,space=0,reloc=2,group=0
  9867                           	file	"USART_Source_File.c"
  9868                           	line	30
  9869                           global __ptext23
  9870                           __ptext23:
  9871  00317E                     psect	text23
  9872                           	file	"USART_Source_File.c"
  9873                           	line	30
  9874                           	global	__size_of_USART_SendString
  9875                           	__size_of_USART_SendString	equ	__end_of_USART_SendString-_USART_SendString
  9876  0000                     	
  9877                           _USART_SendString:
  9878  00317E                     ;incstack = 0
  9879                           	opt	stack 26
  9880                           	line	32
  9881                           	
  9882                           l2545:
  9883  00317E                     ;USART_Source_File.c: 30: void USART_SendString(const char *str);USART_Source_File.c: 31
                                 : {;USART_Source_File.c: 32:    while(*str!='\0')
  9884                           	goto	l2551
  9885  00317E  EFCD  F018         	
  9886                           l294:
  9887  003182                     	line	34
  9888                           	
  9889                           l2547:
  9890  003182                     ;USART_Source_File.c: 33:    {;USART_Source_File.c: 34:         USART_TxChar(*str);
  9891                           	movff	(c:USART_SendString@str),tblptrl
  9892  003182  C008  FFF6         	movff	(c:USART_SendString@str+1),tblptrh
  9893  003186  C009  FFF7         	if	0	;tblptru may be non-zero
  9894  00318A                     	clrf	tblptru
  9896  00318A                     	if	0	;tblptru may be non-zero
  9897  00318A                     	global __mediumconst
  9898                           movlw	low highword(__mediumconst)
  9901  00318A                     	tblrd	*
  9902  00318A  0008               	
  9903                           	movf	tablat,w
  9904  00318C  50F5               	
  9905                           	call	_USART_TxChar
  9906  00318E  EC1B  F019         	line	35
  9907                           	
  9908                           l2549:
  9909  003192                     ;USART_Source_File.c: 35:         str++;
  9910                           	infsnz	((c:USART_SendString@str)),c
  9911  003192  4A08               	incf	((c:USART_SendString@str+1)),c
  9912  003194  2A09               	goto	l2551
  9913  003196  EFCD  F018         	line	36
  9914                           ;USART_Source_File.c: 36:    }
  9915                           	
  9916                           l293:
  9917  00319A                     	line	32
  9918                           	
  9919                           l2551:
  9920  00319A                     ;USART_Source_File.c: 32:    while(*str!='\0')
  9921                           	movff	(c:USART_SendString@str),tblptrl
  9922  00319A  C008  FFF6         	movff	(c:USART_SendString@str+1),tblptrh
  9923  00319E  C009  FFF7         	if	0	;tblptru may be non-zero
  9924  0031A2                     	clrf	tblptru
  9926  0031A2                     	if	0	;tblptru may be non-zero
  9927  0031A2                     	global __mediumconst
  9928                           movlw	low highword(__mediumconst)
  9931  0031A2                     	tblrd	*
  9932  0031A2  0008               	
  9933                           	movf	tablat,w
  9934  0031A4  50F5               	iorlw	0
  9935  0031A6  0900               	btfss	status,2
  9936  0031A8  A4D8               	goto	u2501
  9937  0031AA  EFD9  F018         	goto	u2500
  9938  0031AE  EFDB  F018         u2501:
  9939  0031B2                     	goto	l2547
  9940  0031B2  EFC1  F018         u2500:
  9941  0031B6                     	goto	l296
  9942  0031B6  EFDD  F018         	
  9943                           l295:
  9944  0031BA                     	line	37
  9945                           	
  9946                           l296:
  9947  0031BA                     	return	;funcret
  9948  0031BA  0012               	opt stack 0
  9949                           GLOBAL	__end_of_USART_SendString
  9950                           	__end_of_USART_SendString:
  9951  0031BC                     	signat	_USART_SendString,4217
  9952                           	global	_USART_TxChar
  9953                           
  9954 ;; *************** function _USART_TxChar *****************
  9955 ;; Defined at:
  9956 ;;		line 17 in file "USART_Source_File.c"
  9957 ;; Parameters:    Size  Location     Type
  9958 ;;  data            1    wreg     unsigned char 
  9959 ;; Auto vars:     Size  Location     Type
  9960 ;;  data            1    6[COMRAM] unsigned char 
  9961 ;; Return value:  Size  Location     Type
  9962 ;;                  1    wreg      void 
  9963 ;; Registers used:
  9964 ;;		wreg
  9965 ;; Tracked objects:
  9966 ;;		On entry : 0/0
  9967 ;;		On exit  : 0/0
  9968 ;;		Unchanged: 0/0
  9969 ;; Data sizes:     COMRAM   BANK0   BANK1   BANK2   BANK3   BANK4   BANK5
  9970 ;;      Params:         0       0       0       0       0       0       0
  9971 ;;      Locals:         1       0       0       0       0       0       0
  9972 ;;      Temps:          0       0       0       0       0       0       0
  9973 ;;      Totals:         1       0       0       0       0       0       0
  9974 ;;Total ram usage:        1 bytes
  9975 ;; Hardware stack levels used:    1
  9976 ;; Hardware stack levels required when called:    1
  9977 ;; This function calls:
  9978 ;;		Nothing
  9979 ;; This function is called by:
  9980 ;;		_Remote_AT_Command
  9981 ;;		_AT_Command
  9982 ;;		_USART_SendString
  9983 ;; This function uses a non-reentrant model
  9984 ;;
  9985                           psect	text24,class=CODE,space=0,reloc=2,group=0
  9986                           	line	17
  9987                           global __ptext24
  9988                           __ptext24:
  9989  003236                     psect	text24
  9990                           	file	"USART_Source_File.c"
  9991                           	line	17
  9992                           	global	__size_of_USART_TxChar
  9993                           	__size_of_USART_TxChar	equ	__end_of_USART_TxChar-_USART_TxChar
  9994  0000                     	
  9995                           _USART_TxChar:
  9996  003236                     ;incstack = 0
  9997                           	opt	stack 27
  9998                           ;USART_TxChar@data stored from wreg
  9999                           	movwf	((c:USART_TxChar@data)),c
 10000  003236  6E07               	line	19
 10001                           	
 10002                           l2419:
 10003  003238                     ;USART_Source_File.c: 17: void USART_TxChar(char data);USART_Source_File.c: 18: {;USART_
                                 Source_File.c: 19:     while(!TXIF);
 10004                           	goto	l281
 10005  003238  EF1E  F019         	
 10006                           l282:
 10007  00323C                     	
 10008                           l281:
 10009  00323C                     	btfss	c:(31988/8),(31988)&7	;volatile
 10010  00323C  A89E               	goto	u2281
 10011  00323E  EF23  F019         	goto	u2280
 10012  003242  EF25  F019         u2281:
 10013  003246                     	goto	l281
 10014  003246  EF1E  F019         u2280:
 10015  00324A                     	goto	l2421
 10016  00324A  EF27  F019         	
 10017                           l283:
 10018  00324E                     	line	20
 10019                           	
 10020                           l2421:
 10021  00324E                     ;USART_Source_File.c: 20:     TXREG = data;
 10022                           	movff	(c:USART_TxChar@data),(c:4013)	;volatile
 10023  00324E  C007  FFAD         	line	21
 10024                           	
 10025                           l284:
 10026  003252                     	return	;funcret
 10027  003252  0012               	opt stack 0
 10028                           GLOBAL	__end_of_USART_TxChar
 10029                           	__end_of_USART_TxChar:
 10030  003254                     	signat	_USART_TxChar,4217
 10031                           	global	_LCD_String_xy
 10032                           
 10033 ;; *************** function _LCD_String_xy *****************
 10034 ;; Defined at:
 10035 ;;		line 59 in file "LCD_16x2_Source_file.c"
 10036 ;; Parameters:    Size  Location     Type
 10037 ;;  row             1    wreg     unsigned char 
 10038 ;;  pos             1   15[COMRAM] unsigned char 
 10039 ;;  msg             2   16[COMRAM] PTR const unsigned char 
 10040 ;;		 -> main@_buffer(25), STR_7(17), STR_6(17), STR_5(17), 
 10041 ;;		 -> STR_4(9), STR_3(15), 
 10042 ;; Auto vars:     Size  Location     Type
 10043 ;;  row             1   18[COMRAM] unsigned char 
 10044 ;;  location        1   19[COMRAM] unsigned char 
 10045 ;; Return value:  Size  Location     Type
 10046 ;;                  1    wreg      void 
 10047 ;; Registers used:
 10048 ;;		wreg, fsr1l, fsr1h, status,2, status,0, tblptrl, tblptrh, tblptru, cstack
 10049 ;; Tracked objects:
 10050 ;;		On entry : 0/0
 10051 ;;		On exit  : 0/0
 10052 ;;		Unchanged: 0/0
 10053 ;; Data sizes:     COMRAM   BANK0   BANK1   BANK2   BANK3   BANK4   BANK5
 10054 ;;      Params:         3       0       0       0       0       0       0
 10055 ;;      Locals:         2       0       0       0       0       0       0
 10056 ;;      Temps:          0       0       0       0       0       0       0
 10057 ;;      Totals:         5       0       0       0       0       0       0
 10058 ;;Total ram usage:        5 bytes
 10059 ;; Hardware stack levels used:    1
 10060 ;; Hardware stack levels required when called:    4
 10061 ;; This function calls:
 10062 ;;		_LCD_Command
 10063 ;;		_LCD_String
 10064 ;; This function is called by:
 10065 ;;		_main
 10066 ;; This function uses a non-reentrant model
 10067 ;;
 10068                           psect	text25,class=CODE,space=0,reloc=2,group=0
 10069                           	file	"LCD_16x2_Source_file.c"
 10070                           	line	59
 10071                           global __ptext25
 10072                           __ptext25:
 10073  002FB4                     psect	text25
 10074                           	file	"LCD_16x2_Source_file.c"
 10075                           	line	59
 10076                           	global	__size_of_LCD_String_xy
 10077                           	__size_of_LCD_String_xy	equ	__end_of_LCD_String_xy-_LCD_String_xy
 10078  0000                     	
 10079                           _LCD_String_xy:
 10080  002FB4                     ;incstack = 0
 10081                           	opt	stack 26
 10082                           ;LCD_String_xy@row stored from wreg
 10083                           	movwf	((c:LCD_String_xy@row)),c
 10084  002FB4  6E13               	line	61
 10085                           	
 10086                           l3445:
 10087  002FB6                     ;LCD_16x2_Source_file.c: 59: void LCD_String_xy(char row,char pos,const char *msg);LCD_1
                                 6x2_Source_file.c: 60: {;LCD_16x2_Source_file.c: 61:     char location=0;
 10088                           	movlw	low(0)
 10089  002FB6  0E00               	movwf	((c:LCD_String_xy@location)),c
 10090  002FB8  6E14               	line	62
 10091                           	
 10092                           l3447:
 10093  002FBA                     ;LCD_16x2_Source_file.c: 62:     if(row==1)
 10094                           		decf	((c:LCD_String_xy@row)),c,w
 10095  002FBA  0413               	btfss	status,2
 10096  002FBC  A4D8               	goto	u4161
 10097  002FBE  EFE3  F017         	goto	u4160
 10098  002FC2  EFE5  F017         
 10099                           u4161:
 10100  002FC6                     	goto	l3453
 10101  002FC6  EFEE  F017         u4160:
 10102  002FCA                     	line	64
 10103                           	
 10104                           l3449:
 10105  002FCA                     ;LCD_16x2_Source_file.c: 63:     {;LCD_16x2_Source_file.c: 64:         location=(0x80) |
                                  ((pos) & 0x0f);
 10106                           	movf	((c:LCD_String_xy@pos)),c,w
 10107  002FCA  5010               	andlw	low(0Fh)
 10108  002FCC  0B0F               	iorlw	low(080h)
 10109  002FCE  0980               	movwf	((c:LCD_String_xy@location)),c
 10110  002FD0  6E14               	line	65
 10111                           	
 10112                           l3451:
 10113  002FD2                     ;LCD_16x2_Source_file.c: 65:         LCD_Command(location);
 10114                           	movf	((c:LCD_String_xy@location)),c,w
 10115  002FD2  5014               	
 10116                           	call	_LCD_Command
 10117  002FD4  EC38  F019         	line	66
 10118                           ;LCD_16x2_Source_file.c: 66:     }
 10119                           	goto	l3459
 10120  002FD8  EF02  F018         	line	67
 10121                           ;LCD_16x2_Source_file.c: 67:     else if(row==2)
 10122                           	
 10123                           l37:
 10124  002FDC                     	
 10125                           l3453:
 10126  002FDC                     		movlw	2
 10127  002FDC  0E02               	xorwf	((c:LCD_String_xy@row)),c,w
 10128  002FDE  1813               	btfss	status,2
 10129  002FE0  A4D8               	goto	u4171
 10130  002FE2  EFF5  F017         	goto	u4170
 10131  002FE6  EFF7  F017         
 10132                           u4171:
 10133  002FEA                     	goto	l3459
 10134  002FEA  EF02  F018         u4170:
 10135  002FEE                     	line	69
 10136                           	
 10137                           l3455:
 10138  002FEE                     ;LCD_16x2_Source_file.c: 68:     {;LCD_16x2_Source_file.c: 69:         location=(0xC0) |
                                  ((pos) & 0x0f);
 10139                           	movf	((c:LCD_String_xy@pos)),c,w
 10140  002FEE  5010               	andlw	low(0Fh)
 10141  002FF0  0B0F               	iorlw	low(0C0h)
 10142  002FF2  09C0               	movwf	((c:LCD_String_xy@location)),c
 10143  002FF4  6E14               	line	70
 10144                           	
 10145                           l3457:
 10146  002FF6                     ;LCD_16x2_Source_file.c: 70:         LCD_Command(location);
 10147                           	movf	((c:LCD_String_xy@location)),c,w
 10148  002FF6  5014               	
 10149                           	call	_LCD_Command
 10150  002FF8  EC38  F019         	goto	l3459
 10151  002FFC  EF02  F018         	line	71
 10152                           ;LCD_16x2_Source_file.c: 71:     }
 10153                           	
 10154                           l39:
 10155  003000                     	goto	l3459
 10156  003000  EF02  F018         	
 10157                           l38:
 10158  003004                     	line	73
 10159                           	
 10160                           l3459:
 10161  003004                     ;LCD_16x2_Source_file.c: 73:     LCD_String(msg);
 10162                           		movff	(c:LCD_String_xy@msg),(c:LCD_String@str)
 10163  003004  C011  F00E         	movff	(c:LCD_String_xy@msg+1),(c:LCD_String@str+1)
 10164  003008  C012  F00F         
 10165                           	call	_LCD_String	;wreg free
 10166  00300C  EC18  F017         	line	74
 10167                           	
 10168                           l40:
 10169  003010                     	return	;funcret
 10170  003010  0012               	opt stack 0
 10171                           GLOBAL	__end_of_LCD_String_xy
 10172                           	__end_of_LCD_String_xy:
 10173  003012                     	signat	_LCD_String_xy,12409
 10174                           	global	_LCD_String
 10175                           
 10176 ;; *************** function _LCD_String *****************
 10177 ;; Defined at:
 10178 ;;		line 50 in file "LCD_16x2_Source_file.c"
 10179 ;; Parameters:    Size  Location     Type
 10180 ;;  str             2   13[COMRAM] PTR const unsigned char 
 10181 ;;		 -> main@_buffer(25), STR_7(17), STR_6(17), STR_5(17), 
 10182 ;;		 -> STR_4(9), STR_3(15), 
 10183 ;; Auto vars:     Size  Location     Type
 10184 ;;		None
 10185 ;; Return value:  Size  Location     Type
 10186 ;;                  1    wreg      void 
 10187 ;; Registers used:
 10188 ;;		wreg, fsr1l, fsr1h, status,2, status,0, tblptrl, tblptrh, tblptru, cstack
 10189 ;; Tracked objects:
 10190 ;;		On entry : 0/0
 10191 ;;		On exit  : 0/0
 10192 ;;		Unchanged: 0/0
 10193 ;; Data sizes:     COMRAM   BANK0   BANK1   BANK2   BANK3   BANK4   BANK5
 10194 ;;      Params:         2       0       0       0       0       0       0
 10195 ;;      Locals:         0       0       0       0       0       0       0
 10196 ;;      Temps:          0       0       0       0       0       0       0
 10197 ;;      Totals:         2       0       0       0       0       0       0
 10198 ;;Total ram usage:        2 bytes
 10199 ;; Hardware stack levels used:    1
 10200 ;; Hardware stack levels required when called:    3
 10201 ;; This function calls:
 10202 ;;		_LCD_Char
 10203 ;; This function is called by:
 10204 ;;		_LCD_String_xy
 10205 ;; This function uses a non-reentrant model
 10206 ;;
 10207                           psect	text26,class=CODE,space=0,reloc=2,group=0
 10208                           	line	50
 10209                           global __ptext26
 10210                           __ptext26:
 10211  002E30                     psect	text26
 10212                           	file	"LCD_16x2_Source_file.c"
 10213                           	line	50
 10214                           	global	__size_of_LCD_String
 10215                           	__size_of_LCD_String	equ	__end_of_LCD_String-_LCD_String
 10216  0000                     	
 10217                           _LCD_String:
 10218  002E30                     ;incstack = 0
 10219                           	opt	stack 26
 10220                           	line	52
 10221                           	
 10222                           l2777:
 10223  002E30                     ;LCD_16x2_Source_file.c: 50: void LCD_String(const char *str);LCD_16x2_Source_file.c: 51
                                 : {;LCD_16x2_Source_file.c: 52:  while((*str)!=0)
 10224                           	goto	l2783
 10225  002E30  EF30  F017         	
 10226                           l32:
 10227  002E34                     	line	54
 10228                           	
 10229                           l2779:
 10230  002E34                     ;LCD_16x2_Source_file.c: 53:  {;LCD_16x2_Source_file.c: 54:    LCD_Char(*str);
 10231                           	movff	(c:LCD_String@str),tblptrl
 10232  002E34  C00E  FFF6         	movff	(c:LCD_String@str+1),tblptrh
 10233  002E38  C00F  FFF7         	clrf	tblptru
 10234  002E3C  6AF8               	
 10235                           	movlw	high __ramtop-1
 10236  002E3E  0E05               	cpfsgt	tblptrh
 10237  002E40  64F7               	bra	u2877
 10238  002E42  D003               	tblrd	*
 10239  002E44  0008               	
 10240                           	movf	tablat,w
 10241  002E46  50F5               	bra	u2870
 10242  002E48  D005               u2877:
 10243  002E4A                     	movff	tblptrl,fsr1l
 10244  002E4A  CFF6 FFE1          	movff	tblptrh,fsr1h
 10245  002E4E  CFF7 FFE2          	movf	indf1,w
 10246  002E52  50E7               u2870:
 10247  002E54                     	
 10248                           	call	_LCD_Char
 10249  002E54  EC2A  F019         	line	55
 10250                           	
 10251                           l2781:
 10252  002E58                     ;LCD_16x2_Source_file.c: 55:    str++;
 10253                           	infsnz	((c:LCD_String@str)),c
 10254  002E58  4A0E               	incf	((c:LCD_String@str+1)),c
 10255  002E5A  2A0F               	goto	l2783
 10256  002E5C  EF30  F017         	line	56
 10257                           ;LCD_16x2_Source_file.c: 56:     }
 10258                           	
 10259                           l31:
 10260  002E60                     	line	52
 10261                           	
 10262                           l2783:
 10263  002E60                     ;LCD_16x2_Source_file.c: 52:  while((*str)!=0)
 10264                           	movff	(c:LCD_String@str),tblptrl
 10265  002E60  C00E  FFF6         	movff	(c:LCD_String@str+1),tblptrh
 10266  002E64  C00F  FFF7         	clrf	tblptru
 10267  002E68  6AF8               	
 10268                           	movlw	high __ramtop-1
 10269  002E6A  0E05               	cpfsgt	tblptrh
 10270  002E6C  64F7               	bra	u2887
 10271  002E6E  D003               	tblrd	*
 10272  002E70  0008               	
 10273                           	movf	tablat,w
 10274  002E72  50F5               	bra	u2880
 10275  002E74  D005               u2887:
 10276  002E76                     	movff	tblptrl,fsr1l
 10277  002E76  CFF6 FFE1          	movff	tblptrh,fsr1h
 10278  002E7A  CFF7 FFE2          	movf	indf1,w
 10279  002E7E  50E7               u2880:
 10280  002E80                     	iorlw	0
 10281  002E80  0900               	btfss	status,2
 10282  002E82  A4D8               	goto	u2891
 10283  002E84  EF46  F017         	goto	u2890
 10284  002E88  EF48  F017         u2891:
 10285  002E8C                     	goto	l2779
 10286  002E8C  EF1A  F017         u2890:
 10287  002E90                     	goto	l34
 10288  002E90  EF4A  F017         	
 10289                           l33:
 10290  002E94                     	line	57
 10291                           	
 10292                           l34:
 10293  002E94                     	return	;funcret
 10294  002E94  0012               	opt stack 0
 10295                           GLOBAL	__end_of_LCD_String
 10296                           	__end_of_LCD_String:
 10297  002E96                     	signat	_LCD_String,4217
 10298                           	global	_LCD_Char
 10299                           
 10300 ;; *************** function _LCD_Char *****************
 10301 ;; Defined at:
 10302 ;;		line 40 in file "LCD_16x2_Source_file.c"
 10303 ;; Parameters:    Size  Location     Type
 10304 ;;  Data            1    wreg     unsigned char 
 10305 ;; Auto vars:     Size  Location     Type
 10306 ;;  Data            1   12[COMRAM] unsigned char 
 10307 ;; Return value:  Size  Location     Type
 10308 ;;                  1    wreg      void 
 10309 ;; Registers used:
 10310 ;;		wreg, status,2, status,0, cstack
 10311 ;; Tracked objects:
 10312 ;;		On entry : 0/0
 10313 ;;		On exit  : 0/0
 10314 ;;		Unchanged: 0/0
 10315 ;; Data sizes:     COMRAM   BANK0   BANK1   BANK2   BANK3   BANK4   BANK5
 10316 ;;      Params:         0       0       0       0       0       0       0
 10317 ;;      Locals:         1       0       0       0       0       0       0
 10318 ;;      Temps:          0       0       0       0       0       0       0
 10319 ;;      Totals:         1       0       0       0       0       0       0
 10320 ;;Total ram usage:        1 bytes
 10321 ;; Hardware stack levels used:    1
 10322 ;; Hardware stack levels required when called:    2
 10323 ;; This function calls:
 10324 ;;		_MSdelay
 10325 ;; This function is called by:
 10326 ;;		_LCD_String
 10327 ;; This function uses a non-reentrant model
 10328 ;;
 10329                           psect	text27,class=CODE,space=0,reloc=2,group=0
 10330                           	line	40
 10331                           global __ptext27
 10332                           __ptext27:
 10333  003254                     psect	text27
 10334                           	file	"LCD_16x2_Source_file.c"
 10335                           	line	40
 10336                           	global	__size_of_LCD_Char
 10337                           	__size_of_LCD_Char	equ	__end_of_LCD_Char-_LCD_Char
 10338  0000                     	
 10339                           _LCD_Char:
 10340  003254                     ;incstack = 0
 10341                           	opt	stack 26
 10342                           ;LCD_Char@Data stored from wreg
 10343                           	movwf	((c:LCD_Char@Data)),c
 10344  003254  6E0D               	line	42
 10345                           	
 10346                           l2615:
 10347  003256                     ;LCD_16x2_Source_file.c: 40: void LCD_Char(char Data);LCD_16x2_Source_file.c: 41: {;LCD_
                                 16x2_Source_file.c: 42:  LATD = Data;
 10348                           	movff	(c:LCD_Char@Data),(c:3980)	;volatile
 10349  003256  C00D  FF8C         	line	43
 10350                           	
 10351                           l2617:
 10352  00325A                     ;LCD_16x2_Source_file.c: 43:  LATA0 = 1;
 10353                           	bsf	c:(31816/8),(31816)&7	;volatile
 10354  00325A  8089               	line	44
 10355                           	
 10356                           l2619:
 10357  00325C                     ;LCD_16x2_Source_file.c: 44:  LATA1=1;
 10358                           	bsf	c:(31817/8),(31817)&7	;volatile
 10359  00325C  8289               	line	45
 10360                           	
 10361                           l2621:
 10362  00325E                     ;LCD_16x2_Source_file.c: 45:  __nop();
 10363                           	opt	asmopt_push
 10364                           	opt	asmopt_off
 10365                           	nop
 10366  00325E  F000               	opt	asmopt_pop
 10367                           	line	46
 10368                           	
 10369                           l2623:
 10370  003260                     ;LCD_16x2_Source_file.c: 46:  LATA1=0;
 10371                           	bcf	c:(31817/8),(31817)&7	;volatile
 10372  003260  9289               	line	47
 10373                           	
 10374                           l2625:
 10375  003262                     ;LCD_16x2_Source_file.c: 47:     MSdelay(1);
 10376                           	movlw	high(01h)
 10377  003262  0E00               	movwf	((c:MSdelay@val+1)),c
 10378  003264  6E08               	movlw	low(01h)
 10379  003266  0E01               	movwf	((c:MSdelay@val)),c
 10380  003268  6E07               	call	_MSdelay	;wreg free
 10381  00326A  ECDE  F016         	line	48
 10382                           	
 10383                           l28:
 10384  00326E                     	return	;funcret
 10385  00326E  0012               	opt stack 0
 10386                           GLOBAL	__end_of_LCD_Char
 10387                           	__end_of_LCD_Char:
 10388  003270                     	signat	_LCD_Char,4217
 10389                           	global	_LCD_Init
 10390                           
 10391 ;; *************** function _LCD_Init *****************
 10392 ;; Defined at:
 10393 ;;		line 9 in file "LCD_16x2_Source_file.c"
 10394 ;; Parameters:    Size  Location     Type
 10395 ;;		None
 10396 ;; Auto vars:     Size  Location     Type
 10397 ;;		None
 10398 ;; Return value:  Size  Location     Type
 10399 ;;                  1    wreg      void 
 10400 ;; Registers used:
 10401 ;;		wreg, status,2, status,0, cstack
 10402 ;; Tracked objects:
 10403 ;;		On entry : 0/0
 10404 ;;		On exit  : 0/0
 10405 ;;		Unchanged: 0/0
 10406 ;; Data sizes:     COMRAM   BANK0   BANK1   BANK2   BANK3   BANK4   BANK5
 10407 ;;      Params:         0       0       0       0       0       0       0
 10408 ;;      Locals:         0       0       0       0       0       0       0
 10409 ;;      Temps:          0       0       0       0       0       0       0
 10410 ;;      Totals:         0       0       0       0       0       0       0
 10411 ;;Total ram usage:        0 bytes
 10412 ;; Hardware stack levels used:    1
 10413 ;; Hardware stack levels required when called:    3
 10414 ;; This function calls:
 10415 ;;		_LCD_Command
 10416 ;;		_MSdelay
 10417 ;; This function is called by:
 10418 ;;		_main
 10419 ;; This function uses a non-reentrant model
 10420 ;;
 10421                           psect	text28,class=CODE,space=0,reloc=2,group=0
 10422                           	line	9
 10423                           global __ptext28
 10424                           __ptext28:
 10425  00313E                     psect	text28
 10426                           	file	"LCD_16x2_Source_file.c"
 10427                           	line	9
 10428                           	global	__size_of_LCD_Init
 10429                           	__size_of_LCD_Init	equ	__end_of_LCD_Init-_LCD_Init
 10430  0000                     	
 10431                           _LCD_Init:
 10432  00313E                     ;incstack = 0
 10433                           	opt	stack 27
 10434                           	line	11
 10435                           	
 10436                           l3427:
 10437  00313E                     ;LCD_16x2_Source_file.c: 11:     TRISD = 0;
 10438                           	movlw	low(0)
 10439  00313E  0E00               	movwf	((c:3989)),c	;volatile
 10440  003140  6E95               	line	12
 10441                           ;LCD_16x2_Source_file.c: 12:     TRISA = 0;
 10442                           	movlw	low(0)
 10443  003142  0E00               	movwf	((c:3986)),c	;volatile
 10444  003144  6E92               	line	13
 10445                           	
 10446                           l3429:
 10447  003146                     ;LCD_16x2_Source_file.c: 13:     MSdelay(20);
 10448                           	movlw	high(014h)
 10449  003146  0E00               	movwf	((c:MSdelay@val+1)),c
 10450  003148  6E08               	movlw	low(014h)
 10451  00314A  0E14               	movwf	((c:MSdelay@val)),c
 10452  00314C  6E07               	call	_MSdelay	;wreg free
 10453  00314E  ECDE  F016         	line	14
 10454                           	
 10455                           l3431:
 10456  003152                     ;LCD_16x2_Source_file.c: 14:  LCD_Command(0x38);
 10457                           	movlw	(038h)&0ffh
 10458  003152  0E38               	
 10459                           	call	_LCD_Command
 10460  003154  EC38  F019         	line	15
 10461                           	
 10462                           l3433:
 10463  003158                     ;LCD_16x2_Source_file.c: 15:     LCD_Command(0x01);
 10464                           	movlw	(01h)&0ffh
 10465  003158  0E01               	
 10466                           	call	_LCD_Command
 10467  00315A  EC38  F019         	line	16
 10468                           	
 10469                           l3435:
 10470  00315E                     ;LCD_16x2_Source_file.c: 16:     MSdelay(2);
 10471                           	movlw	high(02h)
 10472  00315E  0E00               	movwf	((c:MSdelay@val+1)),c
 10473  003160  6E08               	movlw	low(02h)
 10474  003162  0E02               	movwf	((c:MSdelay@val)),c
 10475  003164  6E07               	call	_MSdelay	;wreg free
 10476  003166  ECDE  F016         	line	17
 10477                           	
 10478                           l3437:
 10479  00316A                     ;LCD_16x2_Source_file.c: 17:     LCD_Command(0x0c);
 10480                           	movlw	(0Ch)&0ffh
 10481  00316A  0E0C               	
 10482                           	call	_LCD_Command
 10483  00316C  EC38  F019         	line	18
 10484                           	
 10485                           l3439:
 10486  003170                     ;LCD_16x2_Source_file.c: 18:     LCD_Command(0x06);
 10487                           	movlw	(06h)&0ffh
 10488  003170  0E06               	
 10489                           	call	_LCD_Command
 10490  003172  EC38  F019         	line	19
 10491                           	
 10492                           l3441:
 10493  003176                     ;LCD_16x2_Source_file.c: 19:     LCD_Command(0x80);
 10494                           	movlw	(080h)&0ffh
 10495  003176  0E80               	
 10496                           	call	_LCD_Command
 10497  003178  EC38  F019         	line	20
 10498                           	
 10499                           l19:
 10500  00317C                     	return	;funcret
 10501  00317C  0012               	opt stack 0
 10502                           GLOBAL	__end_of_LCD_Init
 10503                           	__end_of_LCD_Init:
 10504  00317E                     	signat	_LCD_Init,89
 10505                           	global	_LCD_Clear
 10506                           
 10507 ;; *************** function _LCD_Clear *****************
 10508 ;; Defined at:
 10509 ;;		line 22 in file "LCD_16x2_Source_file.c"
 10510 ;; Parameters:    Size  Location     Type
 10511 ;;		None
 10512 ;; Auto vars:     Size  Location     Type
 10513 ;;		None
 10514 ;; Return value:  Size  Location     Type
 10515 ;;                  1    wreg      void 
 10516 ;; Registers used:
 10517 ;;		wreg, status,2, status,0, cstack
 10518 ;; Tracked objects:
 10519 ;;		On entry : 0/0
 10520 ;;		On exit  : 0/0
 10521 ;;		Unchanged: 0/0
 10522 ;; Data sizes:     COMRAM   BANK0   BANK1   BANK2   BANK3   BANK4   BANK5
 10523 ;;      Params:         0       0       0       0       0       0       0
 10524 ;;      Locals:         0       0       0       0       0       0       0
 10525 ;;      Temps:          0       0       0       0       0       0       0
 10526 ;;      Totals:         0       0       0       0       0       0       0
 10527 ;;Total ram usage:        0 bytes
 10528 ;; Hardware stack levels used:    1
 10529 ;; Hardware stack levels required when called:    3
 10530 ;; This function calls:
 10531 ;;		_LCD_Command
 10532 ;;		_MSdelay
 10533 ;; This function is called by:
 10534 ;;		_main
 10535 ;; This function uses a non-reentrant model
 10536 ;;
 10537                           psect	text29,class=CODE,space=0,reloc=2,group=0
 10538                           	line	22
 10539                           global __ptext29
 10540                           __ptext29:
 10541  0031EE                     psect	text29
 10542                           	file	"LCD_16x2_Source_file.c"
 10543                           	line	22
 10544                           	global	__size_of_LCD_Clear
 10545                           	__size_of_LCD_Clear	equ	__end_of_LCD_Clear-_LCD_Clear
 10546  0000                     	
 10547                           _LCD_Clear:
 10548  0031EE                     ;incstack = 0
 10549                           	opt	stack 27
 10550                           	line	24
 10551                           	
 10552                           l3443:
 10553  0031EE                     ;LCD_16x2_Source_file.c: 24:     LCD_Command(0x01);
 10554                           	movlw	(01h)&0ffh
 10555  0031EE  0E01               	
 10556                           	call	_LCD_Command
 10557  0031F0  EC38  F019         	line	25
 10558                           ;LCD_16x2_Source_file.c: 25:     MSdelay(2);
 10559                           	movlw	high(02h)
 10560  0031F4  0E00               	movwf	((c:MSdelay@val+1)),c
 10561  0031F6  6E08               	movlw	low(02h)
 10562  0031F8  0E02               	movwf	((c:MSdelay@val)),c
 10563  0031FA  6E07               	call	_MSdelay	;wreg free
 10564  0031FC  ECDE  F016         	line	26
 10565                           ;LCD_16x2_Source_file.c: 26:     LCD_Command(0x80);
 10566                           	movlw	(080h)&0ffh
 10567  003200  0E80               	
 10568                           	call	_LCD_Command
 10569  003202  EC38  F019         	line	27
 10570                           ;LCD_16x2_Source_file.c: 27:     MSdelay(1);
 10571                           	movlw	high(01h)
 10572  003206  0E00               	movwf	((c:MSdelay@val+1)),c
 10573  003208  6E08               	movlw	low(01h)
 10574  00320A  0E01               	movwf	((c:MSdelay@val)),c
 10575  00320C  6E07               	call	_MSdelay	;wreg free
 10576  00320E  ECDE  F016         	line	28
 10577                           	
 10578                           l22:
 10579  003212                     	return	;funcret
 10580  003212  0012               	opt stack 0
 10581                           GLOBAL	__end_of_LCD_Clear
 10582                           	__end_of_LCD_Clear:
 10583  003214                     	signat	_LCD_Clear,89
 10584                           	global	_LCD_Command
 10585                           
 10586 ;; *************** function _LCD_Command *****************
 10587 ;; Defined at:
 10588 ;;		line 30 in file "LCD_16x2_Source_file.c"
 10589 ;; Parameters:    Size  Location     Type
 10590 ;;  Command         1    wreg     unsigned char 
 10591 ;; Auto vars:     Size  Location     Type
 10592 ;;  Command         1   12[COMRAM] unsigned char 
 10593 ;; Return value:  Size  Location     Type
 10594 ;;                  1    wreg      void 
 10595 ;; Registers used:
 10596 ;;		wreg, status,2, status,0, cstack
 10597 ;; Tracked objects:
 10598 ;;		On entry : 0/0
 10599 ;;		On exit  : 0/0
 10600 ;;		Unchanged: 0/0
 10601 ;; Data sizes:     COMRAM   BANK0   BANK1   BANK2   BANK3   BANK4   BANK5
 10602 ;;      Params:         0       0       0       0       0       0       0
 10603 ;;      Locals:         1       0       0       0       0       0       0
 10604 ;;      Temps:          0       0       0       0       0       0       0
 10605 ;;      Totals:         1       0       0       0       0       0       0
 10606 ;;Total ram usage:        1 bytes
 10607 ;; Hardware stack levels used:    1
 10608 ;; Hardware stack levels required when called:    2
 10609 ;; This function calls:
 10610 ;;		_MSdelay
 10611 ;; This function is called by:
 10612 ;;		_LCD_Init
 10613 ;;		_LCD_Clear
 10614 ;;		_LCD_String_xy
 10615 ;; This function uses a non-reentrant model
 10616 ;;
 10617                           psect	text30,class=CODE,space=0,reloc=2,group=0
 10618                           	line	30
 10619                           global __ptext30
 10620                           __ptext30:
 10621  003270                     psect	text30
 10622                           	file	"LCD_16x2_Source_file.c"
 10623                           	line	30
 10624                           	global	__size_of_LCD_Command
 10625                           	__size_of_LCD_Command	equ	__end_of_LCD_Command-_LCD_Command
 10626  0000                     	
 10627                           _LCD_Command:
 10628  003270                     ;incstack = 0
 10629                           	opt	stack 27
 10630                           ;LCD_Command@Command stored from wreg
 10631                           	movwf	((c:LCD_Command@Command)),c
 10632  003270  6E0D               	line	32
 10633                           	
 10634                           l2765:
 10635  003272                     ;LCD_16x2_Source_file.c: 30: void LCD_Command(char Command );LCD_16x2_Source_file.c: 31:
                                  {;LCD_16x2_Source_file.c: 32:  LATD = Command;
 10636                           	movff	(c:LCD_Command@Command),(c:3980)	;volatile
 10637  003272  C00D  FF8C         	line	33
 10638                           	
 10639                           l2767:
 10640  003276                     ;LCD_16x2_Source_file.c: 33:  LATA0 = 0;
 10641                           	bcf	c:(31816/8),(31816)&7	;volatile
 10642  003276  9089               	line	34
 10643                           	
 10644                           l2769:
 10645  003278                     ;LCD_16x2_Source_file.c: 34:  LATA1 = 1;
 10646                           	bsf	c:(31817/8),(31817)&7	;volatile
 10647  003278  8289               	line	35
 10648                           	
 10649                           l2771:
 10650  00327A                     ;LCD_16x2_Source_file.c: 35:  __nop();
 10651                           	opt	asmopt_push
 10652                           	opt	asmopt_off
 10653                           	nop
 10654  00327A  F000               	opt	asmopt_pop
 10655                           	line	36
 10656                           	
 10657                           l2773:
 10658  00327C                     ;LCD_16x2_Source_file.c: 36:  LATA1 = 0;
 10659                           	bcf	c:(31817/8),(31817)&7	;volatile
 10660  00327C  9289               	line	37
 10661                           	
 10662                           l2775:
 10663  00327E                     ;LCD_16x2_Source_file.c: 37:     MSdelay(1);
 10664                           	movlw	high(01h)
 10665  00327E  0E00               	movwf	((c:MSdelay@val+1)),c
 10666  003280  6E08               	movlw	low(01h)
 10667  003282  0E01               	movwf	((c:MSdelay@val)),c
 10668  003284  6E07               	call	_MSdelay	;wreg free
 10669  003286  ECDE  F016         	line	38
 10670                           	
 10671                           l25:
 10672  00328A                     	return	;funcret
 10673  00328A  0012               	opt stack 0
 10674                           GLOBAL	__end_of_LCD_Command
 10675                           	__end_of_LCD_Command:
 10676  00328C                     	signat	_LCD_Command,4217
 10677                           	global	_Get_Sample
 10678                           
 10679 ;; *************** function _Get_Sample *****************
 10680 ;; Defined at:
 10681 ;;		line 177 in file "PIC_Interface_with_XBee.c"
 10682 ;; Parameters:    Size  Location     Type
 10683 ;;		None
 10684 ;; Auto vars:     Size  Location     Type
 10685 ;;  count           2   30[COMRAM] unsigned short 
 10686 ;; Return value:  Size  Location     Type
 10687 ;;                  1    wreg      _Bool 
 10688 ;; Registers used:
 10689 ;;		wreg, fsr2l, fsr2h, status,2, status,0, prodl, prodh, cstack
 10690 ;; Tracked objects:
 10691 ;;		On entry : 0/0
 10692 ;;		On exit  : 0/0
 10693 ;;		Unchanged: 0/0
 10694 ;; Data sizes:     COMRAM   BANK0   BANK1   BANK2   BANK3   BANK4   BANK5
 10695 ;;      Params:         0       0       0       0       0       0       0
 10696 ;;      Locals:         2       0       0       0       0       0       0
 10697 ;;      Temps:          0       0       0       0       0       0       0
 10698 ;;      Totals:         2       0       0       0       0       0       0
 10699 ;;Total ram usage:        2 bytes
 10700 ;; Hardware stack levels used:    1
 10701 ;; Hardware stack levels required when called:    3
 10702 ;; This function calls:
 10703 ;;		_Is_Data_Received
 10704 ;;		_MSdelay
 10705 ;;		_memset
 10706 ;;		_sample
 10707 ;; This function is called by:
 10708 ;;		_main
 10709 ;; This function uses a non-reentrant model
 10710 ;;
 10711                           psect	text31,class=CODE,space=0,reloc=2,group=0
 10712                           	file	"PIC_Interface_with_XBee.c"
 10713                           	line	177
 10714                           global __ptext31
 10715                           __ptext31:
 10716  002CCC                     psect	text31
 10717                           	file	"PIC_Interface_with_XBee.c"
 10718                           	line	177
 10719                           	global	__size_of_Get_Sample
 10720                           	__size_of_Get_Sample	equ	__end_of_Get_Sample-_Get_Sample
 10721  0000                     	
 10722                           _Get_Sample:
 10723  002CCC                     ;incstack = 0
 10724                           	opt	stack 27
 10725                           	line	179
 10726                           	
 10727                           l3461:
 10728  002CCC                     ;PIC_Interface_with_XBee.c: 179:  MSdelay(200);
 10729                           	movlw	high(0C8h)
 10730  002CCC  0E00               	movwf	((c:MSdelay@val+1)),c
 10731  002CCE  6E08               	movlw	low(0C8h)
 10732  002CD0  0EC8               	movwf	((c:MSdelay@val)),c
 10733  002CD2  6E07               	call	_MSdelay	;wreg free
 10734  002CD4  ECDE  F016         	line	180
 10735                           	
 10736                           l3463:
 10737  002CD8                     ;PIC_Interface_with_XBee.c: 180:  for (uint16_t count = 0; Is_Data_Received() == 0; coun
                                 t++)
 10738                           	movlw	high(0)
 10739  002CD8  0E00               	movwf	((c:Get_Sample@count+1)),c
 10740  002CDA  6E20               	movlw	low(0)
 10741  002CDC  0E00               	movwf	((c:Get_Sample@count)),c
 10742  002CDE  6E1F               	goto	l3471
 10743  002CE0  EF85  F016         	
 10744                           l169:
 10745  002CE4                     	line	182
 10746                           	
 10747                           l3465:
 10748  002CE4                     ;PIC_Interface_with_XBee.c: 181:  {;PIC_Interface_with_XBee.c: 182:   if(count>15000)
 10749                           		movlw	153
 10750  002CE4  0E99               	subwf	 ((c:Get_Sample@count)),c,w
 10751  002CE6  5C1F               	movlw	58
 10752  002CE8  0E3A               	subwfb	((c:Get_Sample@count+1)),c,w
 10753  002CEA  5820               	btfss	status,0
 10754  002CEC  A0D8               	goto	u4181
 10755  002CEE  EF7B  F016         	goto	u4180
 10756  002CF2  EF7D  F016         
 10757                           u4181:
 10758  002CF6                     	goto	l3469
 10759  002CF6  EF81  F016         u4180:
 10760  002CFA                     	goto	l171
 10761  002CFA  EFA3  F016         	line	184
 10762                           	
 10763                           l3467:
 10764  002CFE                     ;PIC_Interface_with_XBee.c: 183:   {;PIC_Interface_with_XBee.c: 184:    return 0;;	Retur
                                 n value of _Get_Sample is never used
 10765                           	goto	l171
 10766  002CFE  EFA3  F016         	line	185
 10767                           ;PIC_Interface_with_XBee.c: 185:   }
 10768                           	
 10769                           l170:
 10770  002D02                     	line	186
 10771                           	
 10772                           l3469:
 10773  002D02                     ;PIC_Interface_with_XBee.c: 186:  }
 10774                           	infsnz	((c:Get_Sample@count)),c
 10775  002D02  4A1F               	incf	((c:Get_Sample@count+1)),c
 10776  002D04  2A20               	goto	l3471
 10777  002D06  EF85  F016         	
 10778                           l168:
 10779  002D0A                     	
 10780                           l3471:
 10781  002D0A                     	call	_Is_Data_Received	;wreg free
 10782  002D0A  ECA4  F016         	iorlw	0
 10783  002D0E  0900               	btfsc	status,2
 10784  002D10  B4D8               	goto	u4191
 10785  002D12  EF8D  F016         	goto	u4190
 10786  002D16  EF8F  F016         u4191:
 10787  002D1A                     	goto	l3465
 10788  002D1A  EF72  F016         u4190:
 10789  002D1E                     	
 10790                           l172:
 10791  002D1E                     	line	187
 10792                           ;PIC_Interface_with_XBee.c: 187:     INTCONbits.GIE=0;
 10793                           	bcf	((c:4082)),c,7	;volatile
 10794  002D1E  9EF2               	line	188
 10795                           	
 10796                           l3473:
 10797  002D20                     ;PIC_Interface_with_XBee.c: 188:  sample();
 10798                           	call	_sample	;wreg free
 10799  002D20  ECAE  F00B         	line	189
 10800                           	
 10801                           l3475:
 10802  002D24                     ;PIC_Interface_with_XBee.c: 189:  memset(ReceiveBuffer,0,100);
 10803                           		movlw	low(_ReceiveBuffer)
 10804  002D24  0E00               	movwf	((c:memset@dest)),c
 10805  002D26  6E07               	movlw	high(_ReceiveBuffer)
 10806  002D28  0E01               	movwf	((c:memset@dest+1)),c
 10807  002D2A  6E08               
 10808                           	movlw	high(0)
 10809  002D2C  0E00               	movwf	((c:memset@c+1)),c
 10810  002D2E  6E0A               	movlw	low(0)
 10811  002D30  0E00               	movwf	((c:memset@c)),c
 10812  002D32  6E09               	movlw	high(064h)
 10813  002D34  0E00               	movwf	((c:memset@n+1)),c
 10814  002D36  6E0C               	movlw	low(064h)
 10815  002D38  0E64               	movwf	((c:memset@n)),c
 10816  002D3A  6E0B               	call	_memset	;wreg free
 10817  002D3C  ECC8  F011         	line	190
 10818                           	
 10819                           l3477:
 10820  002D40                     ;PIC_Interface_with_XBee.c: 190:     INTCONbits.GIE=1;
 10821                           	bsf	((c:4082)),c,7	;volatile
 10822  002D40  8EF2               	goto	l171
 10823  002D42  EFA3  F016         	line	191
 10824                           	
 10825                           l3479:
 10826  002D46                     	line	192
 10827                           ;PIC_Interface_with_XBee.c: 191:  return 1;;	Return value of _Get_Sample is never used
 10828                           	
 10829                           l171:
 10830  002D46                     	return	;funcret
 10831  002D46  0012               	opt stack 0
 10832                           GLOBAL	__end_of_Get_Sample
 10833                           	__end_of_Get_Sample:
 10834  002D48                     	signat	_Get_Sample,89
 10835                           	global	_sample
 10836                           
 10837 ;; *************** function _sample *****************
 10838 ;; Defined at:
 10839 ;;		line 116 in file "PIC_Interface_with_XBee.c"
 10840 ;; Parameters:    Size  Location     Type
 10841 ;;		None
 10842 ;; Auto vars:     Size  Location     Type
 10843 ;;  i               1   28[COMRAM] unsigned char 
 10844 ;;  j               1   27[COMRAM] unsigned char 
 10845 ;;  i               1   29[COMRAM] unsigned char 
 10846 ;;  Is_Digital      2   25[COMRAM] unsigned short 
 10847 ;;  Digital_Valu    2   22[COMRAM] unsigned short 
 10848 ;;  Length          2   19[COMRAM] unsigned short 
 10849 ;;  Is_Analog       1   24[COMRAM] unsigned char 
 10850 ;;  Frame_Type      1   21[COMRAM] unsigned char 
 10851 ;; Return value:  Size  Location     Type
 10852 ;;                  1    wreg      void 
 10853 ;; Registers used:
 10854 ;;		wreg, fsr2l, fsr2h, status,2, status,0, prodl, prodh, cstack
 10855 ;; Tracked objects:
 10856 ;;		On entry : 0/0
 10857 ;;		On exit  : 0/0
 10858 ;;		Unchanged: 0/0
 10859 ;; Data sizes:     COMRAM   BANK0   BANK1   BANK2   BANK3   BANK4   BANK5
 10860 ;;      Params:         0       0       0       0       0       0       0
 10861 ;;      Locals:        11       0       0       0       0       0       0
 10862 ;;      Temps:          8       0       0       0       0       0       0
 10863 ;;      Totals:        19       0       0       0       0       0       0
 10864 ;;Total ram usage:       19 bytes
 10865 ;; Hardware stack levels used:    1
 10866 ;; Hardware stack levels required when called:    2
 10867 ;; This function calls:
 10868 ;;		_Is_Checksum_Correct
 10869 ;;		_Is_Data_Received
 10870 ;; This function is called by:
 10871 ;;		_Get_Sample
 10872 ;; This function uses a non-reentrant model
 10873 ;;
 10874                           psect	text32,class=CODE,space=0,reloc=2,group=0
 10875                           	line	116
 10876                           global __ptext32
 10877                           __ptext32:
 10878  00175C                     psect	text32
 10879                           	file	"PIC_Interface_with_XBee.c"
 10880                           	line	116
 10881                           	global	__size_of_sample
 10882                           	__size_of_sample	equ	__end_of_sample-_sample
 10883  0000                     	
 10884                           _sample:
 10885  00175C                     ;incstack = 0
 10886                           	opt	stack 27
 10887                           	line	121
 10888                           	
 10889                           l2785:
 10890  00175C                     ;PIC_Interface_with_XBee.c: 118:  uint8_t Frame_Type, Is_Analog;;PIC_Interface_with_XBee
                                 .c: 119:  uint16_t Length, Is_Digital, Digital_Value;;PIC_Interface_with_XBee.c: 121:  _
                                 IsContainsAnalog = 0;
 10891                           	movlw	low(0)
 10892  00175C  0E00               	movlb	0	; () banked
 10893  00175E  0100               	movwf	((__IsContainsAnalog))&0ffh
 10894  001760  6FA0               	line	122
 10895                           ;PIC_Interface_with_XBee.c: 122:  _IsContainsDigital = 0;
 10896                           	movlw	low(0)
 10897  001762  0E00               	movwf	((__IsContainsDigital))&0ffh
 10898  001764  6FA1               	line	124
 10899                           	
 10900                           l2787:; BSR set to: 0
 10901  001766                     
 10902                           ;PIC_Interface_with_XBee.c: 124:  Length = ((int)ReceiveBuffer[1]<<8) + ReceiveBuffer[2]
                                 ;
 10903                           	movlb	1	; () banked
 10904  001766  0101               	movf	(0+(_ReceiveBuffer+01h))&0ffh,w
 10905  001768  5101               	movwf	(??_sample+0+0+1)&0ffh,c
 10906  00176A  6E0D               	clrf	(??_sample+0+0)&0ffh,c
 10907  00176C  6A0C               	movf	(0+(_ReceiveBuffer+02h))&0ffh,w
 10908  00176E  5102               	addwf	(??_sample+0+0),c,w
 10909  001770  240C               	movwf	((c:sample@Length)),c
 10910  001772  6E14               	movlw	0
 10911  001774  0E00               	addwfc	(??_sample+0+1),c,w
 10912  001776  200D               	movwf	1+((c:sample@Length)),c
 10913  001778  6E15               	line	125
 10914                           	
 10915                           l2789:; BSR set to: 1
 10916  00177A                     
 10917                           ;PIC_Interface_with_XBee.c: 125:  Frame_Type = ReceiveBuffer[3];
 10918                           	movff	0+(_ReceiveBuffer+03h),(c:sample@Frame_Type)
 10919  00177A  C103  F016         	line	127
 10920                           ;PIC_Interface_with_XBee.c: 127:  switch (Frame_Type)
 10921                           	goto	l2853
 10922  00177E  EF5E  F00D         	line	129
 10923                           ;PIC_Interface_with_XBee.c: 128:  {;PIC_Interface_with_XBee.c: 129:   case (0x92):
 10924                           	
 10925                           l145:; BSR set to: 1
 10926  001782                     
 10927                           	line	130
 10928                           	
 10929                           l2791:
 10930  001782                     ;PIC_Interface_with_XBee.c: 130:    if(Is_Data_Received() == 0 || Is_Checksum_Correct() 
                                 == 0) break;
 10931                           	call	_Is_Data_Received	;wreg free
 10932  001782  ECA4  F016         	iorlw	0
 10933  001786  0900               	btfsc	status,2
 10934  001788  B4D8               	goto	u2901
 10935  00178A  EFC9  F00B         	goto	u2900
 10936  00178E  EFCB  F00B         u2901:
 10937  001792                     	goto	l165
 10938  001792  EF6F  F00D         u2900:
 10939  001796                     	
 10940                           l2793:
 10941  001796                     	call	_Is_Checksum_Correct	;wreg free
 10942  001796  ECC6  F015         	iorlw	0
 10943  00179A  0900               	btfss	status,2
 10944  00179C  A4D8               	goto	u2911
 10945  00179E  EFD3  F00B         	goto	u2910
 10946  0017A2  EFD5  F00B         u2911:
 10947  0017A6                     	goto	l2795
 10948  0017A6  EFD9  F00B         u2910:
 10949  0017AA                     	goto	l165
 10950  0017AA  EF6F  F00D         	
 10951                           l148:
 10952  0017AE                     	goto	l165
 10953  0017AE  EF6F  F00D         	
 10954                           l146:
 10955  0017B2                     	line	131
 10956                           	
 10957                           l2795:
 10958  0017B2                     ;PIC_Interface_with_XBee.c: 131:    Is_Digital = ((int)ReceiveBuffer[16]<<8) + ReceiveBu
                                 ffer[17];
 10959                           	movlb	1	; () banked
 10960  0017B2  0101               	movf	(0+(_ReceiveBuffer+010h))&0ffh,w
 10961  0017B4  5110               	movwf	(??_sample+0+0+1)&0ffh,c
 10962  0017B6  6E0D               	clrf	(??_sample+0+0)&0ffh,c
 10963  0017B8  6A0C               	movf	(0+(_ReceiveBuffer+011h))&0ffh,w
 10964  0017BA  5111               	addwf	(??_sample+0+0),c,w
 10965  0017BC  240C               	movwf	((c:sample@Is_Digital)),c
 10966  0017BE  6E1A               	movlw	0
 10967  0017C0  0E00               	addwfc	(??_sample+0+1),c,w
 10968  0017C2  200D               	movwf	1+((c:sample@Is_Digital)),c
 10969  0017C4  6E1B               	line	132
 10970                           	
 10971                           l2797:; BSR set to: 1
 10972  0017C6                     
 10973                           ;PIC_Interface_with_XBee.c: 132:    Is_Analog = ReceiveBuffer[18];
 10974                           	movff	0+(_ReceiveBuffer+012h),(c:sample@Is_Analog)
 10975  0017C6  C112  F019         	line	134
 10976                           ;PIC_Interface_with_XBee.c: 134:    Digital_Value = ((int)ReceiveBuffer[19]<<8) + Receiv
                                 eBuffer[20];
 10977                           	movf	(0+(_ReceiveBuffer+013h))&0ffh,w
 10978  0017CA  5113               	movwf	(??_sample+0+0+1)&0ffh,c
 10979  0017CC  6E0D               	clrf	(??_sample+0+0)&0ffh,c
 10980  0017CE  6A0C               	movf	(0+(_ReceiveBuffer+014h))&0ffh,w
 10981  0017D0  5114               	addwf	(??_sample+0+0),c,w
 10982  0017D2  240C               	movwf	((c:sample@Digital_Value)),c
 10983  0017D4  6E17               	movlw	0
 10984  0017D6  0E00               	addwfc	(??_sample+0+1),c,w
 10985  0017D8  200D               	movwf	1+((c:sample@Digital_Value)),c
 10986  0017DA  6E18               	line	137
 10987                           	
 10988                           l2799:; BSR set to: 1
 10989  0017DC                     
 10990                           ;PIC_Interface_with_XBee.c: 137:    if(Is_Analog != 0)
 10991                           	movf	((c:sample@Is_Analog)),c,w
 10992  0017DC  5019               	btfsc	status,2
 10993  0017DE  B4D8               	goto	u2921
 10994  0017E0  EFF4  F00B         	goto	u2920
 10995  0017E4  EFF6  F00B         u2921:
 10996  0017E8                     	goto	l2803
 10997  0017E8  EFFB  F00B         u2920:
 10998  0017EC                     	line	138
 10999                           	
 11000                           l2801:; BSR set to: 1
 11001  0017EC                     
 11002                           ;PIC_Interface_with_XBee.c: 138:     _IsContainsAnalog = 1;
 11003                           	movlw	low(01h)
 11004  0017EC  0E01               	movlb	0	; () banked
 11005  0017EE  0100               	movwf	((__IsContainsAnalog))&0ffh
 11006  0017F0  6FA0               	goto	l2803
 11007  0017F2  EFFB  F00B         	
 11008                           l150:; BSR set to: 0
 11009  0017F6                     
 11010                           	line	139
 11011                           	
 11012                           l2803:
 11013  0017F6                     ;PIC_Interface_with_XBee.c: 139:    if(Is_Digital != 0)
 11014                           	movf	((c:sample@Is_Digital)),c,w
 11015  0017F6  501A               iorwf	((c:sample@Is_Digital+1)),c,w
 11016  0017F8  101B               	btfsc	status,2
 11017  0017FA  B4D8               	goto	u2931
 11018  0017FC  EF02  F00C         	goto	u2930
 11019  001800  EF04  F00C         
 11020                           u2931:
 11021  001804                     	goto	l151
 11022  001804  EF07  F00C         u2930:
 11023  001808                     	line	140
 11024                           	
 11025                           l2805:
 11026  001808                     ;PIC_Interface_with_XBee.c: 140:     _IsContainsDigital = 1;
 11027                           	movlw	low(01h)
 11028  001808  0E01               	movlb	0	; () banked
 11029  00180A  0100               	movwf	((__IsContainsDigital))&0ffh
 11030  00180C  6FA1               	
 11031                           l151:
 11032  00180E                     	line	143
 11033                           ;PIC_Interface_with_XBee.c: 143:    for (uint8_t i = 0; i < 16; i++)
 11034                           	movlw	low(0)
 11035  00180E  0E00               	movwf	((c:sample@i)),c
 11036  001810  6E1E               	
 11037                           l2807:
 11038  001812                     		movlw	010h-1
 11039  001812  0E0F               	cpfsgt	((c:sample@i)),c
 11040  001814  641E               	goto	u2941
 11041  001816  EF0F  F00C         	goto	u2940
 11042  00181A  EF11  F00C         
 11043                           u2941:
 11044  00181E                     	goto	l2811
 11045  00181E  EF15  F00C         u2940:
 11046  001822                     	goto	l2829
 11047  001822  EF9E  F00C         	
 11048                           l2809:
 11049  001826                     	goto	l2829
 11050  001826  EF9E  F00C         	
 11051                           l152:
 11052  00182A                     	line	145
 11053                           	
 11054                           l2811:
 11055  00182A                     ;PIC_Interface_with_XBee.c: 144:    {;PIC_Interface_with_XBee.c: 145:     if(((Is_Digita
                                 l >> i) & 0x01) == 1 && ((Digital_Value>>i) & 0x01) != 0){
 11056                           	movff	(c:sample@i),??_sample+0+0
 11057  00182A  C01E  F00C         	movff	(c:sample@Is_Digital),??_sample+1+0
 11058  00182E  C01A  F00D         	movff	(c:sample@Is_Digital+1),??_sample+1+0+1
 11059  001832  C01B  F00E         	incf	(??_sample+0+0),c
 11060  001836  2A0C               	goto	u2954
 11061  001838  EF21  F00C         u2955:
 11062  00183C                     	bcf	status,0
 11063  00183C  90D8               	rrcf	(??_sample+1+1),c
 11064  00183E  320E               	rrcf	(??_sample+1+0),c
 11065  001840  320D               u2954:
 11066  001842                     	decfsz	(??_sample+0+0),c
 11067  001842  2E0C               	goto	u2955
 11068  001844  EF1E  F00C         	
 11069                           	btfss	(??_sample+1+0),c,(0)&7
 11070  001848  A00D               	goto	u2961
 11071  00184A  EF29  F00C         	goto	u2960
 11072  00184E  EF2B  F00C         u2961:
 11073  001852                     	goto	l2817
 11074  001852  EF4D  F00C         u2960:
 11075  001856                     	
 11076                           l2813:
 11077  001856                     	movff	(c:sample@i),??_sample+0+0
 11078  001856  C01E  F00C         	movff	(c:sample@Digital_Value),??_sample+1+0
 11079  00185A  C017  F00D         	movff	(c:sample@Digital_Value+1),??_sample+1+0+1
 11080  00185E  C018  F00E         	incf	(??_sample+0+0),c
 11081  001862  2A0C               	goto	u2974
 11082  001864  EF37  F00C         u2975:
 11083  001868                     	bcf	status,0
 11084  001868  90D8               	rrcf	(??_sample+1+1),c
 11085  00186A  320E               	rrcf	(??_sample+1+0),c
 11086  00186C  320D               u2974:
 11087  00186E                     	decfsz	(??_sample+0+0),c
 11088  00186E  2E0C               	goto	u2975
 11089  001870  EF34  F00C         	
 11090                           	btfss	(??_sample+1+0),c,(0)&7
 11091  001874  A00D               	goto	u2981
 11092  001876  EF3F  F00C         	goto	u2980
 11093  00187A  EF41  F00C         u2981:
 11094  00187E                     	goto	l2817
 11095  00187E  EF4D  F00C         u2980:
 11096  001882                     	line	147
 11097                           	
 11098                           l2815:
 11099  001882                     ;PIC_Interface_with_XBee.c: 147:      DigitalData[i] = 1;
 11100                           	movf	((c:sample@i)),c,w
 11101  001882  501E               	mullw	01h
 11102  001884  0D01               	movlw	low(_DigitalData)
 11103  001886  0E90               	addwf	(prodl),c,w
 11104  001888  24F3               	movwf	c:fsr2l
 11105  00188A  6ED9               	movlw	high(_DigitalData)
 11106  00188C  0E00               	addwfc	prod+1,w
 11107  00188E  20F4               	movwf	1+c:fsr2l
 11108  001890  6EDA               	movlw	low(01h)
 11109  001892  0E01               	movwf	indf2
 11110  001894  6EDF               	line	148
 11111                           ;PIC_Interface_with_XBee.c: 148:                 }
 11112                           	goto	l2825
 11113  001896  EF93  F00C         	line	149
 11114                           ;PIC_Interface_with_XBee.c: 149:     else if(((Is_Digital >> i) & 0x01) == 1 && ((Digita
                                 l_Value>>i) & 0x01) == 0){
 11115                           	
 11116                           l154:
 11117  00189A                     	
 11118                           l2817:
 11119  00189A                     	movff	(c:sample@i),??_sample+0+0
 11120  00189A  C01E  F00C         	movff	(c:sample@Is_Digital),??_sample+1+0
 11121  00189E  C01A  F00D         	movff	(c:sample@Is_Digital+1),??_sample+1+0+1
 11122  0018A2  C01B  F00E         	incf	(??_sample+0+0),c
 11123  0018A6  2A0C               	goto	u2994
 11124  0018A8  EF59  F00C         u2995:
 11125  0018AC                     	bcf	status,0
 11126  0018AC  90D8               	rrcf	(??_sample+1+1),c
 11127  0018AE  320E               	rrcf	(??_sample+1+0),c
 11128  0018B0  320D               u2994:
 11129  0018B2                     	decfsz	(??_sample+0+0),c
 11130  0018B2  2E0C               	goto	u2995
 11131  0018B4  EF56  F00C         	
 11132                           	btfss	(??_sample+1+0),c,(0)&7
 11133  0018B8  A00D               	goto	u3001
 11134  0018BA  EF61  F00C         	goto	u3000
 11135  0018BE  EF63  F00C         u3001:
 11136  0018C2                     	goto	l2823
 11137  0018C2  EF85  F00C         u3000:
 11138  0018C6                     	
 11139                           l2819:
 11140  0018C6                     	movff	(c:sample@i),??_sample+0+0
 11141  0018C6  C01E  F00C         	movff	(c:sample@Digital_Value),??_sample+1+0
 11142  0018CA  C017  F00D         	movff	(c:sample@Digital_Value+1),??_sample+1+0+1
 11143  0018CE  C018  F00E         	incf	(??_sample+0+0),c
 11144  0018D2  2A0C               	goto	u3014
 11145  0018D4  EF6F  F00C         u3015:
 11146  0018D8                     	bcf	status,0
 11147  0018D8  90D8               	rrcf	(??_sample+1+1),c
 11148  0018DA  320E               	rrcf	(??_sample+1+0),c
 11149  0018DC  320D               u3014:
 11150  0018DE                     	decfsz	(??_sample+0+0),c
 11151  0018DE  2E0C               	goto	u3015
 11152  0018E0  EF6C  F00C         	
 11153                           	btfsc	(??_sample+1+0),c,(0)&7
 11154  0018E4  B00D               	goto	u3021
 11155  0018E6  EF77  F00C         	goto	u3020
 11156  0018EA  EF79  F00C         u3021:
 11157  0018EE                     	goto	l2823
 11158  0018EE  EF85  F00C         u3020:
 11159  0018F2                     	line	151
 11160                           	
 11161                           l2821:
 11162  0018F2                     ;PIC_Interface_with_XBee.c: 151:      DigitalData[i] = 0;
 11163                           	movf	((c:sample@i)),c,w
 11164  0018F2  501E               	mullw	01h
 11165  0018F4  0D01               	movlw	low(_DigitalData)
 11166  0018F6  0E90               	addwf	(prodl),c,w
 11167  0018F8  24F3               	movwf	c:fsr2l
 11168  0018FA  6ED9               	movlw	high(_DigitalData)
 11169  0018FC  0E00               	addwfc	prod+1,w
 11170  0018FE  20F4               	movwf	1+c:fsr2l
 11171  001900  6EDA               	movlw	low(0)
 11172  001902  0E00               	movwf	indf2
 11173  001904  6EDF               	line	152
 11174                           ;PIC_Interface_with_XBee.c: 152:                 }
 11175                           	goto	l2825
 11176  001906  EF93  F00C         	line	153
 11177                           ;PIC_Interface_with_XBee.c: 153:     else
 11178                           	
 11179                           l156:
 11180  00190A                     	line	154
 11181                           	
 11182                           l2823:
 11183  00190A                     ;PIC_Interface_with_XBee.c: 154:      DigitalData[i] = -1;
 11184                           	movf	((c:sample@i)),c,w
 11185  00190A  501E               	mullw	01h
 11186  00190C  0D01               	movlw	low(_DigitalData)
 11187  00190E  0E90               	addwf	(prodl),c,w
 11188  001910  24F3               	movwf	c:fsr2l
 11189  001912  6ED9               	movlw	high(_DigitalData)
 11190  001914  0E00               	addwfc	prod+1,w
 11191  001916  20F4               	movwf	1+c:fsr2l
 11192  001918  6EDA               	movlw	low(-1)
 11193  00191A  0EFF               	movwf	indf2
 11194  00191C  6EDF               	goto	l2825
 11195  00191E  EF93  F00C         	
 11196                           l157:
 11197  001922                     	goto	l2825
 11198  001922  EF93  F00C         	
 11199                           l155:
 11200  001926                     	line	155
 11201                           	
 11202                           l2825:
 11203  001926                     ;PIC_Interface_with_XBee.c: 155:    }
 11204                           	incf	((c:sample@i)),c
 11205  001926  2A1E               	
 11206                           l2827:
 11207  001928                     		movlw	010h-1
 11208  001928  0E0F               	cpfsgt	((c:sample@i)),c
 11209  00192A  641E               	goto	u3031
 11210  00192C  EF9A  F00C         	goto	u3030
 11211  001930  EF9C  F00C         
 11212                           u3031:
 11213  001934                     	goto	l2811
 11214  001934  EF15  F00C         u3030:
 11215  001938                     	goto	l2829
 11216  001938  EF9E  F00C         	
 11217                           l153:
 11218  00193C                     	line	157
 11219                           	
 11220                           l2829:
 11221  00193C                     ;PIC_Interface_with_XBee.c: 157:    for (uint8_t i = 0, j = 0; i < 8; i++)
 11222                           	movlw	low(0)
 11223  00193C  0E00               	movwf	((c:sample@i_529)),c
 11224  00193E  6E1D               	movlw	low(0)
 11225  001940  0E00               	movwf	((c:sample@j)),c
 11226  001942  6E1C               	
 11227                           l2831:
 11228  001944                     		movlw	08h-1
 11229  001944  0E07               	cpfsgt	((c:sample@i_529)),c
 11230  001946  641D               	goto	u3041
 11231  001948  EFA8  F00C         	goto	u3040
 11232  00194C  EFAA  F00C         
 11233                           u3041:
 11234  001950                     	goto	l2835
 11235  001950  EFAE  F00C         u3040:
 11236  001954                     	goto	l165
 11237  001954  EF6F  F00D         	
 11238                           l2833:
 11239  001958                     	goto	l165
 11240  001958  EF6F  F00D         	
 11241                           l158:
 11242  00195C                     	line	159
 11243                           	
 11244                           l2835:
 11245  00195C                     ;PIC_Interface_with_XBee.c: 158:    {;PIC_Interface_with_XBee.c: 159:     if(((Is_Analog
                                  >> i) & 0x01) == 1)
 11246                           	movff	(c:sample@i_529),??_sample+0+0
 11247  00195C  C01D  F00C         	movff	(c:sample@Is_Analog),??_sample+1+0
 11248  001960  C019  F00D         	incf	(??_sample+0+0),c
 11249  001964  2A0C               	goto	u3054
 11250  001966  EFB7  F00C         u3055:
 11251  00196A                     	bcf	status,0
 11252  00196A  90D8               	rrcf	(??_sample+1+0),c
 11253  00196C  320D               u3054:
 11254  00196E                     	decfsz	(??_sample+0+0),c
 11255  00196E  2E0C               	goto	u3055
 11256  001970  EFB5  F00C         	
 11257                           	btfss	(??_sample+1+0),c,(0)&7
 11258  001974  A00D               	goto	u3061
 11259  001976  EFBF  F00C         	goto	u3060
 11260  00197A  EFC1  F00C         u3061:
 11261  00197E                     	goto	l2845
 11262  00197E  EF3F  F00D         u3060:
 11263  001982                     	line	161
 11264                           	
 11265                           l2837:
 11266  001982                     ;PIC_Interface_with_XBee.c: 160:     {;PIC_Interface_with_XBee.c: 161:      if(Is_Digita
                                 l != 0)
 11267                           	movf	((c:sample@Is_Digital)),c,w
 11268  001982  501A               iorwf	((c:sample@Is_Digital+1)),c,w
 11269  001984  101B               	btfsc	status,2
 11270  001986  B4D8               	goto	u3071
 11271  001988  EFC8  F00C         	goto	u3070
 11272  00198C  EFCA  F00C         
 11273                           u3071:
 11274  001990                     	goto	l2841
 11275  001990  EF03  F00D         u3070:
 11276  001994                     	line	162
 11277                           	
 11278                           l2839:
 11279  001994                     ;PIC_Interface_with_XBee.c: 162:       AnalogData[i] = 256 * ReceiveBuffer[21+(j*2)] + R
                                 eceiveBuffer[22+(j*2)];
 11280                           	movf	((c:sample@j)),c,w
 11281  001994  501C               	movwf	(??_sample+0+0)&0ffh,c
 11282  001996  6E0C               	clrf	(??_sample+0+0+1)&0ffh,c
 11283  001998  6A0D               
 11284                           	bcf	status,0
 11285  00199A  90D8               	rlcf	(??_sample+0+0),c,f
 11286  00199C  360C               	rlcf	(??_sample+0+1),c,f
 11287  00199E  360D               	movlw	015h
 11288  0019A0  0E15               	addwf	(??_sample+0+0),c
 11289  0019A2  260C               	movlw	0
 11290  0019A4  0E00               	addwfc	(??_sample+0+1),c
 11291  0019A6  220D               	movlw	low(_ReceiveBuffer)
 11292  0019A8  0E00               	addwf	(??_sample+0+0),c,w
 11293  0019AA  240C               	movwf	c:fsr2l
 11294  0019AC  6ED9               	movlw	high(_ReceiveBuffer)
 11295  0019AE  0E01               	addwfc	(??_sample+0+1),c,w
 11296  0019B0  200D               	movwf	1+c:fsr2l
 11297  0019B2  6EDA               	movf	indf2,w
 11298  0019B4  50DF               	movwf	(??_sample+2+0)&0ffh,c
 11299  0019B6  6E0E               	movf	((??_sample+2+0)),c,w
 11300  0019B8  500E               	movwf	(??_sample+3+0+1)&0ffh,c
 11301  0019BA  6E10               	clrf	(??_sample+3+0)&0ffh,c
 11302  0019BC  6A0F               	movf	((c:sample@j)),c,w
 11303  0019BE  501C               	movwf	(??_sample+5+0)&0ffh,c
 11304  0019C0  6E11               	clrf	(??_sample+5+0+1)&0ffh,c
 11305  0019C2  6A12               
 11306                           	bcf	status,0
 11307  0019C4  90D8               	rlcf	(??_sample+5+0),c,f
 11308  0019C6  3611               	rlcf	(??_sample+5+1),c,f
 11309  0019C8  3612               	movlw	016h
 11310  0019CA  0E16               	addwf	(??_sample+5+0),c
 11311  0019CC  2611               	movlw	0
 11312  0019CE  0E00               	addwfc	(??_sample+5+1),c
 11313  0019D0  2212               	movlw	low(_ReceiveBuffer)
 11314  0019D2  0E00               	addwf	(??_sample+5+0),c,w
 11315  0019D4  2411               	movwf	c:fsr2l
 11316  0019D6  6ED9               	movlw	high(_ReceiveBuffer)
 11317  0019D8  0E01               	addwfc	(??_sample+5+1),c,w
 11318  0019DA  2012               	movwf	1+c:fsr2l
 11319  0019DC  6EDA               	movf	indf2,w
 11320  0019DE  50DF               	movwf	(??_sample+7+0)&0ffh,c
 11321  0019E0  6E13               	movf	((??_sample+7+0)),c,w
 11322  0019E2  5013               	addwf	(??_sample+3+0),c
 11323  0019E4  260F               	movlw	0
 11324  0019E6  0E00               	addwfc	(??_sample+3+1),c
 11325  0019E8  2210               	movf	((c:sample@i_529)),c,w
 11326  0019EA  501D               	mullw	02h
 11327  0019EC  0D02               	movlw	low(_AnalogData)
 11328  0019EE  0E80               	addwf	(prodl),c,w
 11329  0019F0  24F3               	movwf	c:fsr2l
 11330  0019F2  6ED9               	movlw	high(_AnalogData)
 11331  0019F4  0E00               	addwfc	prod+1,w
 11332  0019F6  20F4               	movwf	1+c:fsr2l
 11333  0019F8  6EDA               	movff	??_sample+3+0,postinc2
 11334  0019FA  C00F  FFDE         	movff	??_sample+3+1,postdec2
 11335  0019FE  C010  FFDD         
 11336                           	goto	l2843
 11337  001A02  EF3C  F00D         	line	163
 11338                           ;PIC_Interface_with_XBee.c: 163:      else
 11339                           	
 11340                           l161:
 11341  001A06                     	line	164
 11342                           	
 11343                           l2841:
 11344  001A06                     ;PIC_Interface_with_XBee.c: 164:       AnalogData[i] = 256 * ReceiveBuffer[19+(j*2)] + R
                                 eceiveBuffer[20+(j*2)];
 11345                           	movf	((c:sample@j)),c,w
 11346  001A06  501C               	movwf	(??_sample+0+0)&0ffh,c
 11347  001A08  6E0C               	clrf	(??_sample+0+0+1)&0ffh,c
 11348  001A0A  6A0D               
 11349                           	bcf	status,0
 11350  001A0C  90D8               	rlcf	(??_sample+0+0),c,f
 11351  001A0E  360C               	rlcf	(??_sample+0+1),c,f
 11352  001A10  360D               	movlw	013h
 11353  001A12  0E13               	addwf	(??_sample+0+0),c
 11354  001A14  260C               	movlw	0
 11355  001A16  0E00               	addwfc	(??_sample+0+1),c
 11356  001A18  220D               	movlw	low(_ReceiveBuffer)
 11357  001A1A  0E00               	addwf	(??_sample+0+0),c,w
 11358  001A1C  240C               	movwf	c:fsr2l
 11359  001A1E  6ED9               	movlw	high(_ReceiveBuffer)
 11360  001A20  0E01               	addwfc	(??_sample+0+1),c,w
 11361  001A22  200D               	movwf	1+c:fsr2l
 11362  001A24  6EDA               	movf	indf2,w
 11363  001A26  50DF               	movwf	(??_sample+2+0)&0ffh,c
 11364  001A28  6E0E               	movf	((??_sample+2+0)),c,w
 11365  001A2A  500E               	movwf	(??_sample+3+0+1)&0ffh,c
 11366  001A2C  6E10               	clrf	(??_sample+3+0)&0ffh,c
 11367  001A2E  6A0F               	movf	((c:sample@j)),c,w
 11368  001A30  501C               	movwf	(??_sample+5+0)&0ffh,c
 11369  001A32  6E11               	clrf	(??_sample+5+0+1)&0ffh,c
 11370  001A34  6A12               
 11371                           	bcf	status,0
 11372  001A36  90D8               	rlcf	(??_sample+5+0),c,f
 11373  001A38  3611               	rlcf	(??_sample+5+1),c,f
 11374  001A3A  3612               	movlw	014h
 11375  001A3C  0E14               	addwf	(??_sample+5+0),c
 11376  001A3E  2611               	movlw	0
 11377  001A40  0E00               	addwfc	(??_sample+5+1),c
 11378  001A42  2212               	movlw	low(_ReceiveBuffer)
 11379  001A44  0E00               	addwf	(??_sample+5+0),c,w
 11380  001A46  2411               	movwf	c:fsr2l
 11381  001A48  6ED9               	movlw	high(_ReceiveBuffer)
 11382  001A4A  0E01               	addwfc	(??_sample+5+1),c,w
 11383  001A4C  2012               	movwf	1+c:fsr2l
 11384  001A4E  6EDA               	movf	indf2,w
 11385  001A50  50DF               	movwf	(??_sample+7+0)&0ffh,c
 11386  001A52  6E13               	movf	((??_sample+7+0)),c,w
 11387  001A54  5013               	addwf	(??_sample+3+0),c
 11388  001A56  260F               	movlw	0
 11389  001A58  0E00               	addwfc	(??_sample+3+1),c
 11390  001A5A  2210               	movf	((c:sample@i_529)),c,w
 11391  001A5C  501D               	mullw	02h
 11392  001A5E  0D02               	movlw	low(_AnalogData)
 11393  001A60  0E80               	addwf	(prodl),c,w
 11394  001A62  24F3               	movwf	c:fsr2l
 11395  001A64  6ED9               	movlw	high(_AnalogData)
 11396  001A66  0E00               	addwfc	prod+1,w
 11397  001A68  20F4               	movwf	1+c:fsr2l
 11398  001A6A  6EDA               	movff	??_sample+3+0,postinc2
 11399  001A6C  C00F  FFDE         	movff	??_sample+3+1,postdec2
 11400  001A70  C010  FFDD         
 11401                           	goto	l2843
 11402  001A74  EF3C  F00D         	
 11403                           l162:
 11404  001A78                     	line	165
 11405                           	
 11406                           l2843:
 11407  001A78                     ;PIC_Interface_with_XBee.c: 165:      j++;
 11408                           	incf	((c:sample@j)),c
 11409  001A78  2A1C               	line	166
 11410                           ;PIC_Interface_with_XBee.c: 166:     }
 11411                           	goto	l2847
 11412  001A7A  EF4D  F00D         	line	167
 11413                           ;PIC_Interface_with_XBee.c: 167:     else
 11414                           	
 11415                           l160:
 11416  001A7E                     	line	169
 11417                           	
 11418                           l2845:
 11419  001A7E                     ;PIC_Interface_with_XBee.c: 168:     {;PIC_Interface_with_XBee.c: 169:      AnalogData[i
                                 ] = -1;
 11420                           	movf	((c:sample@i_529)),c,w
 11421  001A7E  501D               	mullw	02h
 11422  001A80  0D02               	movlw	low(_AnalogData)
 11423  001A82  0E80               	addwf	(prodl),c,w
 11424  001A84  24F3               	movwf	c:fsr2l
 11425  001A86  6ED9               	movlw	high(_AnalogData)
 11426  001A88  0E00               	addwfc	prod+1,w
 11427  001A8A  20F4               	movwf	1+c:fsr2l
 11428  001A8C  6EDA               	movlw	low(-1)
 11429  001A8E  0EFF               	movwf	postinc2,c
 11430  001A90  6EDE               	movlw	high(-1)
 11431  001A92  0EFF               	movwf	postdec2,c
 11432  001A94  6EDD               	goto	l2847
 11433  001A96  EF4D  F00D         	line	170
 11434                           ;PIC_Interface_with_XBee.c: 170:     }
 11435                           	
 11436                           l163:
 11437  001A9A                     	line	171
 11438                           	
 11439                           l2847:
 11440  001A9A                     ;PIC_Interface_with_XBee.c: 171:    }
 11441                           	incf	((c:sample@i_529)),c
 11442  001A9A  2A1D               	
 11443                           l2849:
 11444  001A9C                     		movlw	08h-1
 11445  001A9C  0E07               	cpfsgt	((c:sample@i_529)),c
 11446  001A9E  641D               	goto	u3081
 11447  001AA0  EF54  F00D         	goto	u3080
 11448  001AA4  EF56  F00D         
 11449                           u3081:
 11450  001AA8                     	goto	l2835
 11451  001AA8  EFAE  F00C         u3080:
 11452  001AAC                     	goto	l165
 11453  001AAC  EF6F  F00D         	
 11454                           l159:
 11455  001AB0                     	goto	l165
 11456  001AB0  EF6F  F00D         	line	172
 11457                           ;PIC_Interface_with_XBee.c: 172:   default:
 11458                           	
 11459                           l164:
 11460  001AB4                     	line	173
 11461                           ;PIC_Interface_with_XBee.c: 173:    break;
 11462                           	goto	l165
 11463  001AB4  EF6F  F00D         	line	174
 11464                           	
 11465                           l2851:
 11466  001AB8                     ;PIC_Interface_with_XBee.c: 174:  }
 11467                           	goto	l165
 11468  001AB8  EF6F  F00D         	
 11469                           l144:
 11470  001ABC                     	
 11471                           l2853:
 11472  001ABC                     	movf	((c:sample@Frame_Type)),c,w
 11473  001ABC  5016               	movwf	(??_sample+0+0)&0ffh,c
 11474  001ABE  6E0C               	clrf	(??_sample+0+0+1)&0ffh,c
 11475  001AC0  6A0D               
 11476                           	; Switch on 2 bytes has been partitioned into a top level switch of size 1, and 1 sub-s
                                 witches
 11477                           ; Switch size 1, requested type "space"
 11478                           ; Number of cases is 1, Range of values is 0 to 0
 11479                           ; switch strategies available:
 11480                           ; Name         Instructions Cycles
 11481                           ; simple_byte            4     3 (average)
 11482                           ;	Chosen strategy is simple_byte
 11483                           
 11484                           	movf ??_sample+0+1,c,w
 11485  001AC2  500D               	xorlw	0^0	; case 0
 11486  001AC4  0A00               	skipnz
 11487  001AC6  B4D8               	goto	l4055
 11488  001AC8  EF68  F00D         	goto	l165
 11489  001ACC  EF6F  F00D         	
 11490                           l4055:
 11491  001AD0                     ; Switch size 1, requested type "space"
 11492                           ; Number of cases is 1, Range of values is 146 to 146
 11493                           ; switch strategies available:
 11494                           ; Name         Instructions Cycles
 11495                           ; simple_byte            4     3 (average)
 11496                           ;	Chosen strategy is simple_byte
 11497                           
 11498                           	movf ??_sample+0+0,c,w
 11499  001AD0  500C               	xorlw	146^0	; case 146
 11500  001AD2  0A92               	skipnz
 11501  001AD4  B4D8               	goto	l2791
 11502  001AD6  EFC1  F00B         	goto	l165
 11503  001ADA  EF6F  F00D         
 11504                           	
 11505                           l149:
 11506  001ADE                     	line	175
 11507                           	
 11508                           l165:
 11509  001ADE                     	return	;funcret
 11510  001ADE  0012               	opt stack 0
 11511                           GLOBAL	__end_of_sample
 11512                           	__end_of_sample:
 11513  001AE0                     	signat	_sample,89
 11514                           	global	_Is_Data_Received
 11515                           
 11516 ;; *************** function _Is_Data_Received *****************
 11517 ;; Defined at:
 11518 ;;		line 93 in file "PIC_Interface_with_XBee.c"
 11519 ;; Parameters:    Size  Location     Type
 11520 ;;		None
 11521 ;; Auto vars:     Size  Location     Type
 11522 ;;  i               1    6[COMRAM] unsigned char 
 11523 ;; Return value:  Size  Location     Type
 11524 ;;                  1    wreg      _Bool 
 11525 ;; Registers used:
 11526 ;;		wreg, fsr2l, fsr2h, status,2, status,0, prodl, prodh
 11527 ;; Tracked objects:
 11528 ;;		On entry : 0/0
 11529 ;;		On exit  : 0/0
 11530 ;;		Unchanged: 0/0
 11531 ;; Data sizes:     COMRAM   BANK0   BANK1   BANK2   BANK3   BANK4   BANK5
 11532 ;;      Params:         0       0       0       0       0       0       0
 11533 ;;      Locals:         1       0       0       0       0       0       0
 11534 ;;      Temps:          0       0       0       0       0       0       0
 11535 ;;      Totals:         1       0       0       0       0       0       0
 11536 ;;Total ram usage:        1 bytes
 11537 ;; Hardware stack levels used:    1
 11538 ;; Hardware stack levels required when called:    1
 11539 ;; This function calls:
 11540 ;;		Nothing
 11541 ;; This function is called by:
 11542 ;;		_sample
 11543 ;;		_Get_Sample
 11544 ;; This function uses a non-reentrant model
 11545 ;;
 11546                           psect	text33,class=CODE,space=0,reloc=2,group=0
 11547                           	line	93
 11548                           global __ptext33
 11549                           __ptext33:
 11550  002D48                     psect	text33
 11551                           	file	"PIC_Interface_with_XBee.c"
 11552                           	line	93
 11553                           	global	__size_of_Is_Data_Received
 11554                           	__size_of_Is_Data_Received	equ	__end_of_Is_Data_Received-_Is_Data_Received
 11555  0000                     	
 11556                           _Is_Data_Received:
 11557  002D48                     ;incstack = 0
 11558                           	opt	stack 27
 11559                           	line	95
 11560                           	
 11561                           l2627:
 11562  002D48                     ;PIC_Interface_with_XBee.c: 95:  for (uint8_t i = 0; i < 100; i++)
 11563                           	movlw	low(0)
 11564  002D48  0E00               	movwf	((c:Is_Data_Received@i)),c
 11565  002D4A  6E07               	
 11566                           l2629:
 11567  002D4C                     		movlw	064h-1
 11568  002D4C  0E63               	cpfsgt	((c:Is_Data_Received@i)),c
 11569  002D4E  6407               	goto	u2661
 11570  002D50  EFAC  F016         	goto	u2660
 11571  002D54  EFAE  F016         
 11572                           u2661:
 11573  002D58                     	goto	l2633
 11574  002D58  EFB2  F016         u2660:
 11575  002D5C                     	goto	l2645
 11576  002D5C  EFDA  F016         	
 11577                           l2631:
 11578  002D60                     	goto	l2645
 11579  002D60  EFDA  F016         	
 11580                           l130:
 11581  002D64                     	line	97
 11582                           	
 11583                           l2633:
 11584  002D64                     ;PIC_Interface_with_XBee.c: 96:  {;PIC_Interface_with_XBee.c: 97:   if (ReceiveBuffer[i]
                                  != 0 && i > 0)
 11585                           	movf	((c:Is_Data_Received@i)),c,w
 11586  002D64  5007               	mullw	01h
 11587  002D66  0D01               	movlw	low(_ReceiveBuffer)
 11588  002D68  0E00               	addwf	(prodl),c,w
 11589  002D6A  24F3               	movwf	c:fsr2l
 11590  002D6C  6ED9               	movlw	high(_ReceiveBuffer)
 11591  002D6E  0E01               	addwfc	prod+1,w
 11592  002D70  20F4               	movwf	1+c:fsr2l
 11593  002D72  6EDA               	movf	indf2,w
 11594  002D74  50DF               	btfsc	status,2
 11595  002D76  B4D8               	goto	u2671
 11596  002D78  EFC0  F016         	goto	u2670
 11597  002D7C  EFC2  F016         u2671:
 11598  002D80                     	goto	l2641
 11599  002D80  EFCF  F016         u2670:
 11600  002D84                     	
 11601                           l2635:
 11602  002D84                     	movf	((c:Is_Data_Received@i)),c,w
 11603  002D84  5007               	btfsc	status,2
 11604  002D86  B4D8               	goto	u2681
 11605  002D88  EFC8  F016         	goto	u2680
 11606  002D8C  EFCA  F016         u2681:
 11607  002D90                     	goto	l2641
 11608  002D90  EFCF  F016         u2680:
 11609  002D94                     	line	98
 11610                           	
 11611                           l2637:
 11612  002D94                     ;PIC_Interface_with_XBee.c: 98:    return 1;
 11613                           	movlw	(01h)&0ffh
 11614  002D94  0E01               	goto	l133
 11615  002D96  EFDD  F016         	
 11616                           l2639:
 11617  002D9A                     	goto	l133
 11618  002D9A  EFDD  F016         	
 11619                           l132:
 11620  002D9E                     	line	99
 11621                           	
 11622                           l2641:
 11623  002D9E                     ;PIC_Interface_with_XBee.c: 99:  }
 11624                           	incf	((c:Is_Data_Received@i)),c
 11625  002D9E  2A07               	
 11626                           l2643:
 11627  002DA0                     		movlw	064h-1
 11628  002DA0  0E63               	cpfsgt	((c:Is_Data_Received@i)),c
 11629  002DA2  6407               	goto	u2691
 11630  002DA4  EFD6  F016         	goto	u2690
 11631  002DA8  EFD8  F016         
 11632                           u2691:
 11633  002DAC                     	goto	l2633
 11634  002DAC  EFB2  F016         u2690:
 11635  002DB0                     	goto	l2645
 11636  002DB0  EFDA  F016         	
 11637                           l131:
 11638  002DB4                     	line	100
 11639                           	
 11640                           l2645:
 11641  002DB4                     ;PIC_Interface_with_XBee.c: 100:  return 0;
 11642                           	movlw	(0)&0ffh
 11643  002DB4  0E00               	goto	l133
 11644  002DB6  EFDD  F016         	
 11645                           l2647:
 11646  002DBA                     	line	101
 11647                           	
 11648                           l133:
 11649  002DBA                     	return	;funcret
 11650  002DBA  0012               	opt stack 0
 11651                           GLOBAL	__end_of_Is_Data_Received
 11652                           	__end_of_Is_Data_Received:
 11653  002DBC                     	signat	_Is_Data_Received,89
 11654                           	global	_Is_Checksum_Correct
 11655                           
 11656 ;; *************** function _Is_Checksum_Correct *****************
 11657 ;; Defined at:
 11658 ;;		line 103 in file "PIC_Interface_with_XBee.c"
 11659 ;; Parameters:    Size  Location     Type
 11660 ;;		None
 11661 ;; Auto vars:     Size  Location     Type
 11662 ;;  i               1    8[COMRAM] unsigned char 
 11663 ;;  checksum        2    9[COMRAM] unsigned short 
 11664 ;; Return value:  Size  Location     Type
 11665 ;;                  1    wreg      _Bool 
 11666 ;; Registers used:
 11667 ;;		wreg, fsr2l, fsr2h, status,2, status,0, prodl, prodh
 11668 ;; Tracked objects:
 11669 ;;		On entry : 0/0
 11670 ;;		On exit  : 0/0
 11671 ;;		Unchanged: 0/0
 11672 ;; Data sizes:     COMRAM   BANK0   BANK1   BANK2   BANK3   BANK4   BANK5
 11673 ;;      Params:         0       0       0       0       0       0       0
 11674 ;;      Locals:         3       0       0       0       0       0       0
 11675 ;;      Temps:          2       0       0       0       0       0       0
 11676 ;;      Totals:         5       0       0       0       0       0       0
 11677 ;;Total ram usage:        5 bytes
 11678 ;; Hardware stack levels used:    1
 11679 ;; Hardware stack levels required when called:    1
 11680 ;; This function calls:
 11681 ;;		Nothing
 11682 ;; This function is called by:
 11683 ;;		_sample
 11684 ;; This function uses a non-reentrant model
 11685 ;;
 11686                           psect	text34,class=CODE,space=0,reloc=2,group=0
 11687                           	line	103
 11688                           global __ptext34
 11689                           __ptext34:
 11690  002B8C                     psect	text34
 11691                           	file	"PIC_Interface_with_XBee.c"
 11692                           	line	103
 11693                           	global	__size_of_Is_Checksum_Correct
 11694                           	__size_of_Is_Checksum_Correct	equ	__end_of_Is_Checksum_Correct-_Is_Checksum_Correct
 11695  0000                     	
 11696                           _Is_Checksum_Correct:
 11697  002B8C                     ;incstack = 0
 11698                           	opt	stack 27
 11699                           	line	105
 11700                           	
 11701                           l2649:
 11702  002B8C                     ;PIC_Interface_with_XBee.c: 105:  uint16_t checksum = 0;
 11703                           	movlw	high(0)
 11704  002B8C  0E00               	movwf	((c:Is_Checksum_Correct@checksum+1)),c
 11705  002B8E  6E0B               	movlw	low(0)
 11706  002B90  0E00               	movwf	((c:Is_Checksum_Correct@checksum)),c
 11707  002B92  6E0A               	line	106
 11708                           ;PIC_Interface_with_XBee.c: 106:  for(uint8_t i = 3; i < LastByteOfFrame; i++)
 11709                           	movlw	low(03h)
 11710  002B94  0E03               	movwf	((c:Is_Checksum_Correct@i)),c
 11711  002B96  6E09               	goto	l2655
 11712  002B98  EFE1  F015         	
 11713                           l137:
 11714  002B9C                     	line	107
 11715                           	
 11716                           l2651:
 11717  002B9C                     ;PIC_Interface_with_XBee.c: 107:   checksum = checksum + ReceiveBuffer[i];
 11718                           	movf	((c:Is_Checksum_Correct@i)),c,w
 11719  002B9C  5009               	mullw	01h
 11720  002B9E  0D01               	movlw	low(_ReceiveBuffer)
 11721  002BA0  0E00               	addwf	(prodl),c,w
 11722  002BA2  24F3               	movwf	c:fsr2l
 11723  002BA4  6ED9               	movlw	high(_ReceiveBuffer)
 11724  002BA6  0E01               	addwfc	prod+1,w
 11725  002BA8  20F4               	movwf	1+c:fsr2l
 11726  002BAA  6EDA               	movf	indf2,w
 11727  002BAC  50DF               	movwf	(??_Is_Checksum_Correct+0+0)&0ffh,c
 11728  002BAE  6E07               	movf	((??_Is_Checksum_Correct+0+0)),c,w
 11729  002BB0  5007               	addwf	((c:Is_Checksum_Correct@checksum)),c,w
 11730  002BB2  240A               	movwf	((c:Is_Checksum_Correct@checksum)),c
 11731  002BB4  6E0A               	movlw	0
 11732  002BB6  0E00               	addwfc	((c:Is_Checksum_Correct@checksum+1)),c,w
 11733  002BB8  200B               	movwf	1+((c:Is_Checksum_Correct@checksum)),c
 11734  002BBA  6E0B               	
 11735                           l2653:
 11736  002BBC                     	incf	((c:Is_Checksum_Correct@i)),c
 11737  002BBC  2A09               	goto	l2655
 11738  002BBE  EFE1  F015         	
 11739                           l136:
 11740  002BC2                     	
 11741                           l2655:
 11742  002BC2                     	movf	((c:Is_Checksum_Correct@i)),c,w
 11743  002BC2  5009               	movwf	(??_Is_Checksum_Correct+0+0)&0ffh,c
 11744  002BC4  6E07               	clrf	(??_Is_Checksum_Correct+0+0+1)&0ffh,c
 11745  002BC6  6A08               
 11746                           		movf	((c:_LastByteOfFrame)),c,w
 11747  002BC8  5070               	subwf	(??_Is_Checksum_Correct+0+0),c,w
 11748  002BCA  5C07               	movf	((c:_LastByteOfFrame+1)),c,w
 11749  002BCC  5071               	subwfb	(??_Is_Checksum_Correct+0+1),c,w
 11750  002BCE  5808               	btfss	status,0
 11751  002BD0  A0D8               	goto	u2701
 11752  002BD2  EFED  F015         	goto	u2700
 11753  002BD6  EFEF  F015         
 11754                           u2701:
 11755  002BDA                     	goto	l2651
 11756  002BDA  EFCE  F015         u2700:
 11757  002BDE                     	goto	l2657
 11758  002BDE  EFF1  F015         	
 11759                           l138:
 11760  002BE2                     	line	108
 11761                           	
 11762                           l2657:
 11763  002BE2                     ;PIC_Interface_with_XBee.c: 108:  checksum = 0xFF - checksum;
 11764                           	movff	(c:Is_Checksum_Correct@checksum),??_Is_Checksum_Correct+0+0
 11765  002BE2  C00A  F007         	movff	(c:Is_Checksum_Correct@checksum+1),??_Is_Checksum_Correct+0+0+1
 11766  002BE6  C00B  F008         	comf	(??_Is_Checksum_Correct+0+0),c
 11767  002BEA  1E07               	comf	(??_Is_Checksum_Correct+0+1),c
 11768  002BEC  1E08               	infsnz	(??_Is_Checksum_Correct+0+0),c
 11769  002BEE  4A07               	incf	(??_Is_Checksum_Correct+0+1),c
 11770  002BF0  2A08               	movlw	low(0FFh)
 11771  002BF2  0EFF               	addwf	(??_Is_Checksum_Correct+0+0),c,w
 11772  002BF4  2407               	movwf	((c:Is_Checksum_Correct@checksum)),c
 11773  002BF6  6E0A               	movlw	high(0FFh)
 11774  002BF8  0E00               	addwfc	(??_Is_Checksum_Correct+0+1),c,w
 11775  002BFA  2008               	movwf	1+((c:Is_Checksum_Correct@checksum)),c
 11776  002BFC  6E0B               	line	109
 11777                           	
 11778                           l2659:
 11779  002BFE                     ;PIC_Interface_with_XBee.c: 109:  if(ReceiveBuffer[LastByteOfFrame] == (uint8_t)checksum
                                  && LastByteOfFrame > 0)
 11780                           	movlw	low(_ReceiveBuffer)
 11781  002BFE  0E00               	addwf	((c:_LastByteOfFrame)),c,w
 11782  002C00  2470               	movwf	c:fsr2l
 11783  002C02  6ED9               	movlw	high(_ReceiveBuffer)
 11784  002C04  0E01               	addwfc	((c:_LastByteOfFrame+1)),c,w
 11785  002C06  2071               	movwf	1+c:fsr2l
 11786  002C08  6EDA               	movf	((c:Is_Checksum_Correct@checksum)),c,w
 11787  002C0A  500A               xorwf	postinc2,w
 11788  002C0C  18DE               	btfss	status,2
 11789  002C0E  A4D8               	goto	u2711
 11790  002C10  EF0C  F016         	goto	u2710
 11791  002C14  EF0E  F016         
 11792                           u2711:
 11793  002C18                     	goto	l2669
 11794  002C18  EF1E  F016         u2710:
 11795  002C1C                     	
 11796                           l2661:
 11797  002C1C                     	movf	((c:_LastByteOfFrame)),c,w
 11798  002C1C  5070               iorwf	((c:_LastByteOfFrame+1)),c,w
 11799  002C1E  1071               	btfsc	status,2
 11800  002C20  B4D8               	goto	u2721
 11801  002C22  EF15  F016         	goto	u2720
 11802  002C26  EF17  F016         
 11803                           u2721:
 11804  002C2A                     	goto	l2669
 11805  002C2A  EF1E  F016         u2720:
 11806  002C2E                     	line	110
 11807                           	
 11808                           l2663:
 11809  002C2E                     ;PIC_Interface_with_XBee.c: 110:   return 1;
 11810                           	movlw	(01h)&0ffh
 11811  002C2E  0E01               	goto	l140
 11812  002C30  EF23  F016         	
 11813                           l2665:
 11814  002C34                     	goto	l140
 11815  002C34  EF23  F016         	
 11816                           l2667:
 11817  002C38                     	goto	l140
 11818  002C38  EF23  F016         	line	111
 11819                           ;PIC_Interface_with_XBee.c: 111:  else
 11820                           	
 11821                           l139:
 11822  002C3C                     	line	112
 11823                           	
 11824                           l2669:
 11825  002C3C                     ;PIC_Interface_with_XBee.c: 112:   return 0;
 11826                           	movlw	(0)&0ffh
 11827  002C3C  0E00               	goto	l140
 11828  002C3E  EF23  F016         	
 11829                           l2671:
 11830  002C42                     	goto	l140
 11831  002C42  EF23  F016         	
 11832                           l141:
 11833  002C46                     	line	113
 11834                           	
 11835                           l140:
 11836  002C46                     	return	;funcret
 11837  002C46  0012               	opt stack 0
 11838                           GLOBAL	__end_of_Is_Checksum_Correct
 11839                           	__end_of_Is_Checksum_Correct:
 11840  002C48                     	signat	_Is_Checksum_Correct,89
 11841                           	global	_memset
 11842                           
 11843 ;; *************** function _memset *****************
 11844 ;; Defined at:
 11845 ;;		line 4 in file "C:\Program Files (x86)\Microchip\xc8\v2.00\pic\sources\c99\common\memset.c"
 11846 ;; Parameters:    Size  Location     Type
 11847 ;;  dest            2    6[COMRAM] PTR void 
 11848 ;;		 -> main@_buffer(25), ReceiveBuffer(100), 
 11849 ;;  c               2    8[COMRAM] int 
 11850 ;;  n               2   10[COMRAM] unsigned int 
 11851 ;; Auto vars:     Size  Location     Type
 11852 ;;  s               2   18[COMRAM] PTR unsigned char 
 11853 ;;		 -> main@_buffer(25), ReceiveBuffer(100), 
 11854 ;;  k               2   16[COMRAM] unsigned int 
 11855 ;; Return value:  Size  Location     Type
 11856 ;;                  2    6[COMRAM] PTR void 
 11857 ;; Registers used:
 11858 ;;		wreg, fsr2l, fsr2h, status,2, status,0
 11859 ;; Tracked objects:
 11860 ;;		On entry : 0/0
 11861 ;;		On exit  : 0/0
 11862 ;;		Unchanged: 0/0
 11863 ;; Data sizes:     COMRAM   BANK0   BANK1   BANK2   BANK3   BANK4   BANK5
 11864 ;;      Params:         6       0       0       0       0       0       0
 11865 ;;      Locals:         4       0       0       0       0       0       0
 11866 ;;      Temps:          4       0       0       0       0       0       0
 11867 ;;      Totals:        14       0       0       0       0       0       0
 11868 ;;Total ram usage:       14 bytes
 11869 ;; Hardware stack levels used:    1
 11870 ;; Hardware stack levels required when called:    1
 11871 ;; This function calls:
 11872 ;;		Nothing
 11873 ;; This function is called by:
 11874 ;;		_Get_Sample
 11875 ;;		_main
 11876 ;; This function uses a non-reentrant model
 11877 ;;
 11878                           psect	text35,class=CODE,space=0,reloc=2,group=2
 11879                           	file	"C:\Program Files (x86)\Microchip\xc8\v2.00\pic\sources\c99\common\memset.c"
 11880                           	line	4
 11881                           global __ptext35
 11882                           __ptext35:
 11883  002390                     psect	text35
 11884                           	file	"C:\Program Files (x86)\Microchip\xc8\v2.00\pic\sources\c99\common\memset.c"
 11885                           	line	4
 11886                           	global	__size_of_memset
 11887                           	__size_of_memset	equ	__end_of_memset-_memset
 11888  0000                     	
 11889                           _memset:
 11890  002390                     ;incstack = 0
 11891                           	opt	stack 29
 11892                           	line	6
 11893                           	
 11894                           l2859:
 11895  002390                     		movff	(c:memset@dest),(c:memset@s)
 11896  002390  C007  F013         	movff	(c:memset@dest+1),(c:memset@s+1)
 11897  002394  C008  F014         
 11898                           	line	13
 11899                           	movf	((c:memset@n)),c,w
 11900  002398  500B               iorwf	((c:memset@n+1)),c,w
 11901  00239A  100C               	btfss	status,2
 11902  00239C  A4D8               	goto	u3091
 11903  00239E  EFD3  F011         	goto	u3090
 11904  0023A2  EFD5  F011         
 11905                           u3091:
 11906  0023A6                     	goto	l2863
 11907  0023A6  EFD9  F011         u3090:
 11908  0023AA                     	goto	l1053
 11909  0023AA  EFA6  F012         	
 11910                           l2861:
 11911  0023AE                     ;	Return value of _memset is never used
 11912                           	goto	l1053
 11913  0023AE  EFA6  F012         	
 11914                           l1052:
 11915  0023B2                     	line	14
 11916                           	
 11917                           l2863:
 11918  0023B2                     	movff	(c:memset@s),fsr2l
 11919  0023B2  C013  FFD9         	movff	(c:memset@s+1),fsr2h
 11920  0023B6  C014  FFDA         	movff	(c:memset@c),indf2
 11921  0023BA  C009  FFDF         
 11922                           	line	15
 11923                           	
 11924                           l2865:
 11925  0023BE                     	movlw	low(0FFFFh)
 11926  0023BE  0EFF               	movwf	(??_memset+0+0)&0ffh,c
 11927  0023C0  6E0D               	movlw	high(0FFFFh)
 11928  0023C2  0EFF               	movwf	1+(??_memset+0+0)&0ffh,c
 11929  0023C4  6E0E               	movff	(c:memset@n),??_memset+2+0
 11930  0023C6  C00B  F00F         	movff	(c:memset@n+1),??_memset+2+0+1
 11931  0023CA  C00C  F010         	movf	(??_memset+0+0),c,w
 11932  0023CE  500D               	addwf	(??_memset+2+0),c
 11933  0023D0  260F               	movf	(??_memset+0+1),c,w
 11934  0023D2  500E               	addwfc	(??_memset+2+1),c
 11935  0023D4  2210               	movf	(??_memset+2+0),c,w
 11936  0023D6  500F               	addwf	((c:memset@s)),c,w
 11937  0023D8  2413               	movwf	c:fsr2l
 11938  0023DA  6ED9               	movf	(??_memset+2+1),c,w
 11939  0023DC  5010               	addwfc	((c:memset@s+1)),c,w
 11940  0023DE  2014               	movwf	1+c:fsr2l
 11941  0023E0  6EDA               	movff	(c:memset@c),indf2
 11942  0023E2  C009  FFDF         
 11943                           	line	16
 11944                           		movf	((c:memset@n+1)),c,w
 11945  0023E6  500C               	bnz	u3101
 11946  0023E8  E107               	movlw	3
 11947  0023EA  0E03               	subwf	 ((c:memset@n)),c,w
 11948  0023EC  5C0B               	btfsc	status,0
 11949  0023EE  B0D8               	goto	u3101
 11950  0023F0  EFFC  F011         	goto	u3100
 11951  0023F4  EFFE  F011         
 11952                           u3101:
 11953  0023F8                     	goto	l2869
 11954  0023F8  EF02  F012         u3100:
 11955  0023FC                     	goto	l1053
 11956  0023FC  EFA6  F012         	
 11957                           l2867:
 11958  002400                     ;	Return value of _memset is never used
 11959                           	goto	l1053
 11960  002400  EFA6  F012         	
 11961                           l1054:
 11962  002404                     	line	17
 11963                           	
 11964                           l2869:
 11965  002404                     	lfsr	2,01h
 11966  002404  EE20 F001          	movf	((c:memset@s)),c,w
 11967  002408  5013               	addwf	fsr2l
 11968  00240A  26D9               	movf	((c:memset@s+1)),c,w
 11969  00240C  5014               	addwfc	fsr2h
 11970  00240E  22DA               	movff	(c:memset@c),indf2
 11971  002410  C009  FFDF         
 11972                           	line	18
 11973                           	lfsr	2,02h
 11974  002414  EE20 F002          	movf	((c:memset@s)),c,w
 11975  002418  5013               	addwf	fsr2l
 11976  00241A  26D9               	movf	((c:memset@s+1)),c,w
 11977  00241C  5014               	addwfc	fsr2h
 11978  00241E  22DA               	movff	(c:memset@c),indf2
 11979  002420  C009  FFDF         
 11980                           	line	19
 11981                           	movlw	low(0FFFEh)
 11982  002424  0EFE               	movwf	(??_memset+0+0)&0ffh,c
 11983  002426  6E0D               	movlw	high(0FFFEh)
 11984  002428  0EFF               	movwf	1+(??_memset+0+0)&0ffh,c
 11985  00242A  6E0E               	movff	(c:memset@n),??_memset+2+0
 11986  00242C  C00B  F00F         	movff	(c:memset@n+1),??_memset+2+0+1
 11987  002430  C00C  F010         	movf	(??_memset+0+0),c,w
 11988  002434  500D               	addwf	(??_memset+2+0),c
 11989  002436  260F               	movf	(??_memset+0+1),c,w
 11990  002438  500E               	addwfc	(??_memset+2+1),c
 11991  00243A  2210               	movf	(??_memset+2+0),c,w
 11992  00243C  500F               	addwf	((c:memset@s)),c,w
 11993  00243E  2413               	movwf	c:fsr2l
 11994  002440  6ED9               	movf	(??_memset+2+1),c,w
 11995  002442  5010               	addwfc	((c:memset@s+1)),c,w
 11996  002444  2014               	movwf	1+c:fsr2l
 11997  002446  6EDA               	movff	(c:memset@c),indf2
 11998  002448  C009  FFDF         
 11999                           	line	20
 12000                           	movlw	low(0FFFDh)
 12001  00244C  0EFD               	movwf	(??_memset+0+0)&0ffh,c
 12002  00244E  6E0D               	movlw	high(0FFFDh)
 12003  002450  0EFF               	movwf	1+(??_memset+0+0)&0ffh,c
 12004  002452  6E0E               	movff	(c:memset@n),??_memset+2+0
 12005  002454  C00B  F00F         	movff	(c:memset@n+1),??_memset+2+0+1
 12006  002458  C00C  F010         	movf	(??_memset+0+0),c,w
 12007  00245C  500D               	addwf	(??_memset+2+0),c
 12008  00245E  260F               	movf	(??_memset+0+1),c,w
 12009  002460  500E               	addwfc	(??_memset+2+1),c
 12010  002462  2210               	movf	(??_memset+2+0),c,w
 12011  002464  500F               	addwf	((c:memset@s)),c,w
 12012  002466  2413               	movwf	c:fsr2l
 12013  002468  6ED9               	movf	(??_memset+2+1),c,w
 12014  00246A  5010               	addwfc	((c:memset@s+1)),c,w
 12015  00246C  2014               	movwf	1+c:fsr2l
 12016  00246E  6EDA               	movff	(c:memset@c),indf2
 12017  002470  C009  FFDF         
 12018                           	line	21
 12019                           	
 12020                           l2871:
 12021  002474                     		movf	((c:memset@n+1)),c,w
 12022  002474  500C               	bnz	u3111
 12023  002476  E107               	movlw	7
 12024  002478  0E07               	subwf	 ((c:memset@n)),c,w
 12025  00247A  5C0B               	btfsc	status,0
 12026  00247C  B0D8               	goto	u3111
 12027  00247E  EF43  F012         	goto	u3110
 12028  002482  EF45  F012         
 12029                           u3111:
 12030  002486                     	goto	l2875
 12031  002486  EF49  F012         u3110:
 12032  00248A                     	goto	l1053
 12033  00248A  EFA6  F012         	
 12034                           l2873:
 12035  00248E                     ;	Return value of _memset is never used
 12036                           	goto	l1053
 12037  00248E  EFA6  F012         	
 12038                           l1055:
 12039  002492                     	line	22
 12040                           	
 12041                           l2875:
 12042  002492                     	lfsr	2,03h
 12043  002492  EE20 F003          	movf	((c:memset@s)),c,w
 12044  002496  5013               	addwf	fsr2l
 12045  002498  26D9               	movf	((c:memset@s+1)),c,w
 12046  00249A  5014               	addwfc	fsr2h
 12047  00249C  22DA               	movff	(c:memset@c),indf2
 12048  00249E  C009  FFDF         
 12049                           	line	23
 12050                           	movlw	low(0FFFCh)
 12051  0024A2  0EFC               	movwf	(??_memset+0+0)&0ffh,c
 12052  0024A4  6E0D               	movlw	high(0FFFCh)
 12053  0024A6  0EFF               	movwf	1+(??_memset+0+0)&0ffh,c
 12054  0024A8  6E0E               	movff	(c:memset@n),??_memset+2+0
 12055  0024AA  C00B  F00F         	movff	(c:memset@n+1),??_memset+2+0+1
 12056  0024AE  C00C  F010         	movf	(??_memset+0+0),c,w
 12057  0024B2  500D               	addwf	(??_memset+2+0),c
 12058  0024B4  260F               	movf	(??_memset+0+1),c,w
 12059  0024B6  500E               	addwfc	(??_memset+2+1),c
 12060  0024B8  2210               	movf	(??_memset+2+0),c,w
 12061  0024BA  500F               	addwf	((c:memset@s)),c,w
 12062  0024BC  2413               	movwf	c:fsr2l
 12063  0024BE  6ED9               	movf	(??_memset+2+1),c,w
 12064  0024C0  5010               	addwfc	((c:memset@s+1)),c,w
 12065  0024C2  2014               	movwf	1+c:fsr2l
 12066  0024C4  6EDA               	movff	(c:memset@c),indf2
 12067  0024C6  C009  FFDF         
 12068                           	line	24
 12069                           	
 12070                           l2877:
 12071  0024CA                     		movf	((c:memset@n+1)),c,w
 12072  0024CA  500C               	bnz	u3121
 12073  0024CC  E107               	movlw	9
 12074  0024CE  0E09               	subwf	 ((c:memset@n)),c,w
 12075  0024D0  5C0B               	btfsc	status,0
 12076  0024D2  B0D8               	goto	u3121
 12077  0024D4  EF6E  F012         	goto	u3120
 12078  0024D8  EF70  F012         
 12079                           u3121:
 12080  0024DC                     	goto	l2881
 12081  0024DC  EF74  F012         u3120:
 12082  0024E0                     	goto	l1053
 12083  0024E0  EFA6  F012         	
 12084                           l2879:
 12085  0024E4                     ;	Return value of _memset is never used
 12086                           	goto	l1053
 12087  0024E4  EFA6  F012         	
 12088                           l1056:
 12089  0024E8                     	line	31
 12090                           	
 12091                           l2881:
 12092  0024E8                     	movff	(c:memset@s),??_memset+0+0
 12093  0024E8  C013  F00D         	movff	(c:memset@s+1),??_memset+0+0+1
 12094  0024EC  C014  F00E         	comf	(??_memset+0+0),c
 12095  0024F0  1E0D               	comf	(??_memset+0+1),c
 12096  0024F2  1E0E               	infsnz	(??_memset+0+0),c
 12097  0024F4  4A0D               	incf	(??_memset+0+1),c
 12098  0024F6  2A0E               	movlw	03h
 12099  0024F8  0E03               	andwf	(??_memset+0+0),c,w
 12100  0024FA  140D               	movwf	((c:memset@k)),c
 12101  0024FC  6E11               	clrf	1+((c:memset@k)),c
 12102  0024FE  6A12               	line	32
 12103                           	movf	((c:memset@k)),c,w
 12104  002500  5011               	addwf	((c:memset@s)),c
 12105  002502  2613               	movf	((c:memset@k+1)),c,w
 12106  002504  5012               	addwfc	((c:memset@s+1)),c
 12107  002506  2214               
 12108                           	line	33
 12109                           	movf	((c:memset@k)),c,w
 12110  002508  5011               	subwf	((c:memset@n)),c
 12111  00250A  5E0B               	movf	((c:memset@k+1)),c,w
 12112  00250C  5012               	subwfb	((c:memset@n+1)),c
 12113  00250E  5A0C               
 12114                           	line	34
 12115                           	movlw	low(0FFFCh)
 12116  002510  0EFC               	andwf	((c:memset@n)),c
 12117  002512  160B               	movlw	high(0FFFCh)
 12118  002514  0EFF               	andwf	((c:memset@n+1)),c
 12119  002516  160C               	line	86
 12120                           	goto	l2889
 12121  002518  EF9B  F012         	
 12122                           l1058:
 12123  00251C                     	
 12124                           l2883:
 12125  00251C                     	movff	(c:memset@s),fsr2l
 12126  00251C  C013  FFD9         	movff	(c:memset@s+1),fsr2h
 12127  002520  C014  FFDA         	movff	(c:memset@c),indf2
 12128  002524  C009  FFDF         
 12129                           	
 12130                           l2885:
 12131  002528                     	decf	((c:memset@n)),c
 12132  002528  060B               	btfss	status,0
 12133  00252A  A0D8               	decf	((c:memset@n+1)),c
 12134  00252C  060C               	
 12135                           l2887:
 12136  00252E                     	infsnz	((c:memset@s)),c
 12137  00252E  4A13               	incf	((c:memset@s+1)),c
 12138  002530  2A14               	goto	l2889
 12139  002532  EF9B  F012         	
 12140                           l1057:
 12141  002536                     	
 12142                           l2889:
 12143  002536                     	movf	((c:memset@n)),c,w
 12144  002536  500B               iorwf	((c:memset@n+1)),c,w
 12145  002538  100C               	btfss	status,2
 12146  00253A  A4D8               	goto	u3131
 12147  00253C  EFA2  F012         	goto	u3130
 12148  002540  EFA4  F012         
 12149                           u3131:
 12150  002544                     	goto	l2883
 12151  002544  EF8E  F012         u3130:
 12152  002548                     	goto	l1053
 12153  002548  EFA6  F012         	
 12154                           l1059:
 12155  00254C                     	line	90
 12156                           ;	Return value of _memset is never used
 12157                           	
 12158                           l1053:
 12159  00254C                     	return	;funcret
 12160  00254C  0012               	opt stack 0
 12161                           GLOBAL	__end_of_memset
 12162                           	__end_of_memset:
 12163  00254E                     	signat	_memset,12410
 12164                           	global	_MSdelay
 12165                           
 12166 ;; *************** function _MSdelay *****************
 12167 ;; Defined at:
 12168 ;;		line 76 in file "LCD_16x2_Source_file.c"
 12169 ;; Parameters:    Size  Location     Type
 12170 ;;  val             2    6[COMRAM] unsigned int 
 12171 ;; Auto vars:     Size  Location     Type
 12172 ;;  j               2   10[COMRAM] unsigned int 
 12173 ;;  i               2    8[COMRAM] unsigned int 
 12174 ;; Return value:  Size  Location     Type
 12175 ;;                  1    wreg      void 
 12176 ;; Registers used:
 12177 ;;		wreg, status,2, status,0
 12178 ;; Tracked objects:
 12179 ;;		On entry : 0/0
 12180 ;;		On exit  : 0/0
 12181 ;;		Unchanged: 0/0
 12182 ;; Data sizes:     COMRAM   BANK0   BANK1   BANK2   BANK3   BANK4   BANK5
 12183 ;;      Params:         2       0       0       0       0       0       0
 12184 ;;      Locals:         4       0       0       0       0       0       0
 12185 ;;      Temps:          0       0       0       0       0       0       0
 12186 ;;      Totals:         6       0       0       0       0       0       0
 12187 ;;Total ram usage:        6 bytes
 12188 ;; Hardware stack levels used:    1
 12189 ;; Hardware stack levels required when called:    1
 12190 ;; This function calls:
 12191 ;;		Nothing
 12192 ;; This function is called by:
 12193 ;;		_LCD_Init
 12194 ;;		_LCD_Clear
 12195 ;;		_LCD_Command
 12196 ;;		_LCD_Char
 12197 ;;		_Get_Sample
 12198 ;;		_SetTo_Broadcast
 12199 ;;		_main
 12200 ;; This function uses a non-reentrant model
 12201 ;;
 12202                           psect	text36,class=CODE,space=0,reloc=2,group=0
 12203                           	file	"LCD_16x2_Source_file.c"
 12204                           	line	76
 12205                           global __ptext36
 12206                           __ptext36:
 12207  002DBC                     psect	text36
 12208                           	file	"LCD_16x2_Source_file.c"
 12209                           	line	76
 12210                           	global	__size_of_MSdelay
 12211                           	__size_of_MSdelay	equ	__end_of_MSdelay-_MSdelay
 12212  0000                     	
 12213                           _MSdelay:
 12214  002DBC                     ;incstack = 0
 12215                           	opt	stack 28
 12216                           	line	79
 12217                           	
 12218                           l2529:
 12219  002DBC                     ;LCD_16x2_Source_file.c: 76: void MSdelay(unsigned int val);LCD_16x2_Source_file.c: 77: 
                                 {;LCD_16x2_Source_file.c: 78:      unsigned int i,j;;LCD_16x2_Source_file.c: 79:        
                                  for(i=0;i<=val;i++)
 12220                           	movlw	high(0)
 12221  002DBC  0E00               	movwf	((c:MSdelay@i+1)),c
 12222  002DBE  6E0A               	movlw	low(0)
 12223  002DC0  0E00               	movwf	((c:MSdelay@i)),c
 12224  002DC2  6E09               	goto	l2543
 12225  002DC4  EF0A  F017         	
 12226                           l44:
 12227  002DC8                     	line	80
 12228                           	
 12229                           l2531:
 12230  002DC8                     ;LCD_16x2_Source_file.c: 80:             for(j=0;j<165;j++);
 12231                           	movlw	high(0)
 12232  002DC8  0E00               	movwf	((c:MSdelay@j+1)),c
 12233  002DCA  6E0C               	movlw	low(0)
 12234  002DCC  0E00               	movwf	((c:MSdelay@j)),c
 12235  002DCE  6E0B               	
 12236                           l2533:
 12237  002DD0                     		movf	((c:MSdelay@j+1)),c,w
 12238  002DD0  500C               	bnz	u2470
 12239  002DD2  E109               	movlw	165
 12240  002DD4  0EA5               	subwf	 ((c:MSdelay@j)),c,w
 12241  002DD6  5C0B               	btfss	status,0
 12242  002DD8  A0D8               	goto	u2471
 12243  002DDA  EFF1  F016         	goto	u2470
 12244  002DDE  EFF3  F016         
 12245                           u2471:
 12246  002DE2                     	goto	l2537
 12247  002DE2  EFF7  F016         u2470:
 12248  002DE6                     	goto	l2541
 12249  002DE6  EF06  F017         	
 12250                           l2535:
 12251  002DEA                     	goto	l2541
 12252  002DEA  EF06  F017         	
 12253                           l45:
 12254  002DEE                     	
 12255                           l2537:
 12256  002DEE                     	infsnz	((c:MSdelay@j)),c
 12257  002DEE  4A0B               	incf	((c:MSdelay@j+1)),c
 12258  002DF0  2A0C               	
 12259                           l2539:
 12260  002DF2                     		movf	((c:MSdelay@j+1)),c,w
 12261  002DF2  500C               	bnz	u2480
 12262  002DF4  E109               	movlw	165
 12263  002DF6  0EA5               	subwf	 ((c:MSdelay@j)),c,w
 12264  002DF8  5C0B               	btfss	status,0
 12265  002DFA  A0D8               	goto	u2481
 12266  002DFC  EF02  F017         	goto	u2480
 12267  002E00  EF04  F017         
 12268                           u2481:
 12269  002E04                     	goto	l2537
 12270  002E04  EFF7  F016         u2480:
 12271  002E08                     	goto	l2541
 12272  002E08  EF06  F017         	
 12273                           l46:
 12274  002E0C                     	
 12275                           l2541:
 12276  002E0C                     	infsnz	((c:MSdelay@i)),c
 12277  002E0C  4A09               	incf	((c:MSdelay@i+1)),c
 12278  002E0E  2A0A               	goto	l2543
 12279  002E10  EF0A  F017         	
 12280                           l43:
 12281  002E14                     	
 12282                           l2543:
 12283  002E14                     		movf	((c:MSdelay@i)),c,w
 12284  002E14  5009               	subwf	((c:MSdelay@val)),c,w
 12285  002E16  5C07               	movf	((c:MSdelay@i+1)),c,w
 12286  002E18  500A               	subwfb	((c:MSdelay@val+1)),c,w
 12287  002E1A  5808               	btfsc	status,0
 12288  002E1C  B0D8               	goto	u2491
 12289  002E1E  EF13  F017         	goto	u2490
 12290  002E22  EF15  F017         
 12291                           u2491:
 12292  002E26                     	goto	l2531
 12293  002E26  EFE4  F016         u2490:
 12294  002E2A                     	goto	l48
 12295  002E2A  EF17  F017         	
 12296                           l47:
 12297  002E2E                     	line	81
 12298                           	
 12299                           l48:
 12300  002E2E                     	return	;funcret
 12301  002E2E  0012               	opt stack 0
 12302                           GLOBAL	__end_of_MSdelay
 12303                           	__end_of_MSdelay:
 12304  002E30                     	signat	_MSdelay,4217
 12305                           	global	_LO_ISR
 12306                           
 12307 ;; *************** function _LO_ISR *****************
 12308 ;; Defined at:
 12309 ;;		line 323 in file "PIC_Interface_with_XBee.c"
 12310 ;; Parameters:    Size  Location     Type
 12311 ;;		None
 12312 ;; Auto vars:     Size  Location     Type
 12313 ;;  received_cha    1    5[COMRAM] unsigned char 
 12314 ;; Return value:  Size  Location     Type
 12315 ;;                  1    wreg      void 
 12316 ;; Registers used:
 12317 ;;		wreg, fsr2l, fsr2h, status,2, status,0
 12318 ;; Tracked objects:
 12319 ;;		On entry : 0/0
 12320 ;;		On exit  : 0/0
 12321 ;;		Unchanged: 0/0
 12322 ;; Data sizes:     COMRAM   BANK0   BANK1   BANK2   BANK3   BANK4   BANK5
 12323 ;;      Params:         0       0       0       0       0       0       0
 12324 ;;      Locals:         1       0       0       0       0       0       0
 12325 ;;      Temps:          5       0       0       0       0       0       0
 12326 ;;      Totals:         6       0       0       0       0       0       0
 12327 ;;Total ram usage:        6 bytes
 12328 ;; Hardware stack levels used:    1
 12329 ;; This function calls:
 12330 ;;		Nothing
 12331 ;; This function is called by:
 12332 ;;		Interrupt level 1
 12333 ;; This function uses a non-reentrant model
 12334 ;;
 12335                           psect	intcodelo,class=CODE,space=0,reloc=2
 12336                           global __pintcodelo
 12337                           __pintcodelo:
 12338  000018                     psect	intcodelo
 12339                           	file	"PIC_Interface_with_XBee.c"
 12340                           	line	323
 12341                           	global	__size_of_LO_ISR
 12342                           	__size_of_LO_ISR	equ	__end_of_LO_ISR-_LO_ISR
 12343  0000                     	
 12344                           _LO_ISR:
 12345  000018                     ;incstack = 0
 12346                           	opt	stack 22
 12347                           	bsf int$flags,0,c ;set compiler interrupt flag (level 1)
 12348  000018  8074               	movff	status+0,??_LO_ISR+0
 12349  00001A  CFD8 F001          	movff	wreg+0,??_LO_ISR+1
 12350  00001E  CFE8 F002          	movff	bsr+0,??_LO_ISR+2
 12351  000022  CFE0 F003          	movff	fsr2l+0,??_LO_ISR+3
 12352  000026  CFD9 F004          	movff	fsr2h+0,??_LO_ISR+4
 12353  00002A  CFDA F005          	line	326
 12354                           	
 12355                           i1l3515:
 12356  00002E                     ;PIC_Interface_with_XBee.c: 325:     char received_char;;PIC_Interface_with_XBee.c: 326:
                                      if(RCIF==1){
 12357                           	btfss	c:(31989/8),(31989)&7	;volatile
 12358  00002E  AA9E               	goto	i1u420_21
 12359  000030  EF1C  F000         	goto	i1u420_20
 12360  000034  EF1E  F000         i1u420_21:
 12361  000038                     	goto	i1l230
 12362  000038  EF55  F000         i1u420_20:
 12363  00003C                     	line	327
 12364                           	
 12365                           i1l3517:
 12366  00003C                     ;PIC_Interface_with_XBee.c: 327:         received_char = RCREG;
 12367                           	movff	(c:4014),(c:LO_ISR@received_char)	;volatile
 12368  00003C  CFAE F006          	line	328
 12369                           ;PIC_Interface_with_XBee.c: 328:         if(RCSTAbits.OERR)
 12370                           	btfss	((c:4011)),c,1	;volatile
 12371  000040  A2AB               	goto	i1u421_21
 12372  000042  EF25  F000         	goto	i1u421_20
 12373  000046  EF27  F000         i1u421_21:
 12374  00004A                     	goto	i1l3521
 12375  00004A  EF2C  F000         i1u421_20:
 12376  00004E                     	line	330
 12377                           	
 12378                           i1l3519:
 12379  00004E                     ;PIC_Interface_with_XBee.c: 329:         {;PIC_Interface_with_XBee.c: 330:             C
                                 REN = 0;
 12380                           	bcf	c:(32092/8),(32092)&7	;volatile
 12381  00004E  98AB               	line	331
 12382                           ;PIC_Interface_with_XBee.c: 331:             __nop();
 12383                           	opt	asmopt_push
 12384                           	opt	asmopt_off
 12385                           	nop
 12386  000050  F000               	opt	asmopt_pop
 12387                           	line	332
 12388                           ;PIC_Interface_with_XBee.c: 332:             CREN=1;
 12389                           	bsf	c:(32092/8),(32092)&7	;volatile
 12390  000052  88AB               	goto	i1l3521
 12391  000054  EF2C  F000         	line	333
 12392                           ;PIC_Interface_with_XBee.c: 333:         }
 12393                           	
 12394                           i1l227:
 12395  000058                     	line	334
 12396                           	
 12397                           i1l3521:
 12398  000058                     ;PIC_Interface_with_XBee.c: 334:         if (received_char == 0x7E)
 12399                           		movlw	126
 12400  000058  0E7E               	xorwf	((c:LO_ISR@received_char)),c,w
 12401  00005A  1806               	btfss	status,2
 12402  00005C  A4D8               	goto	i1u422_21
 12403  00005E  EF33  F000         	goto	i1u422_20
 12404  000062  EF35  F000         
 12405                           i1u422_21:
 12406  000066                     	goto	i1l3529
 12407  000066  EF47  F000         i1u422_20:
 12408  00006A                     	line	336
 12409                           	
 12410                           i1l3523:
 12411  00006A                     ;PIC_Interface_with_XBee.c: 335:         {;PIC_Interface_with_XBee.c: 336:             L
                                 astByteOfFrame = BufferPointer;
 12412                           	movff	(c:_BufferPointer),(c:_LastByteOfFrame)
 12413  00006A  C072  F070         	movff	(c:_BufferPointer+1),(c:_LastByteOfFrame+1)
 12414  00006E  C073  F071         	line	337
 12415                           	
 12416                           i1l3525:
 12417  000072                     ;PIC_Interface_with_XBee.c: 337:             BufferPointer = 0;
 12418                           	movlw	high(0)
 12419  000072  0E00               	movwf	((c:_BufferPointer+1)),c
 12420  000074  6E73               	movlw	low(0)
 12421  000076  0E00               	movwf	((c:_BufferPointer)),c
 12422  000078  6E72               	line	338
 12423                           	
 12424                           i1l3527:
 12425  00007A                     ;PIC_Interface_with_XBee.c: 338:             ReceiveBuffer[BufferPointer] = received_cha
                                 r;
 12426                           	movlw	low(_ReceiveBuffer)
 12427  00007A  0E00               	addwf	((c:_BufferPointer)),c,w
 12428  00007C  2472               	movwf	c:fsr2l
 12429  00007E  6ED9               	movlw	high(_ReceiveBuffer)
 12430  000080  0E01               	addwfc	((c:_BufferPointer+1)),c,w
 12431  000082  2073               	movwf	1+c:fsr2l
 12432  000084  6EDA               	movff	(c:LO_ISR@received_char),indf2
 12433  000086  C006  FFDF         
 12434                           	line	339
 12435                           ;PIC_Interface_with_XBee.c: 339:         }
 12436                           	goto	i1l230
 12437  00008A  EF55  F000         	line	340
 12438                           ;PIC_Interface_with_XBee.c: 340:         else
 12439                           	
 12440                           i1l228:
 12441  00008E                     	line	342
 12442                           	
 12443                           i1l3529:
 12444  00008E                     ;PIC_Interface_with_XBee.c: 341:         {;PIC_Interface_with_XBee.c: 342:             B
                                 ufferPointer++;
 12445                           	infsnz	((c:_BufferPointer)),c
 12446  00008E  4A72               	incf	((c:_BufferPointer+1)),c
 12447  000090  2A73               	line	343
 12448                           	
 12449                           i1l3531:
 12450  000092                     ;PIC_Interface_with_XBee.c: 343:             ReceiveBuffer[BufferPointer] = received_cha
                                 r;
 12451                           	movlw	low(_ReceiveBuffer)
 12452  000092  0E00               	addwf	((c:_BufferPointer)),c,w
 12453  000094  2472               	movwf	c:fsr2l
 12454  000096  6ED9               	movlw	high(_ReceiveBuffer)
 12455  000098  0E01               	addwfc	((c:_BufferPointer+1)),c,w
 12456  00009A  2073               	movwf	1+c:fsr2l
 12457  00009C  6EDA               	movff	(c:LO_ISR@received_char),indf2
 12458  00009E  C006  FFDF         
 12459                           	goto	i1l230
 12460  0000A2  EF55  F000         	line	344
 12461                           ;PIC_Interface_with_XBee.c: 344:         }
 12462                           	
 12463                           i1l229:
 12464  0000A6                     	goto	i1l230
 12465  0000A6  EF55  F000         	line	345
 12466                           ;PIC_Interface_with_XBee.c: 345:     }
 12467                           	
 12468                           i1l226:
 12469  0000AA                     	line	346
 12470                           	
 12471                           i1l230:
 12472  0000AA                     	movff	??_LO_ISR+4,fsr2h+0
 12473  0000AA  C005  FFDA         	movff	??_LO_ISR+3,fsr2l+0
 12474  0000AE  C004  FFD9         	movff	??_LO_ISR+2,bsr+0
 12475  0000B2  C003  FFE0         	movff	??_LO_ISR+1,wreg+0
 12476  0000B6  C002  FFE8         	movff	??_LO_ISR+0,status+0
 12477  0000BA  C001  FFD8         	bcf int$flags,0,c ;clear compiler interrupt flag (level 1)
 12478  0000BE  9074               	retfie
 12479  0000C0  0010               	opt stack 0
 12480                           GLOBAL	__end_of_LO_ISR
 12481                           	__end_of_LO_ISR:
 12482  0000C2                     	signat	_LO_ISR,89
 12483                           psect	smallconst
 12484                           	db 0	; dummy byte at the end
 12485  000664  00                 	global	__smallconst
 12486                           	global	__mediumconst
 12487                           	GLOBAL	__activetblptr
 12488                           __activetblptr	EQU	2
 12489  0000                     	psect	intsave_regs,class=BIGRAM,space=1,noexec
 12490                           	PSECT	rparam,class=COMRAM,space=1,noexec
 12491                           	GLOBAL	__Lrparam
 12492                           	FNCONF	rparam,??,?
 12493                           	GLOBAL	___rparam_used
 12494                           	___rparam_used EQU 1
 12495  0000                     	GLOBAL	___param_bank
 12496                           	___param_bank EQU 0
 12497  0000                     GLOBAL	__Lparam, __Hparam
 12498                           GLOBAL	__Lrparam, __Hrparam
 12499                           __Lparam	EQU	__Lrparam
 12500  0000                     __Hparam	EQU	__Hrparam
 12501  0000                            psect   temp,common,ovrld,class=COMRAM,space=1
 12502                           	global	btemp
 12503                           btemp:
 12504  000074                     	ds	1
 12505  000074                     	global	int$flags
 12506                           	int$flags	set btemp
 12507  0000                     	global	wtemp8
 12508                           	wtemp8 set btemp+1
 12509  0000                     	global	ttemp5
 12510                           	ttemp5 set btemp+1
 12511  0000                     	global	ttemp6
 12512                           	ttemp6 set btemp+4
 12513  0000                     	global	ttemp7
 12514                           	ttemp7 set btemp+8
 12515  0000                     	end


Data Sizes:
    Strings     99
    Constant    0
    Data        0
    BSS         182
    Persistent  0
    Stack       0

Auto Spaces:
    Space          Size  Autos    Used
    COMRAM          126     99     115
    BANK0           128     43     109
    BANK1           256      0     100
    BANK2           256      0       0
    BANK3           256      0       0
    BANK4           256      0       0
    BANK5           244      0       0

Pointer List with Targets:

    strlen@s	PTR const unsigned char  size(2) Largest target is 32
		 -> dbuf(BANK0[32]), 

    strlen@a	PTR const unsigned char  size(2) Largest target is 32
		 -> dbuf(BANK0[32]), 

    sprintf@fmt	PTR const unsigned char  size(2) Largest target is 15
		 -> STR_9(CODE[15]), 

    sprintf@s	PTR unsigned char  size(2) Largest target is 25
		 -> main@_buffer(BANK0[25]), 

    sprintf@ap	PTR void [1] size(2) Largest target is 2
		 -> ?_sprintf(COMRAM[2]), 

    f.buffer	PTR unsigned char  size(2) Largest target is 25
		 -> main@_buffer(BANK0[25]), 

    fputs@s	PTR const unsigned char  size(2) Largest target is 32
		 -> dbuf(BANK0[32]), 

    fputs@fp	PTR struct _IO_FILE size(2) Largest target is 7
		 -> sprintf@f(BANK0[6]), 

    S1176_IO_FILE$buffer	PTR unsigned char  size(2) Largest target is 25
		 -> main@_buffer(BANK0[25]), 

    fputc@fp.buffer	PTR unsigned char  size(2) Largest target is 25
		 -> main@_buffer(BANK0[25]), 

    fputc@fp	PTR struct _IO_FILE size(2) Largest target is 7
		 -> sprintf@f(BANK0[6]), 

    memset@dest	PTR void  size(2) Largest target is 100
		 -> main@_buffer(BANK0[25]), ReceiveBuffer(BANK1[100]), 

    memset@s	PTR unsigned char  size(2) Largest target is 100
		 -> main@_buffer(BANK0[25]), ReceiveBuffer(BANK1[100]), 

    vfprintf@ap	PTR PTR void  size(2) Largest target is 2
		 -> sprintf@ap(BANK0[2]), 

    vfprintf@fp	PTR struct _IO_FILE size(2) Largest target is 7
		 -> sprintf@f(BANK0[6]), 

    vfprintf@fmt	PTR const unsigned char  size(2) Largest target is 15
		 -> STR_9(CODE[15]), 

    vfprintf@cfmt	PTR unsigned char  size(2) Largest target is 15
		 -> STR_9(CODE[15]), 

    vfpfcnvrt@fp	PTR struct _IO_FILE size(2) Largest target is 7
		 -> sprintf@f(BANK0[6]), 

    vfpfcnvrt@ap	PTR PTR void  size(2) Largest target is 2
		 -> sprintf@ap(BANK0[2]), 

    vfpfcnvrt@fmt	PTR PTR unsigned char  size(2) Largest target is 2
		 -> vfprintf@cfmt(COMRAM[2]), 

    dtoa@fp	PTR struct _IO_FILE size(2) Largest target is 7
		 -> sprintf@f(BANK0[6]), 

    pad@fp	PTR struct _IO_FILE size(2) Largest target is 7
		 -> sprintf@f(BANK0[6]), 

    pad@buf	PTR unsigned char  size(2) Largest target is 32
		 -> dbuf(BANK0[32]), 

    USART_SendString@str	PTR const unsigned char  size(2) Largest target is 3
		 -> STR_8(CODE[3]), STR_2(CODE[3]), STR_1(CODE[3]), 

    Write_Remote_AT_Command@ATCommand	PTR unsigned char  size(2) Largest target is 3
		 -> STR_8(CODE[3]), 

    Write_AT_Command@ATCommand	PTR unsigned char  size(2) Largest target is 3
		 -> STR_2(CODE[3]), STR_1(CODE[3]), 

    AT_Command@ATCommand	PTR const unsigned char  size(2) Largest target is 3
		 -> STR_2(CODE[3]), STR_1(CODE[3]), 

    Remote_AT_Command@ATCommand	PTR const unsigned char  size(2) Largest target is 3
		 -> STR_8(CODE[3]), 

    sp__memset	PTR void  size(2) Largest target is 100
		 -> main@_buffer(BANK0[25]), ReceiveBuffer(BANK1[100]), 

    LCD_String_xy@msg	PTR const unsigned char  size(2) Largest target is 25
		 -> main@_buffer(BANK0[25]), STR_7(CODE[17]), STR_6(CODE[17]), STR_5(CODE[17]), 
		 -> STR_4(CODE[9]), STR_3(CODE[15]), 

    LCD_String@str	PTR const unsigned char  size(2) Largest target is 25
		 -> main@_buffer(BANK0[25]), STR_7(CODE[17]), STR_6(CODE[17]), STR_5(CODE[17]), 
		 -> STR_4(CODE[9]), STR_3(CODE[15]), 


Critical Paths under _main in COMRAM

    _main->_sprintf
    _sprintf->_vfprintf
    _vfprintf->_vfpfcnvrt
    _vfpfcnvrt->_dtoa
    _dtoa->_pad
    _pad->_fputs
    _fputs->_fputc
    _abs->___aomod
    _Write_Remote_AT_Command->_Remote_AT_Command
    _Remote_AT_Command->_USART_SendString
    _USART_Init->___fltol
    ___fltol->___fladd
    ___fldiv->___xxtofl
    ___fladd->___fldiv
    _SetTo_Broadcast->_Write_AT_Command
    _Write_AT_Command->_AT_Command
    _AT_Command->_USART_SendString
    _USART_SendString->_USART_TxChar
    _LCD_String_xy->_LCD_String
    _LCD_String->_LCD_Char
    _LCD_Char->_MSdelay
    _LCD_Init->_LCD_Command
    _LCD_Clear->_LCD_Command
    _LCD_Command->_MSdelay
    _Get_Sample->_sample
    _sample->_Is_Checksum_Correct

Critical Paths under _LO_ISR in COMRAM

    None.

Critical Paths under _main in BANK0

    _main->_sprintf

Critical Paths under _LO_ISR in BANK0

    None.

Critical Paths under _main in BANK1

    None.

Critical Paths under _LO_ISR in BANK1

    None.

Critical Paths under _main in BANK2

    None.

Critical Paths under _LO_ISR in BANK2

    None.

Critical Paths under _main in BANK3

    None.

Critical Paths under _LO_ISR in BANK3

    None.

Critical Paths under _main in BANK4

    None.

Critical Paths under _LO_ISR in BANK4

    None.

Critical Paths under _main in BANK5

    None.

Critical Paths under _LO_ISR in BANK5

    None.

Call Graph Tables:

 ---------------------------------------------------------------------------------
 (Depth) Function   	        Calls       Base Space   Used Autos Params    Refs
 ---------------------------------------------------------------------------------
 (0) _main                                                37    37      0   30112
                                             10 BANK0     33    33      0
                         _Get_Sample
                          _LCD_Clear
                           _LCD_Init
                      _LCD_String_xy
                            _MSdelay
                    _SetTo_Broadcast
                         _USART_Init
            _Write_Remote_AT_Command
                             _memset
                            _sprintf
 ---------------------------------------------------------------------------------
 (1) _sprintf                                             16    10      6    8417
                                             93 COMRAM     6     0      6
                                              0 BANK0     10    10      0
                           _vfprintf
 ---------------------------------------------------------------------------------
 (2) _vfprintf                                             8     2      6    7931
                                             85 COMRAM     8     2      6
                          _vfpfcnvrt
 ---------------------------------------------------------------------------------
 (3) _vfpfcnvrt                                           42    36      6    7458
                                             69 COMRAM    16    10      6
                               _dtoa
                              _fputc
 ---------------------------------------------------------------------------------
 (4) _dtoa                                                36    26     10    5683
                                             33 COMRAM    36    26     10
                            ___aodiv
                            ___aomod
                                _abs
                                _pad
 ---------------------------------------------------------------------------------
 (5) _pad                                                 11     5      6    3417
                                             22 COMRAM    11     5      6
                              _fputc
                              _fputs
                             _strlen
 ---------------------------------------------------------------------------------
 (6) _strlen                                               6     4      2     220
                                              6 COMRAM     6     4      2
 ---------------------------------------------------------------------------------
 (6) _fputs                                                7     3      4    1537
                                             15 COMRAM     7     3      4
                              _fputc
 ---------------------------------------------------------------------------------
 (4) _fputc                                                9     5      4    1037
                                              6 COMRAM     9     5      4
                              _putch
 ---------------------------------------------------------------------------------
 (5) _putch                                                1     1      0       0
 ---------------------------------------------------------------------------------
 (5) _abs                                                  4     2      2     183
                                             24 COMRAM     4     2      2
                            ___aomod (ARG)
 ---------------------------------------------------------------------------------
 (5) ___aomod                                             18     2     16     613
                                              6 COMRAM    18     2     16
 ---------------------------------------------------------------------------------
 (5) ___aodiv                                             26    10     16     625
                                              6 COMRAM    26    10     16
 ---------------------------------------------------------------------------------
 (1) _Write_Remote_AT_Command                             16     0     16    2055
                                             36 COMRAM    16     0     16
                  _Remote_AT_Command
 ---------------------------------------------------------------------------------
 (2) _Remote_AT_Command                                   27    14     13    1565
                                              9 COMRAM    27    14     13
                   _USART_SendString
                       _USART_TxChar
 ---------------------------------------------------------------------------------
 (1) _USART_Init                                           4     0      4    4588
                                             75 COMRAM     4     0      4
                            ___fladd
                            ___fldiv
                            ___fltol
                           ___xxtofl
 ---------------------------------------------------------------------------------
 (2) ___xxtofl                                            14    10      4     398
                                              6 COMRAM    14    10      4
 ---------------------------------------------------------------------------------
 (2) ___fltol                                             10     6      4     305
                                             65 COMRAM    10     6      4
                            ___fladd (ARG)
                            ___fldiv (ARG)
                           ___xxtofl (ARG)
 ---------------------------------------------------------------------------------
 (2) ___fldiv                                             25    17      8    1399
                                             20 COMRAM    25    17      8
                           ___xxtofl (ARG)
 ---------------------------------------------------------------------------------
 (2) ___fladd                                             20    12      8    2388
                                             45 COMRAM    20    12      8
                            ___fldiv (ARG)
                           ___xxtofl (ARG)
 ---------------------------------------------------------------------------------
 (1) _SetTo_Broadcast                                      0     0      0    2213
                            _MSdelay
                   _Write_AT_Command
 ---------------------------------------------------------------------------------
 (2) _Write_AT_Command                                     6     0      6    1209
                                             20 COMRAM     6     0      6
                         _AT_Command
 ---------------------------------------------------------------------------------
 (3) _AT_Command                                          11     8      3     861
                                              9 COMRAM    11     8      3
                   _USART_SendString
                       _USART_TxChar
 ---------------------------------------------------------------------------------
 (3) _USART_SendString                                     2     0      2     219
                                              7 COMRAM     2     0      2
                       _USART_TxChar
 ---------------------------------------------------------------------------------
 (3) _USART_TxChar                                         1     1      0      22
                                              6 COMRAM     1     1      0
 ---------------------------------------------------------------------------------
 (1) _LCD_String_xy                                        5     2      3    3242
                                             15 COMRAM     5     2      3
                        _LCD_Command
                         _LCD_String
 ---------------------------------------------------------------------------------
 (2) _LCD_String                                           2     0      2    1147
                                             13 COMRAM     2     0      2
                           _LCD_Char
 ---------------------------------------------------------------------------------
 (3) _LCD_Char                                             1     1      0    1026
                                             12 COMRAM     1     1      0
                            _MSdelay
 ---------------------------------------------------------------------------------
 (1) _LCD_Init                                             0     0      0    2030
                        _LCD_Command
                            _MSdelay
 ---------------------------------------------------------------------------------
 (1) _LCD_Clear                                            0     0      0    2030
                        _LCD_Command
                            _MSdelay
 ---------------------------------------------------------------------------------
 (2) _LCD_Command                                          1     1      0    1026
                                             12 COMRAM     1     1      0
                            _MSdelay
 ---------------------------------------------------------------------------------
 (1) _Get_Sample                                           2     2      0    3125
                                             30 COMRAM     2     2      0
                   _Is_Data_Received
                            _MSdelay
                             _memset
                             _sample
 ---------------------------------------------------------------------------------
 (2) _sample                                              19    19      0     832
                                             11 COMRAM    19    19      0
                _Is_Checksum_Correct
                   _Is_Data_Received
 ---------------------------------------------------------------------------------
 (3) _Is_Data_Received                                     1     1      0      90
                                              6 COMRAM     1     1      0
 ---------------------------------------------------------------------------------
 (3) _Is_Checksum_Correct                                  5     5      0     115
                                              6 COMRAM     5     5      0
 ---------------------------------------------------------------------------------
 (1) _memset                                              14     8      6    1175
                                              6 COMRAM    14     8      6
 ---------------------------------------------------------------------------------
 (2) _MSdelay                                              6     4      2    1004
                                              6 COMRAM     6     4      2
 ---------------------------------------------------------------------------------
 Estimated maximum stack depth 6
 ---------------------------------------------------------------------------------
 (Depth) Function   	        Calls       Base Space   Used Autos Params    Refs
 ---------------------------------------------------------------------------------
 (9) _LO_ISR                                               6     6      0      67
                                              0 COMRAM     6     6      0
 ---------------------------------------------------------------------------------
 Estimated maximum stack depth 9
 ---------------------------------------------------------------------------------

 Call Graph Graphs:

 _main (ROOT)
   _Get_Sample
     _Is_Data_Received
     _MSdelay
     _memset
     _sample
       _Is_Checksum_Correct
       _Is_Data_Received
   _LCD_Clear
     _LCD_Command
       _MSdelay
     _MSdelay
   _LCD_Init
     _LCD_Command
       _MSdelay
     _MSdelay
   _LCD_String_xy
     _LCD_Command
       _MSdelay
     _LCD_String
       _LCD_Char
         _MSdelay
   _MSdelay
   _SetTo_Broadcast
     _MSdelay
     _Write_AT_Command
       _AT_Command
         _USART_SendString
           _USART_TxChar
         _USART_TxChar
   _USART_Init
     ___fladd
       ___fldiv (ARG)
         ___xxtofl (ARG)
       ___xxtofl (ARG)
     ___fldiv
       ___xxtofl (ARG)
     ___fltol
       ___fladd (ARG)
         ___fldiv (ARG)
           ___xxtofl (ARG)
         ___xxtofl (ARG)
       ___fldiv (ARG)
         ___xxtofl (ARG)
       ___xxtofl (ARG)
     ___xxtofl
   _Write_Remote_AT_Command
     _Remote_AT_Command
       _USART_SendString
         _USART_TxChar
       _USART_TxChar
   _memset
   _sprintf
     _vfprintf
       _vfpfcnvrt
         _dtoa
           ___aodiv
           ___aomod
           _abs
             ___aomod (ARG)
           _pad
             _fputc
               _putch
             _fputs
               _fputc
                 _putch
             _strlen
         _fputc
           _putch

 _LO_ISR (ROOT)

 Address spaces:
Name               Size   Autos  Total    Cost      Usage
BIGRAM             5F3      0       0      16        0.0%
EEDATA             100      0       0       0        0.0%
BITBANK4           100      0       0      11        0.0%
BANK4              100      0       0      12        0.0%
BITBANK3           100      0       0       9        0.0%
BANK3              100      0       0      10        0.0%
BITBANK2           100      0       0       7        0.0%
BANK2              100      0       0       8        0.0%
BITBANK1           100      0       0       5        0.0%
BANK1              100      0      64       6       39.1%
BITBANK5            F4      0       0      15        0.0%
BANK5               F4      0       0      13        0.0%
BITBANK0            80      0       0       3        0.0%
BANK0               80     2B      6D       4       85.2%
BITCOMRAM           7E      0       0       0        0.0%
COMRAM              7E     63      73       1       91.3%
BITSFR_5             0      0       0     200        0.0%
SFR_5                0      0       0     200        0.0%
BITSFR_4             0      0       0     200        0.0%
SFR_4                0      0       0     200        0.0%
BITSFR_3             0      0       0     200        0.0%
SFR_3                0      0       0     200        0.0%
BITSFR_2             0      0       0     200        0.0%
SFR_2                0      0       0     200        0.0%
BITSFR_1             0      0       0     200        0.0%
SFR_1                0      0       0     200        0.0%
BITSFR               0      0       0     200        0.0%
SFR                  0      0       0     200        0.0%
STACK                0      0       0       2        0.0%
NULL                 0      0       0       0        0.0%
ABS                  0      0     144      14        0.0%
DATA                 0      0     144      17        0.0%
CODE                 0      0       0       0        0.0%


Microchip Technology PIC18 Macro Assembler V2.00 build -1524193055 
Symbol Table                                                                                   Sun Jan 13 10:25:44 2019

                           ___fldiv@aexp 002D                             ___fldiv@bexp 002C  
                           ___fldiv@sign 0025                             ?_LCD_Command 0001  
                                     l22 3212                                       l31 2E60  
                                     l32 2E34                                       l40 3010  
                                     l25 328A                                       l33 2E94  
                                     l34 2E94                                       l43 2E14  
                                     l19 317C                                       l44 2DC8  
                                     l28 326E                                       l45 2DEE  
                                     l37 2FDC                                       l46 2E0C  
                                     l38 3004                                       l47 2E2E  
                                     l39 3000                                       l48 2E2E  
                                     bsr 000FE0                              __CFG_BORV$3 000000  
                            ?_LCD_String 000E                             __CFG_CP0$OFF 000000  
                           __CFG_CP1$OFF 000000                             __CFG_CP2$OFF 000000  
                           __CFG_CP3$OFF 000000                  Remote_AT_Command@Length 0021  
                                    l200 1E24                                      l201 1E7A  
                                    l130 2D64                                      l210 1FC2  
                                    l202 1E44                                      l131 2DB4  
                                    l211 1FDC                                      l203 1E76  
                                    l140 2C46                                      l132 2D9E  
                                    l212 1FE8                                      l204 1E66  
                                    l141 2C46                                      l133 2DBA  
                                    l205 1E72                                      l221 30F8  
                                    l150 17F6                                      l206 1E8A  
                                    l151 180E                                      l207 1F1E  
                                    l215 3234                                      l136 2BC2  
                                    l144 1ABC                                      l160 1A7E  
                                    l152 182A                                      l208 1FE2  
                                    l240 1562                                      l137 2B9C  
                                    l161 1A06                                      l153 193C  
                                    l145 1782                                      l209 1F9E  
                                    l233 2FB2                                      l321 2AFA  
                                    l241 1566                                      l138 2BE2  
                                    l162 1A78                                      l154 189A  
                                    l146 17B2                                      l170 2D02  
                                    l250 16FC                                      l242 1736  
                                    l139 2C3C                                      l163 1A9A  
                                    l155 1926                                      l171 2D46  
                                    l323 2B02                                      l331 1B4C  
                                    l251 1732                                      l243 15F4  
                                    l164 1AB4                                      l156 190A  
                                    l148 17AE                                      l172 2D1E  
                                    l180 1078                                      l324 2B2A  
                                    l340 1CDC                                      l332 1B60  
                                    l252 172E                                      l244 167C  
                                    l149 1ADE                                      l157 1922  
                                    l165 1ADE                                      l181 1084  
                                    l325 2B0E                                      l341 1BE0  
                                    l253 174A                                      l245 1634  
                                    l158 195C                                      l190 12D4  
                                    l182 1098                                      l326 2B48  
                                    l334 1B86                                      l254 1750  
                                    l246 1678                                      l238 14E8  
                                    l159 1AB0                                      l191 131A  
                                    l183 10BA                                      l175 1090  
                                    l327 2B6E                                      l319 2AE0  
                                    l351 1DAA                                      l343 1D5E  
                                    l255 1754                                      l247 1674  
                                    l239 156A                                      l168 2D0A  
                                    l192 13C2                                      l184 1106  
                                    l176 1036                                      l328 2B8A  
                                    l336 1B8E                                      l360 2258  
                                    l256 1758                                      l248 16BC  
                                    l169 2CE4                                      l281 323C  
                                    l193 137E                                      l185 1120  
                                    l177 108C                                      l353 1DB6  
                                    l345 1D5A                                      l337 1BC4  
                                    l361 238E                                      l257 1758  
                                    l249 1736                                      l282 323C  
                                    l194 13A2                                      l186 116C  
                                    l178 1056                                      l354 1DF6  
                                    l346 1D62                                      l362 2332  
                                    l283 324E                                      l195 13BC  
                                    l187 1220                                      l179 1088  
                                    l347 1DCA                                      l339 1BBA  
                                    l284 3252                                      l196 13C8  
                                    l188 1274                                      l293 319A  
                                    l189 12BA                                      l349 1D86  
                                    l357 2350                                      l365 2ED2  
                                    l294 3182                                      l278 2CCA  
                                    l358 22DC                                      l366 2EAA  
                                    l295 31BA                                      l199 1E7E  
                                    l367 2EEE                                      l296 31BA  
                                    l480 261A                                      l368 2EF6  
                                    l481 261E                                      l482 2684  
                                    l490 2830                                      l483 26A0  
                                    l475 2588                                      l491 27A8  
                                    l900 0880                                      l484 26D8  
                                    l476 25BE                                      l492 2790  
                                    l901 083E                                      l485 26FC  
                                    l477 26A4                                      l493 27BA  
                                    l910 0904                                      l902 0858  
                                    l670 2932                                      l478 2608  
                                    l494 27BE                                      l911 090C  
                                    l903 0860                                      l671 2936  
                                    l479 25F0                                      l495 2810  
                                    l920 0A46                                      l912 0920  
                                    l904 0874                                      l672 294A  
                                    l496 282C                                      l488 2738  
                                    l913 0A94                                      l921 0A5C  
                                    l905 0896                                      l673 29A2  
                                    l497 2864                                      l489 276A  
                                    l930 0B4C                                      l922 0A64  
                                    l914 09D6                                      l906 0934  
                                    l674 2976                                      l498 2888  
                                    l931 0B48                                      l923 0A7A  
                                    l915 09D2                                      l907 08CC  
                                    l675 298A                                      l667 28B8  
                                    l932 0BA0                                      l924 0A90  
                                    l916 09E6                                      l908 0BE8  
                                    l676 297A                                      l668 29DA  
                                    l925 0ADE                                      l917 0A24  
                                    l909 0930                                      l677 299E  
                                    l669 294E                                      l934 0B74  
                                    l926 0AC4                                      l918 0A7E  
                                    l950 0CB0                                      l678 29C6  
                                    l935 0B9C                                      l927 0ADE  
                                    l919 0A28                                      l951 0CCE  
                                    l936 0BB4                                      l928 0ADA  
                                    l960 0E3C                                      l952 0D18  
                                    l944 0C0A                                      l937 0BBA  
                                    l929 0B50                                      l961 0E58  
                                    l953 1008                                      l945 0C48  
                                    l938 0BD4                                      l890 06D8  
                                    l970 0F5E                                      l962 0E8A  
                                    l954 0D50                                      l946 0C3E  
                                    l891 06F6                                      l971 0F5A  
                                    l963 0E5C                                      l955 0E28  
                                    l947 0C5C                                      l892 0710  
                                    l972 0F92                                      l964 0E76  
                                    l956 0DB0                                      l948 0C7C  
                                    l893 074E                                      l973 0FCC  
                                    l965 0E9C                                      l957 0DF2  
                                    l949 0CBA                                      l894 0744  
                                    l974 0FE4                                      l966 0EFE  
                                    l958 0DE4                                      l895 0762  
                                    l887 0686                                      l975 0FEA  
                                    l967 0EE4                                      l959 0E26  
                                    l896 07CA                                      l888 06C4  
                                    l968 0EFE                                      l897 078A  
                                    l889 06BA                                      l969 0EFA  
                                    l898 083A                                      l899 0896  
                           __CFG_CPB$OFF 000000                                      _RC0 007C10  
                                    _RC1 007C11                                      _PR2 000FCB  
                           __CFG_CPD$OFF 000000         __size_of_Write_Remote_AT_Command 004A  
                                    _abs 30FA                                      _pad 2ABA  
                                    prod 000FF3                                      wreg 000FE8  
                            main@_buffer 00CC                  Remote_AT_Command@action 0016  
                            ?_AT_Command 000A                             __CFG_LVP$OFF 000000  
                           ___fltol@exp1 004B                             __CFG_WDT$OFF 000000  
                                   l1030 209A                                     l1031 208A  
                                   l1040 2150                                     l1032 20CC  
                                   l1041 2164                                     l1033 20E8  
                                   l1042 21B0                                     l1034 20D0  
                                   l1026 2040                                     l1035 211A  
                                   l1027 2054                                     ?_abs 0019  
                                   l1052 23B2                                     l1036 212E  
                                   l1028 2082                                     l1053 254C  
                                   l1037 211E                                     l1029 21C4  
                                   l1054 2404                                     l1046 3130  
                                   l1070 2A66                                     l1055 2492  
                                   l1039 2150                                     l1071 2AB8  
                                   l1056 24E8                                     l1048 313C  
                                   l1064 2A0E                                     l1057 2536  
                                   l3001 0680                                     l1049 313C  
                                   l1058 251C                                     l1066 2A04  
                                   l1059 254C                                     l3011 06BC  
                                   l3003 0686                                     l1067 2AB4  
                                   l1068 2AB0                                     l1076 308A  
                                   l1092 3026                                     l3101 08C8  
                                   l3021 06F6                                     l3005 0696  
                                   l3013 06C4                                     l1077 3070  
                                   l1093 301E                                     l1078 30AE  
                                   l1094 3042                                     l1086 2F54  
                                   l3111 0904                                     l3103 08CC  
                                   l3031 0730                                     l3023 06FC  
                                   l3015 06D8                                     l3007 06A6  
                                   l1079 30AE                                     l1095 3062  
                                   l3113 090C                                     l3105 08DC  
                                   l3121 0934                                     l3041 0774  
                                   l3033 0744                                     l3025 070A  
                                   l3017 06DE                                     l3009 06BA  
                                   l3201 0BF6                                     l1089 328C  
                                   l4001 15F4                                     l3123 095A  
                                   l3131 09D6                                     l3115 091A  
                                   l3107 08EA                                     l3051 0796  
                                   l3043 0782                                     l3035 0746  
                                   l3027 0710                                     l3019 06F0  
                                   l3211 0C3E                                     l3203 0C04  
                                   l4011 165E                                     l4003 1610  
                                   l2421 324E                                     l3141 0A32  
                                   l3133 09FC                                     l3125 09B0  
                                   l3117 0920                                     l3109 08F8  
                                   l3061 07AA                                     l3053 079A  
                                   l3045 078A                                     l3029 0720  
                                   l3037 074E                                     l3301 0EDC  
                                   l3221 0C68                                     l3213 0C40  
                                   l3205 0C0A                                     l4021 16BC  
                                   l4013 166C                                     l4005 162C  
                                   l3151 0A64                                     l3143 0A40  
                                   l3135 0A0C                                     l3127 09B2  
                                   l3119 092A                                     l3071 07BE  
                                   l3063 07AE                                     l3055 079E  
                                   l3047 078E                                     l3039 0762  
                                   l3311 0F52                                     l3303 0EF2  
                                   l3231 0CB0                                     l3223 0C76  
                                   l3207 0C1A                                     l3215 0C48  
                                   l4031 1726                                     l4023 16D8  
                                   l4007 1634                                     l4015 167C  
                                   l3161 0AA6                                     l3153 0A74  
                                   l3145 0A46                                     l3137 0A20  
                                   l3129 09C2                                     l3081 0822  
                                   l3073 07C2                                     l3065 07B2  
                                   l3057 07A2                                     l3049 0792  
                                   l3321 0FCC                                     l3305 0F0E  
                                   l3313 0F5E                                     l3241 0CF4  
                                   l3233 0CB2                                     l3225 0C7C  
                                   l3217 0C5C                                     l3209 0C2A  
                                   l3401 20D2                                     l4033 1744  
                                   l4025 16F8                                     l4017 1698  
                                   l4009 1650                                     l2531 2DC8  
                                   l2419 3238                                     l3171 0B08  
                                   l3163 0ABC                                     l3147 0A54  
                                   l3139 0A28                                     l3155 0A7E  
                                   l3091 086E                                     l3083 0832  
                                   l3067 07B6                                     l3059 07A6  
                                   l3075 07CA                                     l3331 0FF0  
                                   l3323 0FD0                                     l3315 0F78  
                                   l3307 0F1A                                     l3251 0D28  
                                   l3243 0CFC                                     l3227 0C8C  
                                   l3235 0CBA                                     l3219 0C62  
                                   l3411 215E                                     l3403 20DE  
                                   l4027 16FC                                     l4019 16B8  
                                   l2541 2E0C                                     l2533 2DD0  
                                   l2621 325E                                     l2701 1F46  
                                   l3181 0B94                                     l3173 0B42  
                                   l3165 0AD2                                     l3149 0A5C  
                                   l3157 0A94                                     l3093 0874  
                                   l3085 084C                                     l3077 07CE  
                                   l3069 07BA                                     l3333 0FF4  
                                   l3325 0FDE                                     l3317 0F92  
                                   l3309 0F28                                     l3261 0D88  
                                   l3253 0D38                                     l3245 0D00  
                                   l3237 0CCE                                     l3229 0C9C  
                                   l3341 28B4                                     l3421 21AA  
                                   l3413 2164                                     l3405 211E  
                                   l4029 1718                                     l2535 2DEA  
                                   l2543 2E14                                     l2631 2D60  
                                   l4055 1AD0                                     l3431 3152  
                                   l2623 3260                                     l2615 3256  
                                   l2551 319A                                     l2711 1F74  
                                   l2703 1F4C                                     l3191 0BC0  
                                   l3183 0BA0                                     l3167 0AEE  
                                   l3175 0B50                                     l3159 0A98  
                                   l3095 087E                                     l3087 0858  
                                   l3079 0806                                     l3335 1008  
                                   l3327 0FE4                                     l3319 0FAC  
                                   l3271 0DD4                                     l3263 0D98  
                                   l3255 0D4C                                     l3247 0D14  
                                   l3239 0CE4                                     l3351 28F8  
                                   l3343 28B8                                     l3423 21B0  
                                   l3415 2168                                     l3407 212E  
                                   l2537 2DEE                                     l2529 2DBC  
                                   l2641 2D9E                                     l2633 2D64  
                                   l2801 17EC                                     l3441 3176  
                                   l3433 3158                                     l2625 3262  
                                   l2617 325A                                     l2545 317E  
                                   l2721 1FD6                                     l2713 1F88  
                                   l2705 1F52                                     l3193 0BCE  
                                   l3185 0BAE                                     l3177 0B60  
                                   l3169 0AFA                                     l3097 08A4  
                                   l3089 0860                                     l3329 0FEA  
                                   l3281 0E26                                     l3273 0DE2  
                                   l3265 0DA8                                     l3257 0D50  
                                   l3249 0D18                                     l3361 2940  
                                   l3353 2906                                     l3345 28E2  
                                   l3337 288A                                     l3425 21C4  
                                   l3417 218C                                     l3409 213C  
                                   l2539 2DF2                                     l2651 2B9C  
                                   l2643 2DA0                                     l2635 2D84  
                                   l2627 2D48                                     l2811 182A  
                                   l2803 17F6                                     l3443 31EE  
                                   l3435 315E                                     l3427 313E  
                                   l2619 325C                                     l3451 2FD2  
                                   l2547 3182                                     l2715 1F9E  
                                   l2707 1F58                                     l3195 0BD4  
                                   l3187 0BB4                                     l3179 0B74  
                                   l3099 08B4                                     l3291 0E74  
                                   l3283 0E3C                                     l3275 0DF2  
                                   l3267 0DB0                                     l3259 0D78  
                                   l3371 298A                                     l3355 291A  
                                   l3363 294E                                     l3347 28E4  
                                   l3339 28A0                                     l3419 219C  
                                   l2661 2C1C                                     l2653 2BBC  
                                   l2637 2D94                                     l2645 2DB4  
                                   l2629 2D4C                                     l2821 18F2  
                                   l2813 1856                                     l2805 1808  
                                   l3461 2CCC                                     l3437 316A  
                                   l3429 3146                                     l3453 2FDC  
                                   l3445 2FB6                                     l2549 3192  
                                   l2717 1FB2                                     l2709 1F64  
                                   l3197 0BE8                                     l3189 0BBA  
                                   l3285 0E52                                     l3293 0E8A  
                                   l3277 0E10                                     l3269 0DC0  
                                   l3365 295E                                     l3373 29A2  
                                   l3357 292E                                     l3349 28F4  
                                   l3381 1FEC                                     l2901 1056  
                                   l3701 2AEE                                     l2671 2C42  
                                   l2663 2C2E                                     l2655 2BC2  
                                   l2647 2DBA                                     l2639 2D9A  
                                   l2831 1944                                     l2823 190A  
                                   l2815 1882                                     l2807 1812  
                                   l3471 2D0A                                     l3463 2CD8  
                                   l3439 3170                                     l3455 2FEE  
                                   l3447 2FBA                                     l2719 1FC2  
                                   l3295 0E9C                                     l3287 0E5C  
                                   l3279 0E12                                     l3199 0BEA  
                                   l3375 29B2                                     l3367 2972  
                                   l3359 2936                                     l3391 207E  
                                   l3383 1FFC                                     l2911 10B6  
                                   l2903 106C                                     l3711 2B56  
                                   l3703 2AFA                                     l2665 2C34  
                                   l2657 2BE2                                     l2649 2B8C  
                                   l2841 1A06                                     l2833 1958  
                                   l2825 1926                                     l2817 189A  
                                   l2809 1826                                     l3473 2D20  
                                   l3465 2CE4                                     l3457 2FF6  
                                   l3449 2FCA                                     l2681 1E38  
                                   l2673 1DF8                                     l3297 0EA0  
                                   l3289 0E66                                     l3377 29C6  
                                   l3369 297A                                     l3393 2082  
                                   l3385 200A                                     l2921 1120  
                                   l2913 10BA                                     l2905 1078  
                                   l3481 30B0                                     l3721 254E  
                                   l3713 2B6E                                     l3705 2B0E  
                                   l3801 1AE0                                     l2667 2C38  
                                   l2659 2BFE                                     l2851 1AB8  
                                   l2843 1A78                                     l2835 195C  
                                   l2827 1928                                     l2819 18C6  
                                   l3475 2D24                                     l3467 2CFE  
                                   l2771 327A                                     l3459 3004  
                                   l2683 1E44                                     l2691 1E8A  
                                   l2675 1E08                                     l3491 2FA6  
                                   l3299 0EAE                                     l3379 29DA  
                                   l3395 208A                                     l3387 2054  
                                   l2931 1242                                     l2923 116C  
                                   l2915 1106                                     l2907 1090  
                                   l3483 30C0                                     l3731 2596  
                                   l3723 2552                                     l3715 2B8A  
                                   l3707 2B22                                     l3811 1B60  
                                   l3803 1B00                                     l2861 23AE  
                                   l2669 2C3C                                     l2837 1982  
                                   l2845 1A7E                                     l2829 193C  
                                   l2853 1ABC                                     l3477 2D40  
                                   l3469 2D02                                     l2773 327C  
                                   l2765 3272                                     l2781 2E58  
                                   l2693 1EC4                                     l2685 1E5A  
                                   l2677 1E18                                     l3485 2F56  
                                   l3397 209A                                     l3389 206A  
                                   l3493 2C48                                     l2941 125E  
                                   l2933 1248                                     l2925 11C6  
                                   l2917 110A                                     l2909 10A4  
                                   l3741 25F0                                     l3733 25B6  
                                   l3725 2560                                     l3717 30FA  
                                   l3709 2B2A                                     l3821 1BC4  
                                   l3813 1B7A                                     l3805 1B28  
                                   l3901 2382                                     ?_pad 0017  
                                   l2871 2474                                     l2863 23B2  
                                   l2847 1A9A                                     l2839 1994  
                                   l2791 1782                                     l3479 2D46  
                                   l2775 327E                                     l2767 3276  
                                   l2783 2E60                                     l2695 1ED4  
                                   l2687 1E66                                     l2679 1E24  
                                   l3487 2F62                                     l3399 20D0  
                                   l3495 2C4C                                     l2943 1270  
                                   l2951 12BA                                     l2935 124E  
                                   l2927 11D6                                     l2919 111C  
                                   l3751 267E                                     l3743 2608  
                                   l3735 25BE                                     l3727 2580  
                                   l3719 3114                                     l3671 2A2C  
                                   l3663 29DC                                     l3831 1C6E  
                                   l3823 1BCC                                     l3815 1B96  
                                   l3807 1B4C                                     l3903 238E  
                                   l3911 2ED2                                     l2881 24E8  
                                   l2873 248E                                     l2865 23BE  
                                   l2849 1A9C                                     l2793 1796  
                                   l2785 175C                                     l2769 3278  
                                   l2777 2E30                                     l2697 1F3A  
                                   l2689 1E7E                                     l3489 2F7E  
                                   l3497 2CC2                                     l2961 1308  
                                   l2953 12BE                                     l2945 1274  
                                   l2937 1254                                     l2929 123C  
                                   l3761 26D8                                     l3753 2684  
                                   l3745 261E                                     l3737 25CA  
                                   l3729 2588                                     l3673 2A66  
                                   l3665 29EE                                     l3681 3082  
                                   l3841 1D2E                                     l3833 1C74  
                                   l3825 1BE0                                     l3817 1BA8  
                                   l3809 1B5A                                     l3905 2E96  
                                   l3921 2F3E                                     l3913 2EF8  
                                   l2883 251C                                     l2875 2492  
                                   l2867 2400                                     l2859 2390  
                                   l2795 17B2                                     l2787 1766  
                                   l2779 2E34                                     l2699 1F40  
                                   l3499 2CC6                                     l2971 1344  
                                   l2955 12D0                                     l2963 131A  
                                   l2947 12A2                                     l2939 125A  
                                   l2891 100A                                     l3763 26FC  
                                   l3755 2696                                     l3747 2630  
                                   l3739 25E8                                     l3771 2730  
                                   l3675 2AB8                                     l3667 2A04  
                                   l3683 308A                                     l3691 3042  
                                   l3851 1D8C                                     l3843 1D48  
                                   l3827 1BE6                                     l3835 1CDC  
                                   l3819 1BBA                                     l3907 2E9E  
                                   l3923 2F54                                     l3915 2F0A  
                                   l3931 1408                                     l2885 2528  
                                   l2877 24CA                                     l2869 2404  
                                   l2797 17C6                                     l2789 177A  
                                   l2981 13A2                                     l2973 1354  
                                   l2965 1326                                     l2957 12D4  
                                   l2949 12A8                                     l2893 101A  
                                   l3749 265E                                     l3757 26A4  
                                   l3781 2790                                     l3773 2738  
                                   l3765 26FE                                     l3669 2A0E  
                                   l3677 3064                                     l3693 3062  
                                   l3685 3012                                     l3861 1DF6  
                                   l3853 1D9E                                     l3837 1CF6  
                                   l3845 1D62                                     l3829 1C68  
                                   l3909 2EAA                                     l3917 2F12  
                                   l3941 143E                                     l3933 141A  
                                   l3925 13CA                                     l2887 252E  
                                   l2879 24E4                                     l2799 17DC  
                                   l2983 13B6                                     l2975 1368  
                                   l2967 132C                                     l2959 1302  
                                   l2895 102A                                     l3759 26B4  
                                   l3791 2822                                     l3783 27A8  
                                   l3775 2746                                     l3767 2702  
                                   l3679 3070                                     l3687 301E  
                                   l3695 2ABA                                     l3855 1DAA  
                                   l3847 1D74                                     l3839 1D14  
                                   l3871 220C                                     l3863 21C6  
                                   l3919 2F1A                                     l3951 1468  
                                   l3943 1440                                     l3935 142C  
                                   l3927 13F0                                     l2889 2536  
                                   l2985 3214                                     l2977 137E  
                                   l2969 1338                                     l2897 1036  
                                   l3785 27BE                                     l3793 2830  
                                   l3777 276A                                     l3769 2710  
                                   l3689 3026                                     l3697 2AC8  
                                   l3857 1DB6                                     l3849 1D86  
                                   l3881 22DC                                     l3873 2230  
                                   l3865 21EA                                     l3961 1472  
                                   l3953 146A                                     l3945 1442  
                                   l3937 1438                                     l3929 1404  
                                   l2987 3224                                     l2979 1392  
                                   l2899 104A                                     l3795 2840  
                                   l3787 27EC                                     l3779 2788  
                                   l3699 2AE0                                     l3859 1DCA  
                                   l3883 2300                                     l3891 2332  
                                   l3875 2258                                     l3867 21F8  
                                   l3971 14D2                                     l3963 1474  
                                   l3955 146C                                     l3947 1454  
                                   l3939 143C                                     l2997 0666  
                                   l3797 2864                                     l3789 2810  
                                   l3893 2340                                     l3885 230E  
                                   l3877 22A0                                     l3869 2208  
                                   l3981 14FE                                     l3973 14DE  
                                   l3965 1478                                     l3957 146E  
                                   l3949 1466                                     l2999 0672  
                                   l3799 2888                                     l3895 234C  
                                   l3887 2322                                     l3879 22D8  
                                   l3991 157C                                     l3983 1512  
                                   l3975 14E2                                     l3967 147C  
                                   l3959 1470                                     l3889 232E  
                                   l3897 2350                                     l3993 1598  
                                   l3985 1530                                     l3977 14E8  
                                   l3969 148E                                     l3899 2374  
                                   l3995 15B4                                     l3987 1542  
                                   l3979 14EC                                     l3997 15D0  
                                   l3989 156A                                     l3999 15EC  
                                   STR_1 065B                                     STR_2 065E  
                                   STR_3 0643                                     STR_4 0652  
                                   STR_5 0623                                     STR_6 0601  
                                   STR_7 0612                                     STR_8 0661  
                                   STR_9 0634                                     _CREN 007D5C  
                    _Is_Checksum_Correct 2B8C                                     u3000 18C6  
                                   u3001 18C2                                     u3100 23FC  
                                   u3020 18F2                                     u3101 23F8  
                                   u3021 18EE                                     u3110 248A  
                                   u3030 1938                                     u3014 18DE  
                                   u3111 2486                                     u3031 1934  
                                   u3015 18D8                                     u3120 24E0  
                                   u3040 1954                                     u4000 28D8  
                                   u3200 1102                                     _LATD 000F8C  
                                   u3121 24DC                                     u3041 1950  
                                   u3201 10FE                                     u3130 2548  
                                   u4010 2906                                     u3210 1118  
                                   u3131 2544                                     u4011 2902  
                                   u3211 1114                                     u3060 1982  
                                   u2500 31B6                                     u4020 291A  
                                   u4100 2116                                     u3300 12F6  
                                   u3220 1142                                     u3140 101A  
                                   u3061 197E                                     u2501 31B2  
                                   u4021 2916                                     u4005 28CE  
                                   u4101 2112                                     u3141 1016  
                                   u3070 1994                                     u3054 196E  
                                   u4030 295E                                     u4110 213C  
                                   u3310 1316                                     u3230 1168  
                                   u3150 102A                                     u3071 1990  
                                   u3055 196A                                     u4031 295A  
                                   u4111 2138                                     u3311 1312  
                                   u3231 1164                                     u3151 1026  
                                   u3080 1AAC                                     u2280 324A  
                                   u3400 06F0                                     u4040 299A  
                                   u4120 214C                                     u3320 1354  
                                   u3240 11D6                                     u3160 104A  
                                   u5000 16D8                                     u3081 1AA8  
                                   u2281 3246                                     u3401 06EC  
                                   u4041 2996                                     u4121 2148  
                                   u3321 1350                                     u3305 12EC  
                                   u3241 11D2                                     u3225 1138  
                                   u3161 1046                                     u5001 16D4  
                                   u3090 23AA                                     u3410 070A  
                                   u4050 29B2                                     u4130 215E  
                                   u3330 1368                                     u3250 11F6  
                                   u3170 106C                                     u5010 16F4  
                                   u3091 23A6                                     u3411 0706  
                                   u4051 29AE                                     u4131 215A  
                                   u3331 1364                                     u3171 1068  
                                   u5011 16F0                                     u2700 2BDE  
                                   u3500 086E                                     u3420 0720  
                                   u4140 219C                                     u4060 1FFC  
                                   u3340 1392                                     u3260 126C  
                                   u3180 10B2                                     u5020 1718  
                                   u2701 2BDA                                     u3501 086A  
                                   u3421 071C                                     u4141 2198  
                                   u4061 1FF8                                     u3341 138E  
                                   u3261 1268                                     u3181 10AE  
                                   u5021 1714                                     u2470 2DE6  
                                   u2710 2C1C                                     u3510 0892  
                                   u3430 0730                                     u4150 21AA  
                                   u4070 200A                                     u3350 13B6  
                                   u3270 1296                                     u3190 10DC  
                                   u5030 1726                                     u2471 2DE2  
                                   u2711 2C18                                     u3511 088E  
                                   u3431 072C                                     u4151 21A6  
                                   u4071 2006                                     u3351 13B2  
                                   u3255 11EC                                     u5031 1722  
                                   u2480 2E08                                     u2720 2C2E  
                                   u4160 2FCA                                     u2800 1F88  
                                   u3600 0A0C                                     u3520 08A4  
                                   u3440 0774                                     u4080 206A  
                                   u3280 12B6                                     u5040 1744  
                                   u2481 2E04                                     u2721 2C2A  
                                   u4161 2FC6                                     u2801 1F84  
                                   u3601 0A08                                     u3521 08A0  
                                   u3441 0770                                     u4081 2066  
                                   u3281 12B2                                     u5041 1740  
                                   u2490 2E2A                                     u4170 2FEE  
                                   u2810 1FB2                                     u2730 1E08  
                                   u3610 0A40                                     u3530 08B4  
                                   u3450 0782                                     u3370 0680  
                                   u4090 20C8                                     u3290 12CC  
                                   u2491 2E26                                     u4171 2FEA  
                                   u2811 1FAE                                     u2731 1E04  
                                   u3611 0A3C                                     u3531 08B0  
                                   u3451 077E                                     u3371 067C  
                                   u4091 20C4                                     u3291 12C8  
                                   u3275 128C                                     u3195 10D2  
                                   u2660 2D5C                                     u2900 1796  
                                   u4180 2CFA                                     u2820 1FD6  
                                   u2740 1E18                                     u3700 0B42  
                                   u3620 0A54                                     u3540 08EA  
                                   u3460 0806                                     u3380 0696  
                                   u4420 29EE                                     u4500 2B48  
                                   u2661 2D58                                     u2901 1792  
                                   u4181 2CF6                                     u2821 1FD2  
                                   u2741 1E14                                     u3701 0B3E  
                                   u3621 0A50                                     u3541 08E6  
                                   u3461 0802                                     u3381 0692  
                                   u4421 29EA                                     u4501 2B44  
                                   u2670 2D84                                     u2910 17AA  
                                   u4190 2D1E                                     u2750 1E38  
                                   u3710 0B60                                     u3630 0A74  
                                   u3550 08F8                                     u3470 081E  
                                   u3390 06A6                                     u4430 2A00  
                                   u4510 2B56                                     u2671 2D80  
                                   u2911 17A6                                     u4191 2D1A  
                                   u2751 1E34                                     u3711 0B5C  
                                   u3631 0A70                                     u3551 08F4  
                                   u3471 0818                                     u3391 06A2  
                                   u4431 29FC                                     u4511 2B52  
                                   u2680 2D94                                     u2920 17EC  
                                   u2760 1E5A                                     u3720 0B70  
                                   u3640 0A8C                                     u3560 091A  
                                   u3480 0820                                     u3800 0C8C  
                                   u4600 2710                                     u4520 3114  
                                   u4440 2A2C                                     u2681 2D90  
                                   u2921 17E8                                     u2761 1E56  
                                   u3721 0B6C                                     u3641 0A88  
                                   u3561 0916                                     u3801 0C88  
                                   u4601 270C                                     u4521 3110  
                                   u4441 2A28                                     u2690 2DB0  
                                   u2930 1808                                     u2770 1ED4  
                                   u3730 0B94                                     u3650 0AA6  
                                   u3570 095A                                     u3490 084C  
                                   u3810 0C9C                                     u4530 2560  
                                   u4610 2746                                     u4450 2A62  
                                   u2691 2DAC                                     u2931 1804  
                                   u2771 1ED0                                     u3731 0B90  
                                   u3651 0AA2                                     u3571 0956  
                                   u3491 0848                                     u3811 0C98  
                                   u4531 255C                                     u4611 2742  
                                   u4451 2A5E                                     u2940 1822  
                                   u2780 1EF4                                     u3740 0BAE  
                                   u3660 0ABC                                     u3580 09C2  
                                   u3900 0E98                                     u3820 0CE4  
                                   u4540 2596                                     u4620 2788  
                                   u4460 30AA                                     u4700 1B7A  
                                   u2941 181E                                     u3741 0BAA  
                                   u3661 0AB8                                     u3581 09BE  
                                   u3901 0E94                                     u3821 0CE0  
                                   u4541 2592                                     u4621 2784  
                                   u4461 30A6                                     u4701 1B76  
                                   u2870 2E54                                     u2790 1F74  
                                   u3750 0BCE                                     u3670 0AD2  
                                   u3590 09FC                                     u3910 0EAE  
                                   u3830 0D28                                     u4630 27B6  
                                   u4470 303E                                     u4710 1BA8  
                                   u2791 1F70                                     u3751 0BCA  
                                   u3671 0ACE                                     u3591 09F8  
                                   u3911 0EAA                                     u3831 0D24  
                                   u4551 25C4                                     u4631 27B2  
                                   u4471 303A                                     u4711 1BA4  
                                   u2960 1856                                     u2880 2E80  
                                   u3680 0AEE                                     u3920 0EDC  
                                   u3840 0DC0                                     u3760 0C04  
                                   u4560 25E8                                     u4640 27EC  
                                   u4480 2AC8                                     u4800 1D9E  
                                   u4720 1BB6                                     u2961 1852  
                                   u2785 1EEA                                     u3681 0AEA  
                                   u3921 0ED8                                     u3841 0DBC  
                                   u3761 0C00                                     u4561 25E4  
                                   u4641 27E8                                     u4481 2AC4  
                                   u4801 1D9A                                     u4721 1BB2  
                                   u2954 1842                                     u2890 2E90  
                                   u3690 0B08                                     u3930 0EF2  
                                   u3850 0DE2                                     u3770 0C1A  
                                   u4570 2616                                     u4650 2840  
                                   u4490 2AEE                                     u4730 1CF6  
                                   u4810 21EA                                     u2955 183C  
                                   u2891 2E8C                                     u3691 0B04  
                                   u3931 0EEE                                     u3851 0DDE  
                                   u3771 0C16                                     u4571 2612  
                                   u4651 283C                                     u4491 2AEA  
                                   u4731 1CF2                                     u4811 21E6  
                                   u2980 1882                                     u3940 0F0E  
                                   u3860 0E10                                     u3780 0C2A  
                                   u4580 265E                                     u4740 1D14  
                                   u4660 1B10                                     u4820 2230  
                                   u4900 15B4                                     _RCIF 007CF5  
                                   u2981 187E                                     u2877 2E4A  
                                   u3941 0F0A                                     u3861 0E0C  
                                   u3781 0C26                                     u4581 265A  
                                   u4741 1D10                                     u4661 1B0A  
                                   u4821 222C                                     u4901 15B0  
                                   u2974 186E                                     u3950 0F28  
                                   u3870 0E38                                     u3790 0C76  
                                   u4590 26B4                                     u4750 1D2E  
                                   u4670 1B12                                     u4830 2254  
                                   u4910 15D0                                     u2975 1868  
                                   u2887 2E76                                     u3951 0F24  
                                   u3871 0E34                                     u3791 0C72  
                                   u4591 26B0                                     u4751 1D2A  
                                   u4831 2250                                     u4911 15CC  
                                   u3960 0F78                                     u3880 0E52  
                                   u4760 1D48                                     u4680 1B28  
                                   u4840 2300                                     u4920 15EC  
                                   u3961 0F74                                     u3881 0E4E  
                                   u4761 1D44                                     u4681 1B24  
                                   u4841 22FC                                     u4921 15E8  
                                   u2994 18B2                                     u3970 0FAC  
                                   u3890 0E74                                     u4770 1D56  
                                   u4690 1B5A                                     u4850 2EEE  
                                   u4930 1610                                     u2995 18AC  
                                   u3971 0FA8                                     u3891 0E70  
                                   u4771 1D52                                     u4691 1B56  
                                   u4851 2EEA                                     u4931 160C  
                                   u3980 0FDE                                     u4780 1D74  
                                   u4940 162C                                     u4860 14FE  
                                   u3981 0FDA                                     u4781 1D70  
                                   u4941 1628                                     u4861 14FA  
                                   u3990 28A0                                     u4790 1D82  
                                   u4950 1650                                     u4870 1512  
                                   u3991 289C                                     u4791 1D7E  
                                   u4951 164C                                     u4871 150E  
                                   u4960 165E                                     u4880 157C  
                                   u4961 165A                                     u4881 1578  
                                   u4970 166C                                     u4890 1598  
                                   u4971 1668                                     u4891 1594  
                                   u4980 1698                                     u4981 1694  
                                   u4990 16B4                                     u4991 16B0  
                                   _TXIF 007CF4                                     abs@a 0019  
                             _AnalogData 0080                                     _dbuf 00A2  
                                   _main 13CA                                     _dtoa 1AE0  
                     __size_of_LCD_Clear 0026                                     _prec 006C  
                                   _nout 0068                                     pad@i 001E  
                                   pad@p 001B                                     fsr1h 000FE2  
                                   fsr2h 000FDA                                     indf1 000FE7  
                                   indf2 000FDF                                     fsr1l 000FE1  
                                   pad@w 0020                                     fsr2l 000FD9  
                                   btemp 0074                 __end_of_USART_SendString 31BC  
                                   prodl 000FF3                                     start 00C2  
                        __end_of_MSdelay 2E30                            __CFG_IESO$OFF 000000  
                        ___fldiv@new_exp 0026                            _LCD_String_xy 2FB4  
                          __CFG_MCLRE$ON 000000                        Is_Data_Received@i 0007  
                           ___param_bank 000000                             LCD_Char@Data 000D  
                                  ??_abs 001B                                    ??_pad 001D  
                   ?_Is_Checksum_Correct 0001                         __end_of_LCD_Char 3270  
                       __end_of_LCD_Init 317E                               _Get_Sample 2CCC  
                          ___fltol@sign1 004A                          __end_of___aodiv 26FE  
                        __end_of___fladd 0BEA                                    ?_main 0001  
                                  ?_dtoa 0022                          __end_of___aomod 288A  
                        __end_of___fldiv 100A                          __end_of___fltol 29DC  
                                  _LATA0 007C48                                    _LATA1 007C49  
                                  i1l230 00AA                                    i1l226 00AA  
                                  i1l227 0058                                    i1l228 008E  
                                  i1l229 00A6                                    _RCREG 000FAE  
                                  _RCSTA 000FAB                             vfpfcnvrt@fmt 0048  
                                  _SPBRG 000FAF                                    _TRISA 000F92  
                                  _TRISD 000F95                                    _TXREG 000FAD  
                     Remote_AT_Command@i 001D                                    _TXSTA 000FAC  
                          __CFG_PWRT$OFF 000000                            __CFG_WRT0$OFF 000000  
                          __CFG_WRT1$OFF 000000                            __CFG_WRT2$OFF 000000  
                          __CFG_WRT3$OFF 000000                           __CFG_EBTR0$OFF 000000  
                         __CFG_FCMEN$OFF 000000                           __CFG_EBTR1$OFF 000000  
                         __CFG_EBTR2$OFF 000000                           __CFG_EBTR3$OFF 000000  
                          __CFG_WRTB$OFF 000000                            __CFG_WRTC$OFF 000000  
                          __CFG_WRTD$OFF 000000                           __CFG_EBTRB$OFF 000000  
                                  _flags 006E                                    _fputc 29DC  
                                  _fputs 3064                                    pad@fp 0017  
                                  _width 006A                                    _putch 328C  
                                  dtoa@d 0024                                    dtoa@i 0044  
                                  dtoa@n 003C                                    dtoa@p 0036  
                                  dtoa@s 003A                                    dtoa@w 0038  
                      _Remote_AT_Command 100A                                    tablat 000FF5  
              __size_of_Write_AT_Command 0022            Write_AT_Command@_CommandValue 0017  
                                  ttemp5 0075                                    ttemp6 0078  
                                  ttemp7 007C                                    status 000FD8  
                                  wtemp8 0075                      __size_of_LCD_String 0066  
                        __end_of_sprintf 2F56                       ?_Remote_AT_Command 000A  
                       sample@Is_Digital 001A                           ?_LCD_String_xy 0010  
                            ?_USART_Init 004C                          __initialization 31BC  
                       sample@Frame_Type 0016                      ??_Remote_AT_Command 0017  
                           __end_of_main 175C                             __end_of_dtoa 1DF8  
                    __size_of_AT_Command 01F2                              _DigitalData 0090  
                  ??_Is_Checksum_Correct 0007                                   ??_main 0064  
                                 ??_dtoa 002C                        __end_of_LCD_Clear 3214  
                          __activetblptr 000002                 __end_of_Is_Data_Received 2DBC  
              __end_of_Remote_AT_Command 13CA                                   ?_fputc 0007  
                                 ?_fputs 0010                                   _CCPR1L 000FBE  
                                 ?_putch 0001                         LCD_String_xy@msg 0011  
                       LCD_String_xy@pos 0010                         LCD_String_xy@row 0013  
                                 i1l3521 0058                                   i1l3531 0092  
                                 i1l3523 006A                                   i1l3515 002E  
                                 i1l3525 0072                                   i1l3517 003C  
                              ??_MSdelay 0009                                   i1l3527 007A  
                                 i1l3519 004E                                   i1l3529 008E  
                                 _OSCCON 000FD3                                   _LO_ISR 0018  
                                 _TRISC6 007CA6                                   _TRISC7 007CA7  
                       __end_of___xxtofl 21C6                           __CFG_XINST$OFF 000000  
                           vfprintf@cfmt 005C                                ??___aodiv 0017  
                              ??___fladd 0036                                ??___aomod 0017  
                              ??___fldiv 001D                           __CFG_STVREN$ON 000000  
                              ??___fltol 0046                       LCD_Command@Command 000D  
                            ?_Get_Sample 0001                                   _memset 2390  
                                 clear_0 31C2                                   clear_1 31CE  
                                 clear_2 31DA                                   _sample 175C  
                                 pad@buf 0019                  _Write_Remote_AT_Command 30B0  
                   __size_of_LCD_Command 001C                                   dtoa@fp 0022  
                                 _strlen 3012                                   fputc@c 0007  
             Remote_AT_Command@ATCommand 0014                                   fputs@c 0014  
                                 fputs@i 0015                                   fputs@s 0010  
                        Get_Sample@count 001F                             __mediumconst 0000  
                                 tblptrh 000FF7                                   tblptrl 000FF6  
                                 tblptru 000FF8                      __size_of_USART_Init 0084  
                                 putch@c 0001                         __end_of_vfprintf 2EF8  
                              ??_sprintf 0064                             ___xxtofl@arg 0011  
                           ___xxtofl@exp 0010                             ___xxtofl@val 0007  
                              ?_LCD_Char 0001                               __accesstop 0080  
                __end_of__initialization 31E0                                ?_LCD_Init 0001  
                        __CFG_PBADEN$OFF 000000                          ??_LCD_String_xy 0013  
                          ___rparam_used 000001                               ___fltol@f1 0042  
                          _ReceiveBuffer 0100                           __pcstackCOMRAM 0001  
                          __end_of_fputc 2ABA                            __end_of_fputs 30B0  
                          __end_of_putch 328E                             ??_LCD_String 0010  
                           ??_AT_Command 000D               __size_of_Remote_AT_Command 03C0  
                                ??_fputc 000B                                  ??_fputs 0014  
                                ??_putch 0007                               __pbssBANK0 0080  
                             __pbssBANK1 0100                         _Write_AT_Command 3214  
                             ??_LCD_Char 000D                                  ?_LO_ISR 0001  
                    __size_of_Get_Sample 007C                               ??_LCD_Init 000E  
                     __end_of_LCD_String 2E96                        ?_USART_SendString 0008  
                     ??_USART_SendString 000A     Write_Remote_AT_Command@_CommandValue 0031  
                     __end_of_AT_Command 1FEA                ??_Write_Remote_AT_Command 0035  
               __size_of_SetTo_Broadcast 005E  Write_Remote_AT_Command@Long_Address_LSB 0029  
      Remote_AT_Command@Long_Address_LSB 000E                                  ?_memset 0007  
Write_Remote_AT_Command@Long_Address_MSB 0025        Remote_AT_Command@Long_Address_MSB 000A  
                                ?_sample 0001                              sample@i_529 001D  
                                ?_strlen 0007                      AT_Command@ATCommand 000A  
                              ?___xxtofl 0007                      LO_ISR@received_char 0006  
                     __size_of_vfpfcnvrt 01CA                                  _MSdelay 2DBC  
                        __size_of_LO_ISR 00AA                            LCD_String@str 000E  
                           ??_USART_Init 0050                                  __Hparam 0000  
                                __Lparam 0000                                  ___aodiv 254E  
                                ___fladd 0666                                  ___aomod 26FE  
                                ___fldiv 0BEA                                  ___fltol 288A  
                              ?_vfprintf 0056                             __psmallconst 0600  
                                __pcinit 31BC                          __size_of_memset 01BE  
                                __ramtop 0600                          __size_of_sample 0384  
                                __ptext0 13CA                                  __ptext1 2EF8  
                                __ptext2 2E96                                  __ptext3 21C6  
                                __ptext4 1AE0                                  __ptext5 2ABA  
                                __ptext6 3012                                  __ptext7 3064  
                                __ptext8 29DC                                  __ptext9 328C  
                    USART_SendString@str 0008                          __size_of_strlen 0052  
                              _T2CONbits 000FCA                             __size_of_abs 0044  
                           __size_of_pad 00D2                               ??___xxtofl 000B  
                              _LCD_Clear 31EE                        __IsContainsAnalog 00A0  
                       AT_Command@Length 0013                       __end_of_USART_Init 2CCC  
                                _sprintf 2EF8          __end_of_Write_Remote_AT_Command 30FA  
                      ?_Is_Data_Received 0001                     end_of_initialization 31E0  
                       AT_Command@action 000C                       ??_Is_Data_Received 0007  
                                fputc@fp 0009                                  memset@c 0009  
                                memset@k 0011                                  memset@n 000B  
                                memset@s 0013                            __Lmediumconst 0000  
                                fputs@fp 0012              __end_of_Is_Checksum_Correct 2C48  
                                sample@i 001E                                  sample@j 001C  
                      __end_of_vfpfcnvrt 2390                                _RCSTAbits 000FAB  
                                postdec2 000FDD                                  postinc0 000FEE  
                                postinc1 000FE6                                  postinc2 000FDE  
                             ??_vfprintf 005C                             ??_Get_Sample 001F  
                                strlen@a 000B                                  strlen@s 0007  
                            ___fladd@grs 0041                        ??_SetTo_Broadcast 001B  
                          ___xxtofl@sign 000F                                _TRISCbits 000F94  
                              _TRISDbits 000F95                               ?_LCD_Clear 0001  
                            ___fldiv@grs 0028                              ___fldiv@rem 0021  
         Remote_AT_Command@Short_Address 0012                   Remote_AT_Command@i_551 001E  
                 Remote_AT_Command@i_552 001F                   Remote_AT_Command@i_553 0020  
                 Remote_AT_Command@i_554 001B                      USART_Init@baud_rate 004C  
                            _CCP1CONbits 000FBD                            ?_USART_TxChar 0001  
                     __end_of_Get_Sample 2D48                           __end_of_LO_ISR 00C2  
                      __size_of_LCD_Char 001C                        __size_of_LCD_Init 0040  
                          ??_LCD_Command 000D                              vfpfcnvrt@ap 004A  
                            vfpfcnvrt@fp 0046                              vfpfcnvrt@ll 004E  
               __end_of_Write_AT_Command 3236                           __end_of_memset 254E  
                         __end_of_sample 1AE0                          sample@Is_Analog 0019  
                         __end_of_strlen 3064                      start_initialization 31BC  
                            __end_of_abs 313E                              __end_of_pad 2B8C  
                         ??_USART_TxChar 0007                                 ??_LO_ISR 0001  
                       __CFG_OSC$INTIO67 000000                    __end_of_LCD_String_xy 3012  
                            vfprintf@fmt 0058                         __CFG_LPT1OSC$OFF 000000  
                               ??_memset 000D                                 ??_sample 000C  
                             memset@dest 0007                                 ??_strlen 0009  
              __size_of_USART_SendString 003E                                ___fladd@a 0032  
                              ___fladd@b 002E                                ___fldiv@a 0019  
                              ___fldiv@b 0015                      __end_of_LCD_Command 328C  
                            __pbssCOMRAM 0064                            __pcstackBANK0 00C2  
                       ___aodiv@dividend 0007                              ??_LCD_Clear 000E  
                      __size_of___xxtofl 01DC                                 ?_MSdelay 0007  
              Remote_AT_Command@Checksum 0023                        __CFG_CCP2MX$PORTC 000000  
                               ?___aodiv 0007                                 ?___fladd 002E  
                               ?___aomod 0007                                 ?___fldiv 0015  
                       ___aodiv@quotient 0019                                 ?___fltol 0042  
                            __pintcodelo 0018                        __size_of_vfprintf 0062  
                            __smallconst 0600                             sample@Length 0014  
                  LCD_String_xy@location 0014                                 ?_sprintf 005E  
                         __size_of_fputc 00DE                           __size_of_fputs 004C  
                         __size_of_putch 0002              Is_Checksum_Correct@checksum 000A  
                               MSdelay@i 0009                                 MSdelay@j 000B  
                               _LCD_Char 3254                                 _LCD_Init 313E  
                     AT_Command@Checksum 0011                                 _LATCbits 000F8B  
                               _LATDbits 000F8C                                 _PIE1bits 000F9D  
                               i1u420_20 003C                                 i1u420_21 0038  
                               i1u421_20 004E                                 i1u421_21 004A  
                               i1u422_20 006A                                 i1u422_21 0066  
               ?_Write_Remote_AT_Command 0025                         __CFG_WDTPS$32768 000000  
              __size_of_Is_Data_Received 0074                          _SetTo_Broadcast 2F56  
                            _LCD_Command 3270                                _vfpfcnvrt 21C6  
                   Is_Checksum_Correct@i 0009                            _BufferPointer 0072  
                   __end_of_USART_TxChar 3254                Write_AT_Command@ATCommand 0015  
                          _Command_Value 0064                      sample@Digital_Value 0017  
                       __size_of_MSdelay 0074                                 __Hrparam 0000  
                             vfprintf@ap 005A                                 __Lrparam 0000  
                             vfprintf@fp 0056                       __CFG_BOREN$SBORDIS 000000  
   Write_Remote_AT_Command@Short_Address 002D                         USART_TxChar@data 0007  
                       __size_of___aodiv 01B0                         __size_of___fladd 0584  
                       __size_of___aomod 018C             __size_of_Is_Checksum_Correct 00BC  
                       __size_of___fldiv 0420                         __size_of___fltol 0152  
                             ?_vfpfcnvrt 0046                          ___aodiv@divisor 000F  
                      ?_Write_AT_Command 0015                          ___aodiv@counter 0017  
                       _USART_SendString 317E                               sprintf@fmt 0060  
                             sprintf@ret 00C2                       ??_Write_AT_Command 001B  
                               ___xxtofl 1FEA                                 _dtoa$708 0034  
                               __ptext10 30FA                                 __ptext11 26FE  
                               __ptext20 2F56                                 __ptext12 254E  
                               __ptext21 3214                                 __ptext13 30B0  
                               __ptext30 3270                                 __ptext22 1DF8  
                               __ptext14 100A                                 __ptext31 2CCC  
                               __ptext23 317E                                 __ptext15 2C48  
                               __ptext32 175C                                 __ptext24 3236  
                               __ptext16 1FEA                                 __ptext33 2D48  
                               __ptext25 2FB4                                 __ptext17 288A  
                               __ptext34 2B8C                                 __ptext26 2E30  
                               __ptext18 0BEA                                 __ptext35 2390  
                               __ptext27 3254                                 __ptext19 0666  
                               __ptext36 2DBC                                 __ptext28 313E  
                               __ptext29 31EE                         __size_of_sprintf 005E  
                          __size_of_main 0392                            __size_of_dtoa 0318  
                __end_of_SetTo_Broadcast 2FB4                               MSdelay@val 0007  
                     __IsContainsDigital 00A1                                 int$flags 0074  
                               _vfprintf 2E96                               _LCD_String 2E30  
                       ___aomod@dividend 0007                               _INTCONbits 000FF2  
                             _AT_Command 1DF8                                 intlevel1 0000  
                              sprintf@ap 00C4                          _LastByteOfFrame 0070  
                  main@Remote_Address_DH 00E5                    main@Remote_Address_DL 00E9  
                       _Is_Data_Received 2D48                    __size_of_USART_TxChar 001E  
                        ___aomod@divisor 000F                              ??_vfpfcnvrt 004C  
                        ___aomod@counter 0017                                 sprintf@f 00C6  
                               sprintf@s 005E         Write_Remote_AT_Command@ATCommand 002F  
                 __size_of_LCD_String_xy 005E                            ___fladd@signs 003E  
                           ___aodiv@sign 0018                             ___fladd@aexp 003F  
                           ___fladd@bexp 0040                             _USART_TxChar 3236  
                       ?_SetTo_Broadcast 0001                             ___aomod@sign 0018  
                             _USART_Init 2C48  
